
/home/lc/work/s32g/s32g399a/s32g399a-atf/build/s32g399ardb3/release/bl2/bl2.elf:     file format elf64-littleaarch64
/home/lc/work/s32g/s32g399a/s32g399a-atf/build/s32g399ardb3/release/bl2/bl2.elf
architecture: aarch64, flags 0x00000112:
EXEC_P, HAS_SYMS, D_PAGED
start address 0x0000000034302000

Program Header:
    LOAD off    0x0000000000001000 vaddr 0x0000000034302000 paddr 0x0000000034302000 align 2**12
         filesz 0x0000000000017000 memsz 0x0000000000017000 flags r-x
    LOAD off    0x0000000000018000 vaddr 0x0000000034319000 paddr 0x0000000034319000 align 2**12
         filesz 0x0000000000015931 memsz 0x000000000003b000 flags rw-
   STACK off    0x0000000000000000 vaddr 0x0000000000000000 paddr 0x0000000000000000 align 2**4
         filesz 0x0000000000000000 memsz 0x0000000000000000 flags rw-
private flags = 0x0:

Sections:
Idx Name          Size      VMA               LMA               File off  Algn
  0 .ro           00017000  0000000034302000  0000000034302000  00001000  2**11
                  CONTENTS, ALLOC, LOAD, READONLY, CODE
  1 .data         00015931  0000000034319000  0000000034319000  00018000  2**4
                  CONTENTS, ALLOC, LOAD, DATA
  2 .stacks       00004000  000000003432e940  000000003432e940  0002d931  2**6
                  ALLOC
  3 .bss          00004800  0000000034332a00  0000000034332a00  0002d931  2**9
                  ALLOC
  4 .xlat_table   0001c000  0000000034338000  0000000034338000  0002d931  2**12
                  ALLOC
  5 .comment      00000033  0000000000000000  0000000000000000  0002d931  2**0
                  CONTENTS, READONLY
  6 .debug_frame  00000b38  0000000000000000  0000000000000000  0002d968  2**3
                  CONTENTS, READONLY, DEBUGGING, OCTETS
SYMBOL TABLE:
0000000034302000 l    d  .ro	0000000000000000 .ro
0000000034319000 l    d  .data	0000000000000000 .data
000000003432e940 l    d  .stacks	0000000000000000 .stacks
0000000034332a00 l    d  .bss	0000000000000000 .bss
0000000034338000 l    d  .xlat_table	0000000000000000 .xlat_table
0000000000000000 l    d  .comment	0000000000000000 .comment
0000000000000000 l    d  .debug_frame	0000000000000000 .debug_frame
0000000000000000 l    df *ABS*	0000000000000000 bl2_el3_entrypoint.o
0000000034302078 l       .ro	0000000000000000 do_primary_cold_boot
0000000000000000 l    df *ABS*	0000000000000000 s32_lowlevel_bl2.o
0000000000000000 l    df *ABS*	0000000000000000 bl2_run_next_image.o
0000000000000000 l    df *ABS*	0000000000000000 debug.o
0000000034317d2b l       .ro	0000000000000000 panic_msg
0000000034302180 l       .ro	0000000000000000 panic_common
00000000343021a8 l       .ro	0000000000000000 _panic_handler
0000000000000000 l    df *ABS*	0000000000000000 linflex_console.o
00000000343021b0 l     F .ro	0000000000000020 get_ldiv_mult
00000000343021d0 l     F .ro	0000000000000034 linflex_set_brg
0000000034302214 l       .ro	0000000000000000 wait_init_entry
00000000343022b0 l       .ro	0000000000000000 exit_flush
00000000343022a0 l       .ro	0000000000000000 tfc_loop
0000000034302324 l       .ro	0000000000000000 putc_error
00000000343022d8 l       .ro	0000000000000000 print_char
0000000034302300 l       .ro	0000000000000000 buffer_mode
00000000343022e8 l       .ro	0000000000000000 fifo_mode
000000003430231c l       .ro	0000000000000000 no_error
0000000034302304 l       .ro	0000000000000000 buffer_loop
0000000034302338 l       .ro	0000000000000000 puct_error
0000000000000000 l    df *ABS*	0000000000000000 cache_helpers.o
0000000034302380 l       .ro	0000000000000000 exit_loop_civac
000000003430236c l       .ro	0000000000000000 loop_civac
00000000343023b8 l       .ro	0000000000000000 exit_loop_cvac
00000000343023a4 l       .ro	0000000000000000 loop_cvac
00000000343023f0 l       .ro	0000000000000000 exit_loop_ivac
00000000343023dc l       .ro	0000000000000000 loop_ivac
0000000000000000 l    df *ABS*	0000000000000000 misc_helpers.o
00000000343023fc l     F .ro	00000000000000e8 zeromem_dczva
00000000343024e8 l       .ro	0000000000000000 do_disable_mmu_el3
0000000000000000 l    df *ABS*	0000000000000000 cortex_a53.o
0000000034302508 l     F .ro	0000000000000008 check_erratum_cortex_a53_819472
0000000034317970 l       .ro	0000000000000000 cortex_a53_errata_list_start
0000000034302510 l     F .ro	0000000000000008 check_erratum_cortex_a53_824069
0000000034302518 l     F .ro	0000000000000008 check_erratum_cortex_a53_826319
0000000034302520 l     F .ro	0000000000000008 check_erratum_cortex_a53_827319
0000000034302528 l     F .ro	0000000000000024 check_erratum_cortex_a53_835769
0000000034302544 l       .ro	0000000000000000 errata_not_applies
0000000034302548 l       .ro	0000000000000000 exit_check_errata_835769
000000003430254c l     F .ro	0000000000000020 erratum_cortex_a53_836870_wa
000000003430256c l     F .ro	0000000000000008 check_erratum_cortex_a53_836870
0000000034302568 l       .ro	0000000000000000 erratum_cortex_a53_836870_skip
0000000034302574 l     F .ro	0000000000000024 check_erratum_cortex_a53_843419
0000000034302594 l       .ro	0000000000000000 exit_check_errata_843419
0000000034302598 l     F .ro	0000000000000020 erratum_cortex_a53_855873_wa
00000000343025b8 l     F .ro	0000000000000008 check_erratum_cortex_a53_855873
00000000343025b4 l       .ro	0000000000000000 erratum_cortex_a53_855873_skip
00000000343025c0 l     F .ro	0000000000000008 check_erratum_cortex_a53_1530924
00000000343025c8 l     F .ro	0000000000000008 check_erratum_cortex_a53_50481
00000000343025d0 l     F .ro	0000000000000008 check_erratum_cortex_a53_50543
00000000343025d8 l     F .ro	0000000000000058 cortex_a53_reset_func
0000000034317a78 l       .ro	0000000000000000 cortex_a53_errata_list_end
00000000343025f4 l       .ro	0000000000000000 errata_begin
000000003430261c l       .ro	0000000000000000 errata_end
0000000000000000 l    df *ABS*	0000000000000000 cpu_helpers.o
000000003430268c l       .ro	0000000000000000 search_def_ptr
0000000000000000 l    df *ABS*	0000000000000000 enable_mmu.o
0000000000000000 l    df *ABS*	0000000000000000 platform_helpers.o
0000000000000000 l    df *ABS*	0000000000000000 platform_up_stack.o
000000003432e940 l       .stacks	0000000000000000 platform_normal_stacks
0000000000000006 l       *ABS*	0000000000000000 TZ_COUNT
0000000000000000 l    df *ABS*	0000000000000000 s32_linflexuart_crash.o
0000000000000000 l    df *ABS*	0000000000000000 s32_lowlevel_common.o
0000000000000000 l    df *ABS*	0000000000000000 s32_sramc_asm.o
0000000000000000 l    df *ABS*	0000000000000000 bl2_arch_setup.c
0000000000000000 l    df *ABS*	0000000000000000 bl2_image_load_v2.c
0000000000000000 l    df *ABS*	0000000000000000 bl2_main.c
0000000000000000 l    df *ABS*	0000000000000000 bl_common.c
0000000000000000 l    df *ABS*	0000000000000000 desc_image_load.c
0000000034332c08 l     O .bss	0000000000000010 bl_load_info
0000000034332c18 l     O .bss	0000000000000010 next_bl_params
0000000000000000 l    df *ABS*	0000000000000000 fdt_fixup.c
0000000000000000 l    df *ABS*	0000000000000000 fdt_wrappers.c
0000000000000000 l    df *ABS*	0000000000000000 tf_crc32.c
0000000000000000 l    df *ABS*	0000000000000000 tf_log.c
000000003432e928 l     O .data	0000000000000004 max_log_level
0000000000000000 l    df *ABS*	0000000000000000 multi_console.c
000000003432e930 l     O .data	0000000000000001 console_state
0000000000000000 l    df *ABS*	0000000000000000 delay_timer.c
0000000034332c30 l     O .bss	0000000000000008 timer_ops
0000000000000000 l    df *ABS*	0000000000000000 generic_delay_timer.c
0000000034303490 l     F .ro	000000000000000c get_timer_value
0000000034332c38 l     O .bss	0000000000000010 ops
0000000000000000 l    df *ABS*	0000000000000000 io_block.c
0000000034303550 l     F .ro	0000000000000020 block_open
0000000034303570 l     F .ro	0000000000000038 block_seek
00000000343035b0 l     F .ro	0000000000000010 block_close
00000000343035c0 l     F .ro	000000000000007c block_dev_open
0000000034303640 l     F .ro	000000000000006c block_dev_close
00000000343036b0 l     F .ro	0000000000000184 block_write
0000000034303840 l     F .ro	000000000000014c block_read
0000000034336f30 l     O .bss	0000000000000004 block_dev_count
0000000034332c48 l     O .bss	0000000000000010 dev_info_pool
0000000034332c58 l     O .bss	0000000000000020 state_pool
0000000034313a70 l     O .ro	0000000000000008 block_dev_connector
0000000034313a78 l     O .ro	0000000000000048 block_dev_funcs
0000000000000000 l    df *ABS*	0000000000000000 io_fip.c
00000000343039d0 l     F .ro	0000000000000008 device_type_fip
00000000343039e0 l     F .ro	000000000000007c fip_dev_open
0000000034303a60 l     F .ro	0000000000000018 fip_file_len
0000000034303a80 l     F .ro	0000000000000054 fip_file_close
0000000034303ae0 l     F .ro	00000000000000b4 fip_dev_init
0000000034303ba0 l     F .ro	00000000000000c0 fip_file_read
0000000034303c60 l     F .ro	0000000000000104 fip_file_open
0000000034303d70 l     F .ro	000000000000005c fip_dev_close
0000000034332c78 l     O .bss	0000000000000008 backend_dev_handle
0000000034332c80 l     O .bss	0000000000000008 backend_image_spec
0000000034332c88 l     O .bss	0000000000000030 current_fip_file
0000000034332cb8 l     O .bss	0000000000000010 dev_info_pool
0000000034336f34 l     O .bss	0000000000000004 fip_dev_count
0000000034332cc8 l     O .bss	0000000000000010 state_pool
0000000034313ac0 l     O .ro	0000000000000008 fip_dev_connector
0000000034313ac8 l     O .ro	0000000000000048 fip_dev_funcs
0000000034313b10 l     O .ro	0000000000000010 uuid_null.0
0000000000000000 l    df *ABS*	0000000000000000 io_memmap.c
0000000034303e10 l     F .ro	0000000000000008 device_type_memmap
0000000034303e20 l     F .ro	0000000000000014 memmap_dev_open
0000000034303e40 l     F .ro	0000000000000008 memmap_dev_close
0000000034303e50 l     F .ro	0000000000000034 memmap_block_open
0000000034303e90 l     F .ro	0000000000000020 memmap_block_seek
0000000034303eb0 l     F .ro	0000000000000018 memmap_block_len
0000000034303ed0 l     F .ro	000000000000002c memmap_block_close
0000000034303f00 l     F .ro	0000000000000048 memmap_block_write
0000000034303f50 l     F .ro	000000000000004c memmap_block_read
0000000034332cd8 l     O .bss	0000000000000020 current_memmap_file
0000000034319400 l     O .data	0000000000000010 memmap_dev_info
0000000034313b28 l     O .ro	0000000000000048 memmap_dev_funcs
0000000034313b20 l     O .ro	0000000000000008 memmap_dev_connector
0000000000000000 l    df *ABS*	0000000000000000 io_storage.c
0000000034336f38 l     O .bss	0000000000000004 dev_count
0000000034336f3c l     O .bss	0000000000000004 entity_count
0000000034332cf8 l     O .bss	0000000000000020 entity_map
0000000034332d18 l     O .bss	0000000000000040 entity_pool
0000000000000000 l    df *ABS*	0000000000000000 mmc.c
0000000034304290 l     F .ro	0000000000000074 mmc_send_cmd
0000000034304310 l     F .ro	0000000000000094 mmc_device_state
00000000343043b0 l     F .ro	000000000000009c sd_switch.constprop.0
0000000034304450 l     F .ro	0000000000000248 mmc_set_ios
0000000034332d58 l     O .bss	0000000000000010 mmc_csd
0000000034332d68 l     O .bss	0000000000000008 mmc_dev_info
0000000034332a00 l     O .bss	0000000000000200 mmc_ext_csd
0000000034336f40 l     O .bss	0000000000000004 mmc_flags
0000000034336f44 l     O .bss	0000000000000004 mmc_ocr_value
0000000034332d70 l     O .bss	0000000000000008 ops
0000000034336f48 l     O .bss	0000000000000004 rca
0000000034332c00 l     O .bss	0000000000000008 scr
0000000034332d78 l     O .bss	0000000000000040 sd_switch_func_status
0000000034313c08 l     O .ro	0000000000000010 sd_tran_speed_base
0000000034313c18 l     O .ro	0000000000000010 tran_speed_base
0000000000000000 l    df *ABS*	0000000000000000 clk.c
0000000034332db8 l     O .bss	0000000000000008 driver.0
0000000034332dc0 l     O .bss	00000000000003c0 drivers
0000000034319410 l     O .data	0000000000000020 drv_pool
0000000000000000 l    df *ABS*	0000000000000000 early_clocks.c
0000000034304ec0 l     F .ro	00000000000000a8 s32_set_ddr_clock_state.constprop.0
0000000034333180 l     O .bss	0000000000000028 early_freqs
0000000034319430 l     O .data	0000000000000018 a53_clk
0000000034319508 l     O .data	0000000000000028 fake_clk_dev
0000000034319448 l     O .data	0000000000000018 arm_dfs1
0000000034319460 l     O .data	0000000000000018 arm_pll_mux
0000000034319478 l     O .data	0000000000000018 arm_pll_phi0
0000000034319490 l     O .data	0000000000000018 arm_pll_vco
00000000343194a8 l     O .data	0000000000000018 ddr
00000000343194c0 l     O .data	0000000000000018 ddr_pll_mux
00000000343194d8 l     O .data	0000000000000018 ddr_pll_phi0
00000000343194f0 l     O .data	0000000000000018 ddr_pll_vco
0000000034319698 l     O .data	0000000000000078 s32_priv
0000000034319530 l     O .data	0000000000000018 firc
0000000034319548 l     O .data	0000000000000018 fxosc
0000000034319560 l     O .data	0000000000000018 lin_baud
0000000034319578 l     O .data	0000000000000018 mc_cgm0_mux0
0000000034319590 l     O .data	0000000000000018 mc_cgm0_mux12
00000000343195a8 l     O .data	0000000000000018 mc_cgm0_mux14
00000000343195c0 l     O .data	0000000000000018 mc_cgm0_mux8
00000000343195d8 l     O .data	0000000000000018 mc_cgm1_mux0
00000000343195f0 l     O .data	0000000000000018 mc_cgm5_mux0
0000000034319608 l     O .data	0000000000000018 periph_dfs1
0000000034319620 l     O .data	0000000000000018 periph_dfs3
0000000034319638 l     O .data	0000000000000018 periph_pll_mux
0000000034319650 l     O .data	0000000000000018 periph_pll_phi3
0000000034319668 l     O .data	0000000000000018 periph_pll_vco
0000000034319680 l     O .data	0000000000000018 qspi
0000000034319710 l     O .data	0000000000000018 sdhc
0000000034319728 l     O .data	0000000000000018 xbar_2x
0000000000000000 l    df *ABS*	0000000000000000 enable_clk.c
00000000343053d0 l     F .ro	0000000000000018 get_clk_parent
00000000343053f0 l     F .ro	0000000000000008 get_part_link_parent
0000000034305400 l     F .ro	0000000000000008 get_part_block_parent
0000000034305410 l     F .ro	0000000000000008 get_part_block_link_parent
0000000034305420 l     F .ro	0000000000000008 no_parent
0000000034305430 l     F .ro	0000000000000008 get_fixed_div_parent
0000000034305440 l     F .ro	0000000000000008 get_pll_div_parent
0000000034305450 l     F .ro	0000000000000008 no_enable
0000000034305460 l     F .ro	0000000000000034 get_cgm_div_parent
00000000343054a0 l     F .ro	0000000000000034 get_dfs_div_parent
00000000343054e0 l     F .ro	0000000000000034 get_dfs_parent
0000000034305520 l     F .ro	0000000000000034 get_pll_parent
0000000034305560 l     F .ro	0000000000000100 cgm_mux_clk_config
0000000034305660 l     F .ro	0000000000000024 enable_part
0000000034305690 l     F .ro	000000000000005c enable_dfs
00000000343056f0 l     F .ro	00000000000000a8 exec_cb_with_refcount.part.0
00000000343057a0 l     F .ro	0000000000000048 get_mux_parent
00000000343057f0 l     F .ro	0000000000000108 enable_part_block
0000000034305900 l     F .ro	000000000000009c enable_osc
00000000343059a0 l     F .ro	0000000000000438 enable_cgm_div
0000000034305de0 l     F .ro	0000000000000804 enable_dfs_div
0000000034306830 l     F .ro	000000000000041c enable_pll_div
0000000034306c50 l     F .ro	00000000000000d0 enable_mux
0000000034307130 l     F .ro	0000000000000724 enable_pll
0000000034307910 l     F .ro	0000000000000198 enable_module
0000000034307ab0 l     F .ro	00000000000000a4 enable_part_block_link
0000000034307b60 l     F .ro	00000000000000a4 enable_part_link
0000000034314608 l     O .ro	0000000000000070 CSWTCH.145
0000000034314678 l     O .ro	0000000000000080 enable_clbs
00000000343146f8 l     O .ro	0000000000000080 parents_clbs
0000000000000000 l    df *ABS*	0000000000000000 get_rate.c
0000000034307d60 l     F .ro	0000000000000270 compute_dfs_div_freq
0000000034314968 l     O .ro	000000000000000d __func__.0
0000000000000000 l    df *ABS*	0000000000000000 plat_clk.c
00000000343331a8 l     O .bss	000000000000000f mappings.1
0000000000000000 l    df *ABS*	0000000000000000 s32g3_clk.c
0000000034319740 l     O .data	0000000000000024 cgm6_mux0
0000000034319768 l     O .data	0000000000000030 cgm6_mux0_clk
0000000034319798 l     O .data	000000000000002c cgm6_mux1
00000000343197c8 l     O .data	0000000000000030 cgm6_mux1_clk
00000000343197f8 l     O .data	0000000000000028 cgm6_mux2
0000000034319820 l     O .data	0000000000000030 cgm6_mux2_clk
0000000034319850 l     O .data	0000000000000020 cgm6_mux3
0000000034319870 l     O .data	0000000000000030 cgm6_mux3_clk
00000000343198a0 l     O .data	0000000000000010 gmac0_ext_rx
00000000343198b0 l     O .data	0000000000000030 gmac0_ext_rx_clk
00000000343198e0 l     O .data	0000000000000010 gmac0_ext_tx
00000000343198f0 l     O .data	0000000000000030 gmac0_ext_tx_clk
0000000034319920 l     O .data	0000000000000030 gmac0_ref_clk
0000000034319950 l     O .data	0000000000000020 gmac0_ref_div
0000000034319970 l     O .data	0000000000000010 gmac0_rmii_ref
0000000034319980 l     O .data	0000000000000030 gmac0_rmii_ref_clk
00000000343199b0 l     O .data	0000000000000010 gmac_ext_ts
00000000343199c0 l     O .data	0000000000000030 gmac_ext_ts_clk
00000000343199f0 l     O .data	0000000000000030 gmac_rx_clk
0000000034319a50 l     O .data	0000000000000020 gmac_ts_div
0000000034319a70 l     O .data	0000000000000030 gmac_tx_clk
0000000034319aa0 l     O .data	0000000000000020 gmac_tx_div
00000000343149d0 l     O .ro	00000000000003b8 s32g3_cc_clocks
0000000034314d88 l     O .ro	00000000000000c0 s32g3_clocks
0000000000000000 l    df *ABS*	0000000000000000 s32g_clk.c
0000000034319ac0 l     O .data	0000000000000030 can_pe_clk
0000000034319af0 l     O .data	0000000000000020 cgm2_mux0
0000000034319b10 l     O .data	0000000000000030 cgm2_mux0_clk
0000000034319b40 l     O .data	0000000000000020 cgm2_mux0_div
0000000034319b60 l     O .data	000000000000002c cgm2_mux1
0000000034319b90 l     O .data	0000000000000030 cgm2_mux1_clk
0000000034319bc0 l     O .data	0000000000000020 cgm2_mux1_div
0000000034319be0 l     O .data	000000000000002c cgm2_mux2
0000000034319c10 l     O .data	0000000000000030 cgm2_mux2_clk
0000000034319c40 l     O .data	0000000000000020 cgm2_mux2_div
0000000034319c60 l     O .data	000000000000002c cgm2_mux3
0000000034319c90 l     O .data	0000000000000030 cgm2_mux3_clk
0000000034319cc0 l     O .data	0000000000000020 cgm2_mux3_div
0000000034319ce0 l     O .data	0000000000000028 cgm2_mux4
0000000034319d08 l     O .data	0000000000000030 cgm2_mux4_clk
0000000034319d38 l     O .data	0000000000000028 cgm2_mux5
0000000034319d60 l     O .data	0000000000000030 cgm2_mux5_clk
0000000034319d90 l     O .data	0000000000000028 cgm2_mux6
0000000034319db8 l     O .data	0000000000000030 cgm2_mux6_clk
0000000034319de8 l     O .data	0000000000000020 cgm2_mux7
0000000034319e08 l     O .data	0000000000000030 cgm2_mux7_clk
0000000034319e38 l     O .data	0000000000000020 cgm2_mux7_div
0000000034319e58 l     O .data	0000000000000020 cgm2_mux8
0000000034319e78 l     O .data	0000000000000030 cgm2_mux8_clk
0000000034319ea8 l     O .data	0000000000000020 cgm2_mux8_div
0000000034319ec8 l     O .data	0000000000000020 cgm2_mux9
0000000034319ee8 l     O .data	0000000000000030 cgm2_mux9_clk
0000000034319f18 l     O .data	0000000000000020 cgm2_mux9_div
0000000034319f38 l     O .data	0000000000000018 llce_part_link
0000000034319ff0 l     O .data	000000000000000c part3
0000000034319f50 l     O .data	0000000000000030 llce_sys_clk
0000000034319f80 l     O .data	000000000000000c part2
0000000034319f90 l     O .data	0000000000000018 part2_block0
0000000034319fa8 l     O .data	0000000000000018 part2_block1
0000000034319fc0 l     O .data	0000000000000018 part2_block2
0000000034319fd8 l     O .data	0000000000000018 part2_block3
000000003431a000 l     O .data	0000000000000030 per_clk
000000003431a030 l     O .data	0000000000000018 pfe0_ref_block_link
000000003431a048 l     O .data	0000000000000018 pfe0_rx_block_link
000000003431a060 l     O .data	0000000000000018 pfe0_tx_block_link
000000003431a078 l     O .data	0000000000000018 pfe1_ref_block_link
000000003431a090 l     O .data	0000000000000018 pfe1_rx_block_link
000000003431a0a8 l     O .data	0000000000000018 pfe1_tx_block_link
000000003431a0c0 l     O .data	0000000000000018 pfe2_ref_block_link
000000003431a0d8 l     O .data	0000000000000018 pfe2_rx_block_link
000000003431a0f0 l     O .data	0000000000000018 pfe2_tx_block_link
000000003431a108 l     O .data	0000000000000010 pfe_mac0_ext_rx
000000003431a118 l     O .data	0000000000000030 pfe_mac0_ext_rx_clk
000000003431a148 l     O .data	0000000000000010 pfe_mac0_ext_tx
000000003431a158 l     O .data	0000000000000030 pfe_mac0_ext_tx_clk
000000003431a188 l     O .data	0000000000000030 pfe_mac0_ref_div_clk
000000003431a1b8 l     O .data	0000000000000010 pfe_mac0_rmii_ref
000000003431a1c8 l     O .data	0000000000000030 pfe_mac0_rmii_ref_clk
000000003431a1f8 l     O .data	0000000000000030 pfe_mac0_rx_clk
000000003431a228 l     O .data	0000000000000030 pfe_mac0_tx_div_clk
000000003431a258 l     O .data	0000000000000010 pfe_mac1_ext_rx
000000003431a268 l     O .data	0000000000000030 pfe_mac1_ext_rx_clk
000000003431a298 l     O .data	0000000000000010 pfe_mac1_ext_tx
000000003431a2a8 l     O .data	0000000000000030 pfe_mac1_ext_tx_clk
000000003431a2d8 l     O .data	0000000000000030 pfe_mac1_ref_div_clk
000000003431a308 l     O .data	0000000000000010 pfe_mac1_rmii_ref
000000003431a318 l     O .data	0000000000000030 pfe_mac1_rmii_ref_clk
000000003431a348 l     O .data	0000000000000030 pfe_mac1_rx_clk
000000003431a378 l     O .data	0000000000000030 pfe_mac1_tx_clk
000000003431a3a8 l     O .data	0000000000000010 pfe_mac2_ext_rx
000000003431a3b8 l     O .data	0000000000000030 pfe_mac2_ext_rx_clk
000000003431a3e8 l     O .data	0000000000000010 pfe_mac2_ext_tx
000000003431a3f8 l     O .data	0000000000000030 pfe_mac2_ext_tx_clk
000000003431a428 l     O .data	0000000000000030 pfe_mac2_ref_div_clk
000000003431a458 l     O .data	0000000000000010 pfe_mac2_rmii_ref
000000003431a468 l     O .data	0000000000000030 pfe_mac2_rmii_ref_clk
000000003431a498 l     O .data	0000000000000030 pfe_mac2_rx_clk
000000003431a4c8 l     O .data	0000000000000030 pfe_mac2_tx_clk
000000003431a4f8 l     O .data	0000000000000030 pfe_pe_clk
000000003431a528 l     O .data	0000000000000018 pfe_pe_part_link
000000003431a540 l     O .data	0000000000000030 pfe_sys_clk
000000003431a570 l     O .data	0000000000000028 pfe_sys_div
000000003431a598 l     O .data	0000000000000018 pfe_ts_block_link
000000003431a5b0 l     O .data	0000000000000030 pfe_ts_clk
000000003431a5e0 l     O .data	0000000000000010 serdes0_lane1_cdr
000000003431a5f0 l     O .data	0000000000000030 serdes0_lane1_cdr_clk
000000003431a620 l     O .data	0000000000000010 serdes0_lane1_tx
000000003431a630 l     O .data	0000000000000030 serdes0_lane1_tx_clk
000000003431a660 l     O .data	0000000000000010 serdes1_lane1_cdr
000000003431a6a0 l     O .data	0000000000000010 serdes1_lane1_tx
0000000034314f38 l     O .ro	00000000000002d0 s32g_cc_clocks
0000000034315208 l     O .ro	00000000000000a0 s32g_clocks
0000000000000000 l    df *ABS*	0000000000000000 s32gen1_clk.c
000000003431a710 l     O .data	0000000000000030 a53_core_clk
000000003431af38 l     O .data	0000000000000030 cgm1_mux0_clk
000000003431a740 l     O .data	0000000000000028 a53_core_div10
000000003431a768 l     O .data	0000000000000030 a53_core_div10_clk
000000003431a798 l     O .data	0000000000000028 a53_core_div2
000000003431a7c0 l     O .data	0000000000000030 a53_core_div2_clk
000000003431a7f0 l     O .data	0000000000000020 accel_pll_mux
000000003431a810 l     O .data	0000000000000030 accel_pll_mux_clk
000000003431a870 l     O .data	0000000000000028 accel_pll_phi0_div
000000003431a920 l     O .data	0000000000000030 accelpll
000000003431a8c8 l     O .data	0000000000000028 accel_pll_phi1_div
000000003431a8f0 l     O .data	0000000000000030 accel_pll_vco_clk
000000003431a950 l     O .data	0000000000000030 arm_dfs1_clk
000000003431a980 l     O .data	0000000000000020 arm_dfs1_div
000000003431a9a0 l     O .data	0000000000000030 arm_dfs2_clk
000000003431a9d0 l     O .data	0000000000000020 arm_dfs2_div
000000003431a9f0 l     O .data	0000000000000020 arm_pll_mux
000000003431aa10 l     O .data	0000000000000030 arm_pll_mux_clk
000000003431aa40 l     O .data	0000000000000030 arm_pll_phi0_clk
000000003431aa70 l     O .data	0000000000000028 arm_pll_phi0_div
000000003431aae8 l     O .data	0000000000000030 armpll
000000003431af10 l     O .data	0000000000000024 cgm1_mux0
000000003431aa98 l     O .data	0000000000000030 arm_pll_vco_clk
000000003431ab18 l     O .data	0000000000000020 cgm0_mux0
000000003431ab68 l     O .data	0000000000000028 cgm0_mux1
000000003431ab90 l     O .data	0000000000000020 cgm0_mux12
000000003431abb0 l     O .data	0000000000000030 cgm0_mux12_clk
000000003431abe0 l     O .data	0000000000000020 cgm0_mux14
000000003431ac00 l     O .data	0000000000000030 cgm0_mux14_clk
000000003431ac30 l     O .data	0000000000000020 cgm0_mux16
000000003431ac50 l     O .data	0000000000000030 cgm0_mux16_clk
000000003431ac80 l     O .data	0000000000000030 cgm0_mux1_clk
000000003431acb0 l     O .data	0000000000000028 cgm0_mux2
000000003431acd8 l     O .data	0000000000000030 cgm0_mux2_clk
000000003431ad08 l     O .data	0000000000000020 cgm0_mux3
000000003431ad28 l     O .data	0000000000000030 cgm0_mux3_clk
000000003431ad58 l     O .data	0000000000000024 cgm0_mux4
000000003431ad80 l     O .data	0000000000000030 cgm0_mux4_clk
000000003431adb0 l     O .data	0000000000000024 cgm0_mux5
000000003431add8 l     O .data	0000000000000030 cgm0_mux5_clk
000000003431ae08 l     O .data	0000000000000024 cgm0_mux6
000000003431ae30 l     O .data	0000000000000030 cgm0_mux6_clk
000000003431ae60 l     O .data	0000000000000024 cgm0_mux7
000000003431aeb8 l     O .data	0000000000000024 cgm0_mux8
000000003431aee0 l     O .data	0000000000000030 cgm0_mux8_clk
000000003431af68 l     O .data	0000000000000020 cgm5_mux0
000000003431af88 l     O .data	0000000000000030 cgm5_mux0_clk
000000003431afb8 l     O .data	0000000000000030 clkout0_clk
000000003431afe8 l     O .data	0000000000000020 clkout0_div
000000003431b008 l     O .data	0000000000000030 clkout1_clk
000000003431b038 l     O .data	0000000000000020 clkout1_div
000000003431b058 l     O .data	0000000000000018 ddr_block_link
000000003431b468 l     O .data	0000000000000018 part0_block1
000000003431b070 l     O .data	0000000000000030 ddr_clk
000000003431b0a0 l     O .data	0000000000000020 ddr_pll_mux
000000003431b0c0 l     O .data	0000000000000030 ddr_pll_mux_clk
000000003431b0f0 l     O .data	0000000000000030 ddr_pll_phi0_clk
000000003431b120 l     O .data	0000000000000028 ddr_pll_phi0_div
000000003431b178 l     O .data	0000000000000030 ddrpll
000000003431b148 l     O .data	0000000000000030 ddr_pll_vco_clk
000000003431b1a8 l     O .data	0000000000000020 firc
000000003431b1c8 l     O .data	0000000000000030 firc_clk
000000003431b1f8 l     O .data	0000000000000030 flexray_pe_clk
000000003431b228 l     O .data	0000000000000020 flexray_pe_div
000000003431b248 l     O .data	0000000000000020 ftm0_div
000000003431b268 l     O .data	0000000000000010 ftm0_ext
000000003431b278 l     O .data	0000000000000030 ftm0_ext_clk
000000003431b2a8 l     O .data	0000000000000030 ftm0_ref_clk
000000003431b2d8 l     O .data	0000000000000020 ftm1_div
000000003431b2f8 l     O .data	0000000000000010 ftm1_ext
000000003431b308 l     O .data	0000000000000030 ftm1_ext_clk
000000003431b338 l     O .data	0000000000000030 ftm1_ref_clk
000000003431b368 l     O .data	0000000000000020 fxosc
000000003431b388 l     O .data	0000000000000030 fxosc_clk
000000003431b3b8 l     O .data	0000000000000030 lin_baud_clk
000000003431b3e8 l     O .data	0000000000000030 linflexd_clk
000000003431b418 l     O .data	0000000000000028 linflexd_div
000000003431b450 l     O .data	0000000000000018 part0_block0
000000003431b4a0 l     O .data	0000000000000030 periph_dfs1_clk
000000003431b4d0 l     O .data	0000000000000020 periph_dfs1_div
000000003431b8c8 l     O .data	0000000000000020 periphdfs
000000003431b4f0 l     O .data	0000000000000030 periph_dfs2_clk
000000003431b520 l     O .data	0000000000000020 periph_dfs2_div
000000003431b540 l     O .data	0000000000000030 periph_dfs3_clk
000000003431b570 l     O .data	0000000000000020 periph_dfs3_div
000000003431b590 l     O .data	0000000000000030 periph_dfs5_clk
000000003431b5c0 l     O .data	0000000000000020 periph_dfs5_div
000000003431b5e0 l     O .data	0000000000000020 periph_pll_mux
000000003431b600 l     O .data	0000000000000030 periph_pll_mux_clk
000000003431b630 l     O .data	0000000000000030 periph_pll_phi0_clk
000000003431b660 l     O .data	0000000000000028 periph_pll_phi0_div
000000003431b8e8 l     O .data	0000000000000030 periphpll
000000003431b688 l     O .data	0000000000000030 periph_pll_phi1_clk
000000003431b6b8 l     O .data	0000000000000028 periph_pll_phi1_div
000000003431b6e0 l     O .data	0000000000000030 periph_pll_phi2_clk
000000003431b710 l     O .data	0000000000000028 periph_pll_phi2_div
000000003431b738 l     O .data	0000000000000030 periph_pll_phi3_clk
000000003431b768 l     O .data	0000000000000028 periph_pll_phi3_div
000000003431b790 l     O .data	0000000000000030 periph_pll_phi4_clk
000000003431b7c0 l     O .data	0000000000000028 periph_pll_phi4_div
000000003431b7e8 l     O .data	0000000000000030 periph_pll_phi5_clk
000000003431b818 l     O .data	0000000000000028 periph_pll_phi5_div
000000003431b840 l     O .data	0000000000000030 periph_pll_phi7_clk
000000003431b870 l     O .data	0000000000000028 periph_pll_phi7_div
000000003431b898 l     O .data	0000000000000030 periph_pll_vco_clk
000000003431b918 l     O .data	0000000000000030 qspi_2x_clk
000000003431b978 l     O .data	0000000000000020 qspi_div
000000003431b948 l     O .data	0000000000000030 qspi_clk
000000003431b998 l     O .data	0000000000000028 qspi_div2
000000003431b9c0 l     O .data	0000000000000010 s32gen1_freq_div_mappings
000000003431b9d0 l     O .data	0000000000000018 sdhc_block_link
000000003431ba18 l     O .data	0000000000000020 sdhc_div
000000003431b9e8 l     O .data	0000000000000030 sdhc_clk
000000003431ba38 l     O .data	0000000000000010 serdes0_lane0_cdr
000000003431ba48 l     O .data	0000000000000030 serdes0_lane0_cdr_clk
000000003431ba78 l     O .data	0000000000000010 serdes0_lane0_tx
000000003431ba88 l     O .data	0000000000000030 serdes0_lane0_tx_clk
000000003431bab8 l     O .data	0000000000000010 serdes1_lane0_cdr
000000003431baf8 l     O .data	0000000000000010 serdes1_lane0_tx
000000003431bb38 l     O .data	0000000000000030 serdes_ref_clk
000000003431bb68 l     O .data	0000000000000020 sirc
000000003431bb88 l     O .data	0000000000000030 sirc_clk
000000003431bbb8 l     O .data	0000000000000030 spi_clk
000000003431bc40 l     O .data	0000000000000028 xbar_div2
000000003431bc18 l     O .data	0000000000000028 xbar_div12
000000003431bcc8 l     O .data	0000000000000028 xbar_div4
000000003431bd20 l     O .data	0000000000000028 xbar_div6
000000003431bcf0 l     O .data	0000000000000030 xbar_div4_clk
000000003431bd78 l     O .data	0000000000000028 xbar_div8
000000003431bd48 l     O .data	0000000000000030 xbar_div6_clk
00000000343152a8 l     O .ro	0000000000000398 plat_clocks
0000000000000000 l    df *ABS*	0000000000000000 set_par_rate.c
0000000034309040 l     F .ro	00000000000005a0 set_module_rate
0000000034315968 l     O .ro	000000000000000d __func__.0
0000000000000000 l    df *ABS*	0000000000000000 ddr_density.c
0000000034336f4c l     O .bss	0000000000000004 active_pages.0
0000000034336f58 l     O .bss	0000000000000001 init_pages.2
00000000343331b8 l     O .bss	0000000000000078 pages.1
0000000034315978 l     O .ro	0000000000000020 addr_map_internal_base_map
0000000034315998 l     O .ro	0000000000000020 addr_map_masks_map
00000000343159b8 l     O .ro	0000000000000020 addr_map_shift_map
0000000000000000 l    df *ABS*	0000000000000000 ddr_init.c
0000000000000000 l    df *ABS*	0000000000000000 ddr_lp.c
0000000000000000 l    df *ABS*	0000000000000000 ddr_utils.c
0000000034333230 l     O .bss	0000000000000008 tr_res
0000000000000000 l    df *ABS*	0000000000000000 ddrss_cfg.c
0000000000000000 l    df *ABS*	0000000000000000 s32_i2c.c
000000003430aec0 l     F .ro	0000000000000080 s32_i2c_stop.isra.0
000000003430af40 l     F .ro	0000000000000094 s32_i2c_write_byte
000000003430afe0 l     F .ro	0000000000000180 s32_i2c_start.part.0
0000000034316028 l     O .ro	000000000000000d __func__.0
0000000034316038 l     O .ro	000000000000000e __func__.1
0000000034316048 l     O .ro	000000000000000d __func__.2
0000000034316058 l     O .ro	0000000000000080 s32_clk_div
0000000000000000 l    df *ABS*	0000000000000000 memory_pool.c
0000000000000000 l    df *ABS*	0000000000000000 s32_mmc.c
000000003430b690 l     F .ro	000000000000029c s32_mmc_send_cmd
000000003430b930 l     F .ro	0000000000000008 s32_mmc_write
000000003430b940 l     F .ro	0000000000000020 s32_mmc_read
000000003430b960 l     F .ro	0000000000000040 s32_mmc_prepare
000000003430b9a0 l     F .ro	00000000000000ec s32_mmc_set_clk
000000003430ba90 l     F .ro	0000000000000078 s32_mmc_set_ios
000000003430bb10 l     F .ro	00000000000000d4 s32_mmc_init
0000000034333238 l     O .bss	0000000000000010 devdata
000000003432e370 l     O .data	0000000000000020 emmc_device_info
000000003432e390 l     O .data	0000000000000020 sd_device_info
0000000034316128 l     O .ro	0000000000000011 __func__.0
0000000034316140 l     O .ro	0000000000000030 s32_mmc_ops
0000000000000000 l    df *ABS*	0000000000000000 ocotp.c
0000000034333248 l     O .bss	0000000000000020 gocotp
0000000000000000 l    df *ABS*	0000000000000000 vr5510.c
0000000034333268 l     O .bss	0000000000000008 fill_level
0000000034333270 l     O .bss	00000000000000a0 instances
0000000000000000 l    df *ABS*	0000000000000000 s32gen1_rst.c
0000000034333310 l     O .bss	0000000000000008 drv.0
0000000000000000 l    df *ABS*	0000000000000000 s32g_rtc.c
0000000034336f59 l     O .bss	0000000000000001 mmap_added.0
0000000000000000 l    df *ABS*	0000000000000000 gpt.c
0000000000000000 l    df *ABS*	0000000000000000 partition.c
000000003430c6a0 l     F .ro	00000000000000e4 load_gpt_header.part.0
0000000034333318 l     O .bss	0000000000002c08 list
000000003430c790 l     F .ro	00000000000000c4 load_partition_gpt.part.0
0000000034335f20 l     O .bss	0000000000000200 mbr_sector
0000000000000000 l    df *ABS*	0000000000000000 optee_utils.c
000000003430cbd0 l     F .ro	0000000000000074 parse_optee_image.isra.0
0000000000000000 l    df *ABS*	0000000000000000 crc8.c
0000000000000000 l    df *ABS*	0000000000000000 xlat_tables_arch.c
0000000000000000 l    df *ABS*	0000000000000000 xlat_tables_context.c
0000000034337000 l     O .bss	0000000000000200 tf_base_xlat_table
0000000034336138 l     O .bss	0000000000000070 tf_mapped_regions
00000000343361a8 l     O .bss	0000000000000848 tf_mmap
000000003432e3b0 l     O .data	0000000000000070 tf_xlat_ctx
0000000034338000 l     O .xlat_table	000000000001c000 tf_xlat_tables
0000000000000000 l    df *ABS*	0000000000000000 xlat_tables_core.c
000000003430d040 l     F .ro	0000000000000144 mmap_add_region_check
000000003430d190 l     F .ro	0000000000000294 xlat_tables_unmap_region
000000003430d540 l     F .ro	0000000000000308 xlat_tables_map_region
0000000000000000 l    df *ABS*	0000000000000000 xlat_tables_utils.c
0000000000000000 l    df *ABS*	0000000000000000 plat_bl_common.c
0000000000000000 l    df *ABS*	0000000000000000 plat_log_common.c
0000000034316548 l     O .ro	0000000000000028 plat_prefix_str
0000000000000000 l    df *ABS*	0000000000000000 s32_bl2_common.c
0000000000000000 l    df *ABS*	0000000000000000 s32_bl2_el3.c
000000003432e420 l     O .data	0000000000000140 dyn_regions
0000000034316858 l     O .ro	0000000000000050 dyn_ddr_regions
00000000343168a8 l     O .ro	0000000000000048 names.0
00000000343168f0 l     O .ro	0000000000000050 s32_mmap
0000000000000000 l    df *ABS*	0000000000000000 s32_bl_common.c
0000000000000000 l    df *ABS*	0000000000000000 s32_dt.c
0000000034336f50 l     O .bss	0000000000000004 fdt_checked
0000000000000000 l    df *ABS*	0000000000000000 s32_linflexuart.c
000000003432e560 l     O .data	0000000000000028 s32_console.0
0000000000000000 l    df *ABS*	0000000000000000 s32_mc_me.c
0000000000000000 l    df *ABS*	0000000000000000 s32_mc_rgm.c
0000000000000000 l    df *ABS*	0000000000000000 s32_ncore.c
000000003430f030 l     F .ro	00000000000000e4 set_caiu
0000000000000000 l    df *ABS*	0000000000000000 s32_pinctrl.c
000000003432e588 l     O .data	0000000000000030 siul2_mmaps.0
0000000034316a18 l     O .ro	0000000000000010 sdhc_periph
0000000034316a28 l     O .ro	00000000000001f8 sdhc_pinconfs
0000000034316c20 l     O .ro	0000000000000010 usdhc_base_cfgs
0000000034316c30 l     O .ro	0000000000000010 usdhc_pull_up_cfgs
0000000034316c40 l     O .ro	000000000000000c usdhc_rst_cfgs
0000000000000000 l    df *ABS*	0000000000000000 s32_scmi_rst.c
0000000034316d28 l     O .ro	0000000000000228 reset_table
0000000000000000 l    df *ABS*	0000000000000000 s32_sramc.c
0000000034336f5a l     O .bss	0000000000000001 mmap_added.0
0000000000000000 l    df *ABS*	0000000000000000 s32_storage.c
000000003430f8b0 l     F .ro	0000000000000078 check_fip
000000003430f930 l     F .ro	0000000000000078 check_dev
0000000034336a98 l     O .bss	0000000000000008 boot_dev_handle
0000000034336aa0 l     O .bss	0000000000000008 fip_dev_con
0000000034336aa8 l     O .bss	0000000000000008 fip_dev_handle
0000000034336ab0 l     O .bss	0000000000000010 fip_memmap_spec
0000000034336ac0 l     O .bss	0000000000000010 fip_mmc_spec
0000000034336ad0 l     O .bss	0000000000000008 s32_memmap_io_conn
0000000034336ad8 l     O .bss	0000000000000008 s32_mmc_io_conn
000000003432e5b8 l     O .data	0000000000000010 mbr_spec
000000003432e5c8 l     O .data	00000000000002b8 s32_policies
0000000034317018 l     O .ro	0000000000000010 bl31_uuid_spec
0000000034317028 l     O .ro	0000000000000010 bl33_uuid_spec
0000000034317038 l     O .ro	0000000000000028 mmc_dev_spec
0000000000000000 l    df *ABS*	0000000000000000 s32g3_flexnoc.c
0000000034336f5b l     O .bss	0000000000000001 mmap_added.0
00000000343170a0 l     O .ro	0000000000000084 flex_noc_part1_configs
0000000034317128 l     O .ro	00000000000001a4 flex_noc_part2_configs
00000000343172d0 l     O .ro	000000000000000c flex_noc_part3_configs
00000000343172e0 l     O .ro	0000000000000078 noc_dyn_regs
0000000034317358 l     O .ro	0000000000000040 part_configs
0000000000000000 l    df *ABS*	0000000000000000 s32g3_sramc.c
000000003430fee0 l     F .ro	0000000000000034 a53_to_sramc_offset
000000003432e880 l     O .data	0000000000000080 controllers.0
0000000000000000 l    df *ABS*	0000000000000000 s32g3_vr5510.c
0000000000000000 l    df *ABS*	0000000000000000 s32g_bl2_el3.c
0000000034336f54 l     O .bss	0000000000000004 reset_cause
0000000034336ae0 l     O .bss	0000000000000450 s32g_bl2_mem_params_descs
00000000343174b8 l     O .ro	0000000000000010 non_scp_filters
00000000343174c8 l     O .ro	0000000000000028 used_ips_base
0000000000000000 l    df *ABS*	0000000000000000 s32g_bl_common.c
0000000000000000 l    df *ABS*	0000000000000000 s32g_pinctrl.c
00000000343176a8 l     O .ro	0000000000000010 i2c0_periph
00000000343176b8 l     O .ro	0000000000000060 i2c0_pinconfs
00000000343177f8 l     O .ro	0000000000000010 i2c_cfgs
0000000034317718 l     O .ro	0000000000000010 i2c1_periph
0000000034317728 l     O .ro	0000000000000060 i2c1_pinconfs
0000000034317788 l     O .ro	0000000000000010 i2c4_periph
0000000034317798 l     O .ro	0000000000000060 i2c4_pinconfs
0000000034317808 l     O .ro	0000000000000010 uart0_periph
0000000034317818 l     O .ro	0000000000000048 uart0_pinconfs
00000000343178c0 l     O .ro	0000000000000008 uart_txd_cfgs
00000000343178b8 l     O .ro	0000000000000008 uart_rxd_cfgs
0000000034317860 l     O .ro	0000000000000010 uart1_periph
0000000034317870 l     O .ro	0000000000000048 uart1_pinconfs
0000000000000000 l    df *ABS*	0000000000000000 s32g_vr5510.c
0000000034310590 l     F .ro	00000000000000c0 watchdog_refresh
0000000000000000 l    df *ABS*	0000000000000000 fdt.c
0000000000000000 l    df *ABS*	0000000000000000 fdt_addresses.c
0000000000000000 l    df *ABS*	0000000000000000 fdt_ro.c
00000000343110d0 l     F .ro	000000000000007c fdt_get_property_by_offset_
00000000343112e0 l     F .ro	0000000000000194 fdt_get_property_namelen_
0000000000000000 l    df *ABS*	0000000000000000 fdt_rw.c
0000000034311da0 l     F .ro	00000000000000e4 fdt_blocks_misordered_
0000000034311e90 l     F .ro	000000000000009c fdt_rw_probe_
0000000034311f30 l     F .ro	00000000000000e0 fdt_splice_
0000000034312010 l     F .ro	0000000000000090 fdt_splice_struct_
00000000343120a0 l     F .ro	000000000000025c fdt_add_property_
0000000000000000 l    df *ABS*	0000000000000000 fdt_strerror.c
0000000034317c80 l     O .ro	00000000000000a0 fdt_errtable
0000000000000000 l    df *ABS*	0000000000000000 memchr.c
0000000000000000 l    df *ABS*	0000000000000000 memcmp.c
0000000000000000 l    df *ABS*	0000000000000000 memcpy.c
0000000000000000 l    df *ABS*	0000000000000000 memmove.c
0000000000000000 l    df *ABS*	0000000000000000 memset.c
0000000000000000 l    df *ABS*	0000000000000000 printf.c
00000000343129e0 l     F .ro	00000000000000fc unsigned_num_print.part.0
0000000000000000 l    df *ABS*	0000000000000000 snprintf.c
0000000034313050 l     F .ro	0000000000000138 unsigned_num_print
0000000000000000 l    df *ABS*	0000000000000000 strlcpy.c
0000000000000000 l    df *ABS*	0000000000000000 strlen.c
0000000000000000 l    df *ABS*	0000000000000000 strncmp.c
0000000000000000 l    df *ABS*	0000000000000000 strnlen.c
0000000000000000 l    df *ABS*	0000000000000000 strrchr.c
0000000000000000 l    df *ABS*	0000000000000000 <stdin>
0000000000000000 l    df *ABS*	0000000000000000 boot_info.c
0000000000000000 l    df *ABS*	0000000000000000 ddr_lp_csr.c
0000000000000000 l    df *ABS*	0000000000000000 bl2_el3_exceptions.o
0000000034318000 l     F .ro	0000000000000000 SynchronousExceptionSP0
0000000034318080 l     F .ro	0000000000000000 IrqSP0
0000000034318100 l     F .ro	0000000000000000 FiqSP0
0000000034318180 l     F .ro	0000000000000000 SErrorSP0
0000000034318200 l     F .ro	0000000000000000 SynchronousExceptionSPx
0000000034318280 l     F .ro	0000000000000000 IrqSPx
0000000034318300 l     F .ro	0000000000000000 FiqSPx
0000000034318380 l     F .ro	0000000000000000 SErrorSPx
0000000034318400 l     F .ro	0000000000000000 SynchronousExceptionA64
0000000034318480 l     F .ro	0000000000000000 IrqA64
0000000034318500 l     F .ro	0000000000000000 FiqA64
0000000034318580 l     F .ro	0000000000000000 SErrorA64
0000000034318600 l     F .ro	0000000000000000 SynchronousExceptionA32
0000000034318680 l     F .ro	0000000000000000 IrqA32
0000000034318700 l     F .ro	0000000000000000 FiqA32
0000000034318780 l     F .ro	0000000000000000 SErrorA32
0000000000000000 l    df *ABS*	0000000000000000 imem_cfg.c
0000000000000000 l    df *ABS*	0000000000000000 ddrc_cfg.c
0000000000000000 l    df *ABS*	0000000000000000 dmem_cfg.c
0000000000000000 l    df *ABS*	0000000000000000 dq_swap_cfg.c
0000000000000000 l    df *ABS*	0000000000000000 phy_cfg.c
0000000000000000 l    df *ABS*	0000000000000000 pie_cfg.c
0000000034303370 g     F .ro	0000000000000028 putchar
0000000034317d2a g     O .ro	0000000000000001 fip_location_qspi
0000000034303290 g     F .ro	0000000000000018 console_set_scope
0000000034310ff0 g     F .ro	0000000000000070 fdt_address_cells
0000000034303470 g     F .ro	000000000000000c mdelay
0000000034306600 g     F .ro	0000000000000054 s32gen1_cgm_mux_to_safe
0000000034310b00 g     F .ro	00000000000000d4 fdt_offset_ptr
0000000034336f80 g       .bss	0000000000000000 __PMF_TIMESTAMP_START__
000000003430cd80 g     F .ro	0000000000000068 crc8poly
0000000034303250 g     F .ro	000000000000003c console_register
0000000034302630 g     F .ro	0000000000000020 reset_handler
0000000034308b20 g     F .ro	00000000000001c8 mmap_clk_regions
00000000343023f4 g     F .ro	0000000000000008 zeromem
0000000034313938 g     O .ro	000000000000001f version_string
0000000034302178 g     F .ro	0000000000000008 asm_print_newline
000000003430c860 g     F .ro	000000000000035c load_partition_table
000000003430d9d0 g     F .ro	0000000000000044 mmap_add_ctx
0000000034302c50 g     F .ro	0000000000000004 print_entry_point_info
000000003430ec50 g     F .ro	0000000000000188 mc_me_enable_partition
0000000034308de0 g     F .ro	0000000000000034 s32g_get_plat_cc_clock
000000003430da20 g     F .ro	0000000000000290 mmap_add_dynamic_region_ctx
0000000034336120 g     O .bss	0000000000000018 mmu_cfg_params
000000003430de00 g     F .ro	0000000000000004 xlat_tables_print
0000000034319000 g       .ro	0000000000000000 __RW_START__
000000003430b160 g     F .ro	0000000000000230 s32_i2c_read
000000003430dfc0 g     F .ro	0000000000000008 add_bl32_img_to_mem_params_descs
0000000034309d40 g     F .ro	0000000000000024 load_register_cfg
0000000034307fd0 g     F .ro	0000000000000b44 get_module_rate
0000000034338000 g       .xlat_table	0000000000000000 __XLAT_TABLE_START__
0000000034311730 g     F .ro	0000000000000080 fdt_getprop_namelen
00000000343097f0 g     F .ro	00000000000001c0 s32gen1_exclude_ecc
000000003430ffa0 g     F .ro	000000000000027c bl2_el3_early_platform_setup
000000003430cf70 g     F .ro	000000000000003c mmap_add_dynamic_region
00000000343369f0 g     O .bss	00000000000000a0 i2c_drivers
000000003430c010 g     F .ro	0000000000000150 vr5510_register_instance
0000000034306d20 g     F .ro	0000000000000410 get_pll_mfi_mfn
0000000034315f20 g     O .ro	0000000000000018 ddrc_to_store
000000003431bb08 g     O .data	0000000000000030 serdes1_lane0_tx_clk
000000003431b440 g     O .data	000000000000000c part0
00000000343128f0 g     F .ro	0000000000000050 memmove
0000000034311a70 g     F .ro	0000000000000060 fdt_parent_offset
000000003430ce80 g     F .ro	00000000000000a0 setup_mmu_cfg
000000003430a650 g     F .ro	00000000000000b0 wait_firmware_execution
0000000034313790 g     F .ro	000000000000004c snprintf
000000003430ede0 g     F .ro	0000000000000180 mc_me_disable_partition
0000000034311690 g     F .ro	0000000000000098 fdt_get_property
0000000034311910 g     F .ro	0000000000000034 fdt_path_offset
0000000034312430 g     F .ro	0000000000000068 fdt_setprop
000000003430de50  w    F .ro	000000000000003c plat_log_get_prefix
00000000343027d8 g     F .ro	0000000000000014 s32_core_pos_by_mpidr
0000000034302720  w    F .ro	0000000000000004 plat_report_exception
000000003430b480 g     F .ro	000000000000011c s32_i2c_init
0000000034314e48 g     O .ro	00000000000000f0 siul2_clk_freq_map
000000003431bdb0 g     O .data	0000000000000088 configs
0000000034313918 g     O .ro	000000000000001e build_message
000000003430e730 g     F .ro	000000000000002c clear_swt_faults
000000003430cfb0 g     F .ro	0000000000000038 init_xlat_tables
0000000034319000 g       .data	0000000000000000 __DATA_START__
0000000034302340 g     F .ro	000000000000000c console_linflex_flush
000000003430bbf0 g     F .ro	0000000000000118 s32_mmc_register
000000003430cbc0 g     F .ro	000000000000000c get_partition_entry_list
0000000034302ca0 g     F .ro	0000000000000054 get_bl_mem_params_node
0000000034311150 g     F .ro	0000000000000190 fdt_get_string
000000003430ce20 g     F .ro	0000000000000014 xlat_arch_regime_get_xn_desc
000000003432be48 g     O .data	0000000000000008 imem_2d_cfg_size
0000000034302eb0 g     F .ro	00000000000001a8 fdt_add_reserved_memory
0000000034310f60 g     F .ro	0000000000000084 fdt_find_string_
0000000034304d70 g     F .ro	00000000000000c8 get_clk_driver_by_name
000000003430ef90 g     F .ro	0000000000000098 s32_mc_rgm_periph_reset
000000003430a170 g     F .ro	00000000000004d4 post_train_setup
0000000034311ce0 g     F .ro	00000000000000bc fdt_node_offset_by_compatible
000000003430e670 g     F .ro	0000000000000004 bl2_platform_setup
0000000034303990 g     F .ro	0000000000000038 register_io_dev_block
00000000343078a0 g     F .ro	0000000000000064 get_module_parent
000000003430297c g       .ro	0000000000000000 __TEXT_RESIDENT_END__
0000000034323e40 g     O .data	0000000000000008 imem_1d_cfg_size
000000003430e7d0 g     F .ro	0000000000000040 s32_early_plat_init
0000000034308cf0 g     F .ro	00000000000000e4 get_base_addr
00000000343128d0 g     F .ro	0000000000000020 memcpy
0000000034308eb0 g     F .ro	0000000000000044 get_plat_clock
0000000034311ad0 g     F .ro	00000000000000c4 fdt_node_offset_by_prop_value
0000000034302c60 g     F .ro	0000000000000038 flush_bl_params_desc
000000003430bda0 g     F .ro	00000000000000f0 vr5510_read
000000003430eb20 g     F .ro	0000000000000054 console_s32_register
00000000343023fc g     F .ro	00000000000000e8 zero_normalmem
00000000343125c0 g     F .ro	0000000000000090 fdt_delprop
000000003432c228 g     O .data	000000000000067c dmem_1d_cfg
0000000034309e90 g     F .ro	0000000000000050 store_ddrc_regs
00000000343027ec g     F .ro	0000000000000130 reset_registers_for_lockstep
000000003430fa20 g     F .ro	0000000000000370 s32_io_setup
00000000343020d0 g     F .ro	0000000000000018 platform_mem_init
000000003432c8b0 g     O .data	000000000000057c dmem_2d_cfg
000000003430c160 g     F .ro	00000000000001b4 s32gen1_assert_rgm
0000000034313190 g     F .ro	0000000000000600 vsnprintf
000000003430cf60 g     F .ro	0000000000000010 mmap_add
000000003430e850 g     F .ro	000000000000000c plat_get_syscnt_freq2
000000003430e860 g     F .ro	0000000000000100 s32_add_i2c_module
0000000034310480 g     F .ro	0000000000000058 dt_init_ocotp
00000000343050e0 g     F .ro	0000000000000054 s32_reset_ddr_periph
0000000034302788 g     F .ro	0000000000000008 plat_panic_handler
000000003430e360 g     F .ro	0000000000000004 plat_flush_next_bl_params
0000000034317d40 g       .ro	0000000000000000 __RT_SVC_DESCS_START__
0000000034311570 g     F .ro	0000000000000114 fdt_subnode_offset_namelen
0000000034309ee0 g     F .ro	0000000000000190 ddrss_to_normal_mode
0000000034309d70 g     F .ro	0000000000000024 load_dq_cfg
000000003432be50 g     O .data	00000000000003d0 ddrc_cfg
0000000034332940 g       .stacks	0000000000000000 __STACKS_END__
0000000034336f80 g       .bss	0000000000000000 __PERCPU_BAKERY_LOCK_END__
000000003432e908 g       .data	0000000000000000 s32_crash_reg_stash
0000000034302384 g     F .ro	0000000000000038 clean_dcache_range
0000000034310340 g     F .ro	0000000000000134 dt_init_pmic
000000003432d1f0 g     O .data	0000000000000008 phy_cfg_size
000000003431bac8 g     O .data	0000000000000030 serdes1_lane0_cdr_clk
000000003430ea80 g     F .ro	0000000000000098 dt_fill_device_info
0000000034302290 g     F .ro	0000000000000028 console_linflex_core_flush
000000003430be90 g     F .ro	00000000000000cc vr5510_write
000000003430abf0 g     F .ro	0000000000000098 read_vref_ca
0000000034336a90 g     O .bss	0000000000000008 i2c_fill_level
000000003432ce38 g     O .data	0000000000000100 dq_swap_cfg
000000003432e900 g     O .data	0000000000000008 bl_mem_params_desc_ptr
00000000343041c0 g     F .ro	0000000000000020 io_size
000000003431be40 g     O .data	0000000000008000 imem_1d_cfg
000000003430ac90 g     F .ro	0000000000000098 read_vref_dq
0000000034304010 g     F .ro	0000000000000018 io_dev_open
0000000034302724  w    F .ro	0000000000000010 plat_set_my_stack
0000000034317d40 g       .ro	0000000000000000 __RT_SVC_DESCS_END__
000000003430e130 g     F .ro	0000000000000210 s32_el3_mmu_fixup
0000000034310d40 g     F .ro	0000000000000040 fdt_check_node_offset_
000000003432cf38 g     O .data	0000000000000008 dq_swap_cfg_size
00000000343065f0 g     F .ro	000000000000000c s32gen1_platclk2mux
0000000034309660 g     F .ro	0000000000000188 s32gen1_set_parent
000000003432d1f8 g     O .data	0000000000001170 pie_cfg
0000000034302148 g     F .ro	0000000000000030 asm_print_hex
0000000034317d24 g     O .ro	0000000000000004 dtb_size
0000000000004800 g       *ABS*	0000000000000000 __BSS_SIZE__
0000000034302130 g     F .ro	0000000000000018 asm_print_str
0000000034309e10 g     F .ro	000000000000007c store_csr
00000000343024e4 g     F .ro	000000000000001c disable_mmu_el3
000000003430ef60 g     F .ro	0000000000000028 s32_mc_rgm_read
0000000034302760 g     F .ro	0000000000000010 plat_crash_console_flush
000000003430de20  w    F .ro	0000000000000008 plat_error_handler
00000000343104e0 g     F .ro	0000000000000088 i2c_config_pinctrl
000000003431bda8 g     O .data	0000000000000008 ddrc_to_store_size
00000000343138c0 g     F .ro	0000000000000030 strnlen
0000000034311950 g     F .ro	000000000000004c fdt_getprop
000000003430f310 g     F .ro	00000000000001b4 s32_configure_peripheral_pinctrl
000000003430e6e0 g     F .ro	0000000000000050 bl2_plat_handle_post_image_load
0000000034309d10 g     F .ro	0000000000000024 load_register_cfg_16
0000000034318800 g       .ro	0000000000000000 __RO_END_UNALIGNED__
0000000034302000 g       .ro	0000000000000000 RAM_REGION_START
00000000343159d8 g     O .ro	0000000000000548 csr_to_store
00000000343032b0 g     F .ro	00000000000000b8 console_putc
0000000034302784 g     F .ro	0000000000000004 plat_secondary_cold_boot_setup
00000000343138f0 g     F .ro	0000000000000028 strrchr
000000003430ff40 g     F .ro	0000000000000060 pmic_setup
000000003431ab38 g     O .data	0000000000000030 cgm0_mux0_clk
0000000034302734 g     F .ro	000000000000001c plat_crash_console_init
000000003430234c g     F .ro	0000000000000038 flush_dcache_range
000000003431a6b0 g     O .data	0000000000000030 serdes1_lane1_tx_clk
00000000343127f0 g     F .ro	000000000000005c fdt_strerror
0000000034303480 g     F .ro	000000000000000c timer_init
0000000034302d90 g     F .ro	0000000000000120 get_next_bl_params_from_mem_params_desc
0000000034311ba0 g     F .ro	00000000000000b4 fdt_stringlist_contains
0000000034313958 g     O .ro	0000000000000008 fip_mem_offset
000000003430f4d0 g     F .ro	000000000000004c s32_plat_config_uart_pinctrl
000000003430fd90 g     F .ro	0000000000000150 platform_adjust_noc_settings
0000000034317d40 g       .ro	0000000000000000 __PMF_SVC_DESCS_END__
000000003432e938 g       .data	0000000000000000 __RELA_END__
000000003431bbe8 g     O .data	0000000000000030 xbar_clk
000000003432e938 g       .data	0000000000000000 __RELA_START__
0000000034354000 g       .xlat_table	0000000000000000 RAM_REGION_END
0000000034319000 g       .data	0000000000000000 s32_plat_data_stack
000000003430e960 g     F .ro	000000000000000c get_sdhc_clk_freq
000000003430232c g     F .ro	0000000000000014 console_linflex_putc
0000000034302204 g     F .ro	0000000000000054 console_linflex_core_init
000000003431aac8 g     O .data	0000000000000020 armdfs
0000000034312ae0 g     F .ro	0000000000000564 vprintf
000000003430ce10 g     F .ro	000000000000000c is_dcache_enabled
000000003430b650 g     F .ro	0000000000000034 alloc_mem_pool_elem
00000000343047e0 g     F .ro	0000000000000584 mmc_init
0000000034304e40 g     F .ro	000000000000007c init_fake_plat_driver
0000000034312300 g     F .ro	0000000000000124 fdt_setprop_placeholder
0000000034308e20 g     F .ro	0000000000000034 s32g_get_plat_clock
0000000034302770 g     F .ro	0000000000000014 plat_reset_handler
00000000343026c8 g     F .ro	0000000000000058 enable_mmu_direct_el3
0000000034302650 g     F .ro	0000000000000040 get_cpu_ops_ptr
000000003430e340 g     F .ro	0000000000000004 plat_get_bl_image_load_info
0000000034308f80 g     F .ro	00000000000000bc s32gen1_get_early_clks_freqs
0000000034302b30 g     F .ro	0000000000000120 load_auth_image
0000000034312850 g     F .ro	0000000000000034 memchr
0000000034306660 g     F .ro	00000000000001cc s32gen1_enable_cgm_mux
000000003430dfe0 g     F .ro	00000000000000b4 add_bl33_img_to_mem_params_descs
000000003432e368 g     O .data	0000000000000008 pie_cfg_size
0000000034311060 g     F .ro	0000000000000064 fdt_size_cells
0000000034310650 g     F .ro	0000000000000188 pmic_disable_wdg
0000000034354000 g       .xlat_table	0000000000000000 __BL2_END__
000000003430ce70 g     F .ro	000000000000000c xlat_arch_current_el
000000003430f5f0 g     F .ro	00000000000000bc s32_ssram_clear
00000000343119a0 g     F .ro	00000000000000d0 fdt_supernode_atdepth_offset
0000000034323e48 g     O .data	0000000000008000 imem_2d_cfg
0000000000000000 g       *ABS*	0000000000000000 __PERCPU_BAKERY_LOCK_SIZE__
000000003430a070 g     F .ro	0000000000000100 set_axi_parity
000000003430cdf0 g     F .ro	0000000000000014 xlat_arch_get_pas
0000000034310f00 g     F .ro	0000000000000054 fdt_next_subnode
000000003430ebe0 g     F .ro	0000000000000018 s32_is_interconnect_disabled
000000003432e931 g       .data	0000000000000000 __DATA_RAM_END__
0000000034336f80 g       .bss	0000000000000000 __PMF_PERCPU_TIMESTAMP_END__
00000000343137e0 g     F .ro	0000000000000064 strlcpy
0000000034302ac0 g     F .ro	000000000000006c bl2_main
0000000034313880 g     F .ro	000000000000003c strncmp
000000003432e931 g       .data	0000000000000000 __DATA_END__
000000003430f520 g     F .ro	0000000000000050 s32_plat_config_sdhc_pinctrl
000000003431b480 g     O .data	0000000000000020 per_div
000000003430214c g       .ro	0000000000000000 asm_print_hex_bits
0000000034336f80 g       .bss	0000000000000000 __BASE_XLAT_TABLE_START__
0000000034317d40 g       .ro	0000000000000000 __CPU_OPS_START__
0000000034303400 g     F .ro	000000000000006c udelay
0000000034310d80 g     F .ro	0000000000000040 fdt_check_prop_offset_
0000000034305140 g     F .ro	0000000000000080 s32_a53_clock_early_setup
00000000343023bc g     F .ro	0000000000000038 inv_dcache_range
0000000034302000 g     F .ro	00000000000000d0 bl2_entrypoint
0000000034310570 g     F .ro	000000000000001c s32_config_linflex_pinctrl
00000000343034a0 g     F .ro	0000000000000094 generic_delay_timer_init
000000003430de10  w    F .ro	0000000000000004 bl2_el3_plat_prepare_exit
000000003431a6e0 g     O .data	0000000000000030 xbar_2x_clk
0000000034336f80 g       .bss	0000000000000000 __BAKERY_LOCK_END__
0000000034312890 g     F .ro	0000000000000038 memcmp
0000000034302690 g     F .ro	0000000000000010 cpu_get_rev_var
000000003430d430 g     F .ro	0000000000000108 xlat_desc
00000000343117b0 g     F .ro	0000000000000158 fdt_path_offset_namelen
000000003430df10 g     F .ro	00000000000000a8 add_bl31_img_to_mem_params_descs
00000000343027ac g     F .ro	0000000000000018 plat_is_my_cpu_primary
000000003430e810 g     F .ro	000000000000003c s32_early_plat_setup
0000000034337200 g       .bss	0000000000000000 __BSS_END__
0000000034317d80 g       .ro	0000000000000000 __CPU_OPS_END__
000000003430ff20 g     F .ro	0000000000000018 s32_get_sramc
000000003432cf40 g     O .data	00000000000002b0 phy_cfg
00000000343051c0 g     F .ro	000000000000020c s32_periph_clock_init
00000000343041a0 g     F .ro	0000000000000020 io_seek
0000000034304200 g     F .ro	0000000000000088 io_close
0000000034319a20 g     O .data	0000000000000030 gmac_ts_clk
000000003430e970 g     F .ro	0000000000000044 dt_open_and_check
000000003430de90 g     F .ro	0000000000000074 bl2_copy_bl31_dtb
00000000343095e0 g     F .ro	0000000000000074 s32gen1_set_rate
0000000034317d80 g       .ro	0000000000000000 __GOT_END__
0000000034312940 g     F .ro	0000000000000094 memset
00000000343127a0 g     F .ro	0000000000000044 fdt_add_subnode
0000000034317d40 g       .ro	0000000000000000 __PARSER_LIB_DESCS_END__
000000003430a700 g     F .ro	00000000000004f0 read_cdds
0000000034336f80 g       .bss	0000000000000000 __BAKERY_LOCK_START__
0000000034310220 g     F .ro	00000000000000c0 bl2_el3_plat_arch_setup
00000000343020f8 g     F .ro	0000000000000038 bl2_run_next_image
0000000034302500 g     F .ro	0000000000000008 disable_mmu_icache_el3
000000003430dfd0 g     F .ro	0000000000000008 add_bl32_extra1_img_to_mem_params_descs
000000003432e92c g     O .data	0000000000000004 bl_mem_params_desc_num
0000000034309da0 g     F .ro	000000000000006c set_optimal_pll
000000003430de30  w    F .ro	0000000000000004 bl2_plat_preload_setup
00000000343124a0 g     F .ro	0000000000000114 fdt_appendprop
000000003430eb80 g     F .ro	000000000000005c mc_me_part_pupd_update_and_wait
0000000034302990 g     F .ro	0000000000000108 bl2_load_images
000000003430e7b0 g     F .ro	000000000000001c deassert_ddr_reset
0000000034318000 g       .ro	0000000000000000 bl2_el3_exceptions
000000003430ec00 g     F .ro	0000000000000048 s32_enable_interconnect
000000003431ae88 g     O .data	0000000000000030 cgm0_mux7_clk
0000000034302980 g     F .ro	000000000000000c bl2_arch_setup
0000000034317d80 g       .ro	0000000000000000 __GOT_START__
000000003430e760 g     F .ro	0000000000000024 get_reset_cause_str
0000000034303060 g     F .ro	000000000000011c fdt_get_reg_props_by_index
0000000000000000 g       *ABS*	0000000000000000 __PERCPU_TIMESTAMP_SIZE__
000000003432c220 g     O .data	0000000000000008 ddrc_cfg_size
000000003431bc98 g     O .data	0000000000000030 xbar_div3_clk
000000003430bd10 g     F .ro	0000000000000090 s32gen1_ocotp_init
0000000034317d40 g       .ro	0000000000000000 __FCONF_POPULATOR_END__
000000003430f1d0 g     F .ro	0000000000000098 get_siul2_midr2_freq
00000000343022b8 g     F .ro	0000000000000074 console_linflex_core_putc
000000003430e0a0 g     F .ro	0000000000000090 s32_el3_mmu_ddr_fixup
000000003430f6b0 g     F .ro	00000000000001fc s32_sram_clear
000000003432c8a8 g     O .data	0000000000000008 dmem_1d_cfg_size
0000000034337200 g       .bss	0000000000000000 __BASE_XLAT_TABLE_END__
00000000343108f0 g     F .ro	0000000000000208 fdt_check_header
000000003430b5a0 g     F .ro	00000000000000a4 s32_i2c_get_setup_from_fdt
00000000343033a0 g     F .ro	0000000000000054 console_flush
0000000034319000 g       .ro	0000000000000000 __RO_END__
000000003430ae40 g     F .ro	0000000000000078 init_image_sizes
0000000034304030 g     F .ro	000000000000001c io_dev_init
0000000034311480 g     F .ro	00000000000000e8 fdt_get_name
00000000343041e0 g     F .ro	0000000000000020 io_read
000000003430ad30 g     F .ro	0000000000000110 compute_tphy_wrdata_delay
0000000034310ec0 g     F .ro	0000000000000034 fdt_first_subnode
0000000034312650 g     F .ro	000000000000014c fdt_add_subnode_namelen
000000003430f570 g     F .ro	000000000000007c plat_scmi_rstd_set_state
0000000034332a00 g       .bss	0000000000000000 __BSS_START__
000000003430e790 g     F .ro	0000000000000014 is_lockstep_enabled
0000000034319000 g       .data	0000000000000000 __DATA_RAM_START__
0000000034302000 g       .ro	0000000000000000 __RO_START__
0000000034302258 g     F .ro	0000000000000038 console_linflex_register
000000003430d850 g     F .ro	0000000000000178 mmap_add_region_ctx
000000003430de40  w    F .ro	0000000000000008 plat_try_next_boot_source
0000000034317d40 g       .ro	0000000000000000 __PMF_SVC_DESCS_START__
0000000034302750 g     F .ro	0000000000000010 plat_crash_console_putc
000000003430f120 g     F .ro	0000000000000008 ncore_caiu_online
000000003430291c g     F .ro	0000000000000060 _s32_sram_clr
0000000034304f70 g     F .ro	000000000000016c s32_a53_clock_setup
000000003431a670 g     O .data	0000000000000030 serdes1_lane1_cdr_clk
000000003431bda0 g     O .data	0000000000000008 csr_to_store_size
00000000343026b4 g     F .ro	0000000000000014 cpu_rev_var_hs
0000000034304070 g     F .ro	0000000000000124 io_open
0000000034310dc0 g     F .ro	00000000000000f8 fdt_next_node
00000000343046a0 g     F .ro	0000000000000140 mmc_read_blocks
0000000034302aa0 g     F .ro	0000000000000014 bl2_el3_setup
000000003430c320 g     F .ro	00000000000001b8 s32gen1_reset_periph
000000003430bf60 g     F .ro	00000000000000ac vr5510_get_inst
000000003430e9c0 g     F .ro	0000000000000048 fdt_get_address
000000003430c4e0 g     F .ro	0000000000000024 s32gen1_reset_partition
0000000034317d29 g     O .ro	0000000000000001 fip_location_mmc
000000003430f130 g     F .ro	0000000000000094 ncore_init
000000003430f9b0 g     F .ro	0000000000000068 plat_get_image_source
0000000034307c10 g     F .ro	0000000000000148 s32gen1_enable
00000000343031b0 g     F .ro	00000000000000a0 tf_log
0000000034303fe0 g     F .ro	0000000000000028 io_register_device
0000000034308e60 g     F .ro	0000000000000048 get_plat_cc_clock
0000000034308f00 g     F .ro	0000000000000074 get_clock
0000000034317d40 g       .ro	0000000000000000 __FCONF_POPULATOR_START__
00000000000fcfff g       *ABS*	0000000000000000 RAM_REGION_LENGTH
000000003430cc50 g     F .ro	0000000000000128 parse_optee_header
00000000343026a0 g     F .ro	0000000000000014 cpu_rev_var_ls
0000000034354000 g       .xlat_table	0000000000000000 __RW_END__
000000003431be38 g     O .data	0000000000000008 ddrss_config_size
000000003430ea10 g     F .ro	0000000000000068 fdt_get_status
0000000034302790 g     F .ro	000000000000001c s32_ncore_isol_cluster0
0000000034302d00 g     F .ro	0000000000000090 get_bl_load_info_from_mem_params_desc
000000003432e940 g       .stacks	0000000000000000 __STACKS_START__
000000003430cff0 g     F .ro	0000000000000048 enable_mmu_el3
000000003431bc68 g     O .data	0000000000000030 xbar_div2_clk
0000000034303180 g     F .ro	0000000000000028 tf_crc32
0000000034310be0 g     F .ro	0000000000000158 fdt_next_tag
0000000034336f80 g       .bss	0000000000000000 __PMF_TIMESTAMP_END__
0000000034302000 g       .ro	0000000000000000 __TEXT_RESIDENT_START__
000000003430c5c0 g     F .ro	00000000000000d4 parse_gpt_entry
000000003430dcb0 g     F .ro	0000000000000134 init_xlat_tables_ctx
000000003431a898 g     O .data	0000000000000030 accel_pll_phi1_clk
0000000034354000 g       .xlat_table	0000000000000000 __XLAT_TABLE_END__
00000000343027c4 g     F .ro	0000000000000014 plat_my_core_pos
000000003430e680 g     F .ro	0000000000000060 bl2_plat_handle_pre_image_load
000000003430c510 g     F .ro	00000000000000a8 s32g_reset_rtc
0000000034303fa0 g     F .ro	0000000000000038 register_io_dev_memmap
0000000034313850 g     F .ro	0000000000000028 strlen
000000003430b390 g     F .ro	00000000000000ec s32_i2c_write
000000003431a840 g     O .data	0000000000000030 accel_pll_phi0_clk
000000003430ce40 g     F .ro	0000000000000030 xlat_arch_tlbi_va
00000000343099b0 g     F .ro	0000000000000360 ddr_init
0000000034304050 g     F .ro	000000000000001c io_dev_close
000000003430f270 g     F .ro	000000000000009c s32_get_pin_addr
0000000034302180 g     F .ro	0000000000000030 el3_panic
0000000034307860 g     F .ro	0000000000000034 pllclk2clk
000000003432ce30 g     O .data	0000000000000008 dmem_2d_cfg_size
000000003430ddf0 g     F .ro	0000000000000004 xlat_mmap_print
0000000034303dd0 g     F .ro	0000000000000038 register_io_dev_fip
00000000343102e0 g     F .ro	000000000000005c s32g_reinit_i2c
00000000343107e0 g     F .ro	000000000000010c fdt_ro_probe_
000000003430e370 g     F .ro	0000000000000300 apply_bl2_fixups
0000000034311c60 g     F .ro	0000000000000080 fdt_node_check_compatible
0000000034332c28 g     O .bss	0000000000000008 console_list
0000000034303540 g     F .ro	0000000000000008 device_type_block
000000003430e350 g     F .ro	0000000000000004 plat_get_next_bl_params
0000000034317d28 g     O .ro	0000000000000001 fip_location_mem
0000000034336f80 g       .bss	0000000000000000 __PERCPU_BAKERY_LOCK_START__
000000003430cf20 g     F .ro	000000000000003c mmap_add_region
0000000034317d40 g       .ro	0000000000000000 __PARSER_LIB_DESCS_START__



Disassembly of section .ro:

0000000034302000 <bl2_entrypoint>:
    34302000:	aa0003f4 	mov	x20, x0
    34302004:	aa0103f5 	mov	x21, x1
    34302008:	aa0203f6 	mov	x22, x2
    3430200c:	aa0303f7 	mov	x23, x3
    34302010:	d2810600 	mov	x0, #0x830                 	// #2096
    34302014:	f2a618a0 	movk	x0, #0x30c5, lsl #16
    34302018:	d51e1000 	msr	sctlr_el3, x0
    3430201c:	d5033fdf 	isb
    34302020:	100aff00 	adr	x0, 34318000 <SynchronousExceptionSP0>
    34302024:	d51ec000 	msr	vbar_el3, x0
    34302028:	d5033fdf 	isb
    3430202c:	94000181 	bl	34302630 <reset_handler>
    34302030:	d2820141 	mov	x1, #0x100a                	// #4106
    34302034:	d53e1000 	mrs	x0, sctlr_el3
    34302038:	aa010000 	orr	x0, x0, x1
    3430203c:	d51e1000 	msr	sctlr_el3, x0
    34302040:	d5033fdf 	isb
    34302044:	d2804700 	mov	x0, #0x238                 	// #568
    34302048:	d51e1100 	msr	scr_el3, x0
    3430204c:	d2900000 	mov	x0, #0x8000                	// #32768
    34302050:	f2a20020 	movk	x0, #0x1001, lsl #16
    34302054:	d51e1320 	msr	mdcr_el3, x0
    34302058:	d50344ff 	msr	daifclr, #0x4
    3430205c:	d2808000 	mov	x0, #0x400                 	// #1024
    34302060:	f2b80200 	movk	x0, #0xc010, lsl #16
    34302064:	d51e1140 	msr	cptr_el3, x0
    34302068:	940001d1 	bl	343027ac <plat_is_my_cpu_primary>
    3430206c:	35000060 	cbnz	w0, 34302078 <do_primary_cold_boot>
    34302070:	940001c5 	bl	34302784 <plat_secondary_cold_boot_setup>
    34302074:	94000043 	bl	34302180 <el3_panic>

0000000034302078 <do_primary_cold_boot>:
    34302078:	94000016 	bl	343020d0 <platform_mem_init>
    3430207c:	f00000a0 	adrp	x0, 34319000 <__RO_END__>
    34302080:	91000000 	add	x0, x0, #0x0
    34302084:	d0000281 	adrp	x1, 34354000 <RAM_REGION_END>
    34302088:	91000021 	add	x1, x1, #0x0
    3430208c:	cb000021 	sub	x1, x1, x0
    34302090:	940000cb 	bl	343023bc <inv_dcache_range>
    34302094:	90000180 	adrp	x0, 34332000 <__STACKS_START__+0x36c0>
    34302098:	91280000 	add	x0, x0, #0xa00
    3430209c:	b00001a1 	adrp	x1, 34337000 <tf_base_xlat_table>
    343020a0:	91080021 	add	x1, x1, #0x200
    343020a4:	cb000021 	sub	x1, x1, x0
    343020a8:	940000d3 	bl	343023f4 <zeromem>
    343020ac:	d50040bf 	msr	spsel, #0x0
    343020b0:	9400019d 	bl	34302724 <plat_set_my_stack>
    343020b4:	aa1403e0 	mov	x0, x20
    343020b8:	aa1503e1 	mov	x1, x21
    343020bc:	aa1603e2 	mov	x2, x22
    343020c0:	aa1703e3 	mov	x3, x23
    343020c4:	94000277 	bl	34302aa0 <bl2_el3_setup>
    343020c8:	9400027e 	bl	34302ac0 <bl2_main>
    343020cc:	940001af 	bl	34302788 <plat_panic_handler>

00000000343020d0 <platform_mem_init>:
    343020d0:	aa1e03f0 	mov	x16, x30
    343020d4:	580000a0 	ldr	x0, 343020e8 <platform_mem_init+0x18>
    343020d8:	580000c1 	ldr	x1, 343020f0 <platform_mem_init+0x20>
    343020dc:	94000210 	bl	3430291c <_s32_sram_clr>
    343020e0:	aa1003fe 	mov	x30, x16
    343020e4:	d65f03c0 	ret
    343020e8:	3432e940 	.word	0x3432e940
    343020ec:	00000000 	.word	0x00000000
    343020f0:	34354000 	.word	0x34354000
    343020f4:	00000000 	.word	0x00000000

00000000343020f8 <bl2_run_next_image>:
    343020f8:	aa0003f4 	mov	x20, x0
    343020fc:	94000101 	bl	34302500 <disable_mmu_icache_el3>
    34302100:	d50e871f 	tlbi	alle3
    34302104:	94002f43 	bl	3430de10 <bl2_el3_plat_prepare_exit>
    34302108:	a9408680 	ldp	x0, x1, [x20, #8]
    3430210c:	d51e4020 	msr	elr_el3, x0
    34302110:	d51e4001 	msr	spsr_el3, x1
    34302114:	a9449e86 	ldp	x6, x7, [x20, #72]
    34302118:	a9439684 	ldp	x4, x5, [x20, #56]
    3430211c:	a9428e82 	ldp	x2, x3, [x20, #40]
    34302120:	a9418680 	ldp	x0, x1, [x20, #24]
    34302124:	d69f03e0 	eret
    34302128:	d503379f 	dsb	nsh
    3430212c:	d5033fdf 	isb

0000000034302130 <asm_print_str>:
    34302130:	aa1e03e3 	mov	x3, x30
    34302134:	38401480 	ldrb	w0, [x4], #1
    34302138:	b4000060 	cbz	x0, 34302144 <asm_print_str+0x14>
    3430213c:	94000185 	bl	34302750 <plat_crash_console_putc>
    34302140:	17fffffd 	b	34302134 <asm_print_str+0x4>
    34302144:	d65f0060 	ret	x3

0000000034302148 <asm_print_hex>:
    34302148:	d2800805 	mov	x5, #0x40                  	// #64

000000003430214c <asm_print_hex_bits>:
    3430214c:	aa1e03e3 	mov	x3, x30
    34302150:	d10010a5 	sub	x5, x5, #0x4
    34302154:	9ac52480 	lsr	x0, x4, x5
    34302158:	92400c00 	and	x0, x0, #0xf
    3430215c:	f100281f 	cmp	x0, #0xa
    34302160:	54000043 	b.cc	34302168 <asm_print_hex_bits+0x1c>  // b.lo, b.ul, b.last
    34302164:	91009c00 	add	x0, x0, #0x27
    34302168:	9100c000 	add	x0, x0, #0x30
    3430216c:	94000179 	bl	34302750 <plat_crash_console_putc>
    34302170:	b5ffff05 	cbnz	x5, 34302150 <asm_print_hex_bits+0x4>
    34302174:	d65f0060 	ret	x3

0000000034302178 <asm_print_newline>:
    34302178:	d2800140 	mov	x0, #0xa                   	// #10
    3430217c:	14000175 	b	34302750 <plat_crash_console_putc>

0000000034302180 <el3_panic>:
    34302180:	aa1e03e6 	mov	x6, x30
    34302184:	9400016c 	bl	34302734 <plat_crash_console_init>
    34302188:	b4000100 	cbz	x0, 343021a8 <_panic_handler>
    3430218c:	700adce4 	adr	x4, 34317d2b <panic_msg>
    34302190:	97ffffe8 	bl	34302130 <asm_print_str>
    34302194:	aa0603e4 	mov	x4, x6
    34302198:	d1001084 	sub	x4, x4, #0x4
    3430219c:	97ffffeb 	bl	34302148 <asm_print_hex>
    343021a0:	97fffff6 	bl	34302178 <asm_print_newline>
    343021a4:	9400016f 	bl	34302760 <plat_crash_console_flush>

00000000343021a8 <_panic_handler>:
    343021a8:	aa0603fe 	mov	x30, x6
    343021ac:	14000177 	b	34302788 <plat_panic_handler>

00000000343021b0 <get_ldiv_mult>:
    343021b0:	b9401004 	ldr	w4, [x0, #16]
    343021b4:	2a0403e5 	mov	w5, w4
    343021b8:	d3586ca5 	ubfx	x5, x5, #24, #4
    343021bc:	52800206 	mov	w6, #0x10                  	// #16
    343021c0:	12090084 	and	w4, w4, #0x800000
    343021c4:	7100009f 	cmp	w4, #0x0
    343021c8:	1a8610a4 	csel	w4, w5, w6, ne  // ne = any
    343021cc:	d65f03c0 	ret

00000000343021d0 <linflex_set_brg>:
    343021d0:	aa1e03ed 	mov	x13, x30
    343021d4:	97fffff7 	bl	343021b0 <get_ldiv_mult>
    343021d8:	aa0d03fe 	mov	x30, x13
    343021dc:	9b027c84 	mul	x4, x4, x2
    343021e0:	aa0103e5 	mov	x5, x1
    343021e4:	9ac408a6 	udiv	x6, x5, x4
    343021e8:	9b0494c7 	msub	x7, x6, x4, x5
    343021ec:	d37cece7 	lsl	x7, x7, #4
    343021f0:	9ac408e7 	udiv	x7, x7, x4
    343021f4:	12000ce7 	and	w7, w7, #0xf
    343021f8:	b9002806 	str	w6, [x0, #40]
    343021fc:	b9002407 	str	w7, [x0, #36]
    34302200:	d65f03c0 	ret

0000000034302204 <console_linflex_core_init>:
    34302204:	52800024 	mov	w4, #0x1                   	// #1
    34302208:	b9000004 	str	w4, [x0]
    3430220c:	52800224 	mov	w4, #0x11                  	// #17
    34302210:	b9000004 	str	w4, [x0]

0000000034302214 <wait_init_entry>:
    34302214:	b9400804 	ldr	w4, [x0, #8]
    34302218:	12140c84 	and	w4, w4, #0xf000
    3430221c:	7140049f 	cmp	w4, #0x1, lsl #12
    34302220:	54ffffa1 	b.ne	34302214 <wait_init_entry>  // b.any
    34302224:	52800024 	mov	w4, #0x1                   	// #1
    34302228:	b9001004 	str	w4, [x0, #16]
    3430222c:	aa1e03ee 	mov	x14, x30
    34302230:	97ffffe8 	bl	343021d0 <linflex_set_brg>
    34302234:	aa0e03fe 	mov	x30, x14
    34302238:	528001e4 	mov	w4, #0xf                   	// #15
    3430223c:	b9005004 	str	w4, [x0, #80]
    34302240:	52806f64 	mov	w4, #0x37b                 	// #891
    34302244:	b9001004 	str	w4, [x0, #16]
    34302248:	b9400004 	ldr	w4, [x0]
    3430224c:	121f7884 	and	w4, w4, #0xfffffffe
    34302250:	b9000004 	str	w4, [x0]
    34302254:	d65f03c0 	ret

0000000034302258 <console_linflex_register>:
    34302258:	aa1e03ef 	mov	x15, x30
    3430225c:	97ffffea 	bl	34302204 <console_linflex_core_init>
    34302260:	aa0f03fe 	mov	x30, x15
    34302264:	f9001060 	str	x0, [x3, #32]
    34302268:	aa0303e0 	mov	x0, x3
    3430226c:	90000001 	adrp	x1, 34302000 <bl2_entrypoint>
    34302270:	910cb021 	add	x1, x1, #0x32c
    34302274:	f9000801 	str	x1, [x0, #16]
    34302278:	90000001 	adrp	x1, 34302000 <bl2_entrypoint>
    3430227c:	910d0021 	add	x1, x1, #0x340
    34302280:	f9000c01 	str	x1, [x0, #24]
    34302284:	d28000a1 	mov	x1, #0x5                   	// #5
    34302288:	f9000401 	str	x1, [x0, #8]
    3430228c:	140003f1 	b	34303250 <console_register>

0000000034302290 <console_linflex_core_flush>:
    34302290:	b9401001 	ldr	w1, [x0, #16]
    34302294:	12180021 	and	w1, w1, #0x100
    34302298:	7100003f 	cmp	w1, #0x0
    3430229c:	540000a0 	b.eq	343022b0 <exit_flush>  // b.none

00000000343022a0 <tfc_loop>:
    343022a0:	b9401001 	ldr	w1, [x0, #16]
    343022a4:	12130821 	and	w1, w1, #0xe000
    343022a8:	7100003f 	cmp	w1, #0x0
    343022ac:	54ffffa1 	b.ne	343022a0 <tfc_loop>  // b.any

00000000343022b0 <exit_flush>:
    343022b0:	d2800000 	mov	x0, #0x0                   	// #0
    343022b4:	d65f03c0 	ret

00000000343022b8 <console_linflex_core_putc>:
    343022b8:	b4000361 	cbz	x1, 34302324 <putc_error>
    343022bc:	7100281f 	cmp	w0, #0xa
    343022c0:	540000c1 	b.ne	343022d8 <print_char>  // b.any
    343022c4:	d28001a0 	mov	x0, #0xd                   	// #13
    343022c8:	aa1e03ee 	mov	x14, x30
    343022cc:	97fffffb 	bl	343022b8 <console_linflex_core_putc>
    343022d0:	aa0e03fe 	mov	x30, x14
    343022d4:	d2800140 	mov	x0, #0xa                   	// #10

00000000343022d8 <print_char>:
    343022d8:	b9401022 	ldr	w2, [x1, #16]
    343022dc:	12180042 	and	w2, w2, #0x100
    343022e0:	7100005f 	cmp	w2, #0x0
    343022e4:	540000e0 	b.eq	34302300 <buffer_mode>  // b.none

00000000343022e8 <fifo_mode>:
    343022e8:	b9401422 	ldr	w2, [x1, #20]
    343022ec:	121f0042 	and	w2, w2, #0x2
    343022f0:	7100005f 	cmp	w2, #0x0
    343022f4:	54ffffa1 	b.ne	343022e8 <fifo_mode>  // b.any
    343022f8:	3900e020 	strb	w0, [x1, #56]
    343022fc:	14000008 	b	3430231c <no_error>

0000000034302300 <buffer_mode>:
    34302300:	3900e020 	strb	w0, [x1, #56]

0000000034302304 <buffer_loop>:
    34302304:	b9401422 	ldr	w2, [x1, #20]
    34302308:	121f0043 	and	w3, w2, #0x2
    3430230c:	7100007f 	cmp	w3, #0x0
    34302310:	54ffffa0 	b.eq	34302304 <buffer_loop>  // b.none
    34302314:	52800042 	mov	w2, #0x2                   	// #2
    34302318:	b9001422 	str	w2, [x1, #20]

000000003430231c <no_error>:
    3430231c:	d2800000 	mov	x0, #0x0                   	// #0
    34302320:	d65f03c0 	ret

0000000034302324 <putc_error>:
    34302324:	928002a0 	mov	x0, #0xffffffffffffffea    	// #-22
    34302328:	d65f03c0 	ret

000000003430232c <console_linflex_putc>:
    3430232c:	b4ffffc1 	cbz	x1, 34302324 <putc_error>
    34302330:	f9401021 	ldr	x1, [x1, #32]
    34302334:	17ffffe1 	b	343022b8 <console_linflex_core_putc>

0000000034302338 <puct_error>:
    34302338:	928002a0 	mov	x0, #0xffffffffffffffea    	// #-22
    3430233c:	d65f03c0 	ret

0000000034302340 <console_linflex_flush>:
    34302340:	f9401000 	ldr	x0, [x0, #32]
    34302344:	17ffffd3 	b	34302290 <console_linflex_core_flush>
    34302348:	d65f03c0 	ret

000000003430234c <flush_dcache_range>:
    3430234c:	b40001a1 	cbz	x1, 34302380 <exit_loop_civac>
    34302350:	d53b0023 	mrs	x3, ctr_el0
    34302354:	d3504c63 	ubfx	x3, x3, #16, #4
    34302358:	d2800082 	mov	x2, #0x4                   	// #4
    3430235c:	9ac32042 	lsl	x2, x2, x3
    34302360:	8b010001 	add	x1, x0, x1
    34302364:	d1000443 	sub	x3, x2, #0x1
    34302368:	8a230000 	bic	x0, x0, x3

000000003430236c <loop_civac>:
    3430236c:	d50b7e20 	dc	civac, x0
    34302370:	8b020000 	add	x0, x0, x2
    34302374:	eb01001f 	cmp	x0, x1
    34302378:	54ffffa3 	b.cc	3430236c <loop_civac>  // b.lo, b.ul, b.last
    3430237c:	d5033f9f 	dsb	sy

0000000034302380 <exit_loop_civac>:
    34302380:	d65f03c0 	ret

0000000034302384 <clean_dcache_range>:
    34302384:	b40001a1 	cbz	x1, 343023b8 <exit_loop_cvac>
    34302388:	d53b0023 	mrs	x3, ctr_el0
    3430238c:	d3504c63 	ubfx	x3, x3, #16, #4
    34302390:	d2800082 	mov	x2, #0x4                   	// #4
    34302394:	9ac32042 	lsl	x2, x2, x3
    34302398:	8b010001 	add	x1, x0, x1
    3430239c:	d1000443 	sub	x3, x2, #0x1
    343023a0:	8a230000 	bic	x0, x0, x3

00000000343023a4 <loop_cvac>:
    343023a4:	d50b7a20 	dc	cvac, x0
    343023a8:	8b020000 	add	x0, x0, x2
    343023ac:	eb01001f 	cmp	x0, x1
    343023b0:	54ffffa3 	b.cc	343023a4 <loop_cvac>  // b.lo, b.ul, b.last
    343023b4:	d5033f9f 	dsb	sy

00000000343023b8 <exit_loop_cvac>:
    343023b8:	d65f03c0 	ret

00000000343023bc <inv_dcache_range>:
    343023bc:	b40001a1 	cbz	x1, 343023f0 <exit_loop_ivac>
    343023c0:	d53b0023 	mrs	x3, ctr_el0
    343023c4:	d3504c63 	ubfx	x3, x3, #16, #4
    343023c8:	d2800082 	mov	x2, #0x4                   	// #4
    343023cc:	9ac32042 	lsl	x2, x2, x3
    343023d0:	8b010001 	add	x1, x0, x1
    343023d4:	d1000443 	sub	x3, x2, #0x1
    343023d8:	8a230000 	bic	x0, x0, x3

00000000343023dc <loop_ivac>:
    343023dc:	d5087620 	dc	ivac, x0
    343023e0:	8b020000 	add	x0, x0, x2
    343023e4:	eb01001f 	cmp	x0, x1
    343023e8:	54ffffa3 	b.cc	343023dc <loop_ivac>  // b.lo, b.ul, b.last
    343023ec:	d5033f9f 	dsb	sy

00000000343023f0 <exit_loop_ivac>:
    343023f0:	d65f03c0 	ret

00000000343023f4 <zeromem>:
    343023f4:	8b010002 	add	x2, x0, x1
    343023f8:	14000030 	b	343024b8 <zero_normalmem+0xbc>

00000000343023fc <zero_normalmem>:
    343023fc:	8b010002 	add	x2, x0, x1
    34302400:	d53b00e3 	mrs	x3, dczid_el0
    34302404:	d3400c63 	ubfx	x3, x3, #0, #4
    34302408:	d2800085 	mov	x5, #0x4                   	// #4
    3430240c:	9ac320a3 	lsl	x3, x5, x3
    34302410:	eb03003f 	cmp	x1, x3
    34302414:	54000523 	b.cc	343024b8 <zero_normalmem+0xbc>  // b.lo, b.ul, b.last
    34302418:	d1000461 	sub	x1, x3, #0x1
    3430241c:	ea01001f 	tst	x0, x1
    34302420:	54000260 	b.eq	3430246c <zero_normalmem+0x70>  // b.none
    34302424:	aa010004 	orr	x4, x0, x1
    34302428:	91000484 	add	x4, x4, #0x1
    3430242c:	b4000464 	cbz	x4, 343024b8 <zero_normalmem+0xbc>
    34302430:	eb02009f 	cmp	x4, x2
    34302434:	54000428 	b.hi	343024b8 <zero_normalmem+0xbc>  // b.pmore
    34302438:	f2400c1f 	tst	x0, #0xf
    3430243c:	540000e0 	b.eq	34302458 <zero_normalmem+0x5c>  // b.none
    34302440:	b2400c05 	orr	x5, x0, #0xf
    34302444:	910004a5 	add	x5, x5, #0x1
    34302448:	b4000385 	cbz	x5, 343024b8 <zero_normalmem+0xbc>
    3430244c:	3800141f 	strb	wzr, [x0], #1
    34302450:	eb05001f 	cmp	x0, x5
    34302454:	54ffffc1 	b.ne	3430244c <zero_normalmem+0x50>  // b.any
    34302458:	eb04001f 	cmp	x0, x4
    3430245c:	54000082 	b.cs	3430246c <zero_normalmem+0x70>  // b.hs, b.nlast
    34302460:	a8817c1f 	stp	xzr, xzr, [x0], #16
    34302464:	eb04001f 	cmp	x0, x4
    34302468:	54ffffc3 	b.cc	34302460 <zero_normalmem+0x64>  // b.lo, b.ul, b.last
    3430246c:	8a210044 	bic	x4, x2, x1
    34302470:	eb04001f 	cmp	x0, x4
    34302474:	540000a2 	b.cs	34302488 <zero_normalmem+0x8c>  // b.hs, b.nlast
    34302478:	d50b7420 	dc	zva, x0
    3430247c:	8b030000 	add	x0, x0, x3
    34302480:	eb04001f 	cmp	x0, x4
    34302484:	54ffffa3 	b.cc	34302478 <zero_normalmem+0x7c>  // b.lo, b.ul, b.last
    34302488:	927cec44 	and	x4, x2, #0xfffffffffffffff0
    3430248c:	eb04001f 	cmp	x0, x4
    34302490:	54000082 	b.cs	343024a0 <zero_normalmem+0xa4>  // b.hs, b.nlast
    34302494:	a8817c1f 	stp	xzr, xzr, [x0], #16
    34302498:	eb04001f 	cmp	x0, x4
    3430249c:	54ffffc3 	b.cc	34302494 <zero_normalmem+0x98>  // b.lo, b.ul, b.last
    343024a0:	eb02001f 	cmp	x0, x2
    343024a4:	54000080 	b.eq	343024b4 <zero_normalmem+0xb8>  // b.none
    343024a8:	3800141f 	strb	wzr, [x0], #1
    343024ac:	eb02001f 	cmp	x0, x2
    343024b0:	54ffffc1 	b.ne	343024a8 <zero_normalmem+0xac>  // b.any
    343024b4:	d65f03c0 	ret
    343024b8:	f2400c1f 	tst	x0, #0xf
    343024bc:	54fffe60 	b.eq	34302488 <zero_normalmem+0x8c>  // b.none
    343024c0:	b2400c04 	orr	x4, x0, #0xf
    343024c4:	91000484 	add	x4, x4, #0x1
    343024c8:	b4fffec4 	cbz	x4, 343024a0 <zero_normalmem+0xa4>
    343024cc:	eb02009f 	cmp	x4, x2
    343024d0:	54fffe82 	b.cs	343024a0 <zero_normalmem+0xa4>  // b.hs, b.nlast
    343024d4:	3800141f 	strb	wzr, [x0], #1
    343024d8:	eb04001f 	cmp	x0, x4
    343024dc:	54ffffc1 	b.ne	343024d4 <zero_normalmem+0xd8>  // b.any
    343024e0:	17ffffea 	b	34302488 <zero_normalmem+0x8c>

00000000343024e4 <disable_mmu_el3>:
    343024e4:	d28000a1 	mov	x1, #0x5                   	// #5

00000000343024e8 <do_disable_mmu_el3>:
    343024e8:	d53e1000 	mrs	x0, sctlr_el3
    343024ec:	8a210000 	bic	x0, x0, x1
    343024f0:	d51e1000 	msr	sctlr_el3, x0
    343024f4:	d5033fdf 	isb
    343024f8:	d5033f9f 	dsb	sy
    343024fc:	d65f03c0 	ret

0000000034302500 <disable_mmu_icache_el3>:
    34302500:	d28200a1 	mov	x1, #0x1005                	// #4101
    34302504:	17fffff9 	b	343024e8 <do_disable_mmu_el3>

0000000034302508 <check_erratum_cortex_a53_819472>:
    34302508:	d2800021 	mov	x1, #0x1                   	// #1
    3430250c:	14000065 	b	343026a0 <cpu_rev_var_ls>

0000000034302510 <check_erratum_cortex_a53_824069>:
    34302510:	d2800041 	mov	x1, #0x2                   	// #2
    34302514:	14000063 	b	343026a0 <cpu_rev_var_ls>

0000000034302518 <check_erratum_cortex_a53_826319>:
    34302518:	d2800041 	mov	x1, #0x2                   	// #2
    3430251c:	14000061 	b	343026a0 <cpu_rev_var_ls>

0000000034302520 <check_erratum_cortex_a53_827319>:
    34302520:	d2800041 	mov	x1, #0x2                   	// #2
    34302524:	1400005f 	b	343026a0 <cpu_rev_var_ls>

0000000034302528 <check_erratum_cortex_a53_835769>:
    34302528:	f100101f 	cmp	x0, #0x4
    3430252c:	540000c8 	b.hi	34302544 <errata_not_applies>  // b.pmore
    34302530:	f100041f 	cmp	x0, #0x1
    34302534:	d2800020 	mov	x0, #0x1                   	// #1
    34302538:	54000089 	b.ls	34302548 <exit_check_errata_835769>  // b.plast
    3430253c:	d53800c1 	mrs	x1, revidr_el1
    34302540:	36380041 	tbz	w1, #7, 34302548 <exit_check_errata_835769>

0000000034302544 <errata_not_applies>:
    34302544:	d2800000 	mov	x0, #0x0                   	// #0

0000000034302548 <exit_check_errata_835769>:
    34302548:	d65f03c0 	ret

000000003430254c <erratum_cortex_a53_836870_wa>:
    3430254c:	aa1e03e8 	mov	x8, x30
    34302550:	aa0003e7 	mov	x7, x0
    34302554:	94000006 	bl	3430256c <check_erratum_cortex_a53_836870>
    34302558:	b4000080 	cbz	x0, 34302568 <erratum_cortex_a53_836870_skip>
    3430255c:	d539f201 	mrs	x1, s3_1_c15_c2_0
    34302560:	b2680021 	orr	x1, x1, #0x1000000
    34302564:	d519f201 	msr	s3_1_c15_c2_0, x1

0000000034302568 <erratum_cortex_a53_836870_skip>:
    34302568:	d65f0100 	ret	x8

000000003430256c <check_erratum_cortex_a53_836870>:
    3430256c:	d2800081 	mov	x1, #0x4                   	// #4
    34302570:	1400004c 	b	343026a0 <cpu_rev_var_ls>

0000000034302574 <check_erratum_cortex_a53_843419>:
    34302574:	d2800021 	mov	x1, #0x1                   	// #1
    34302578:	d2800002 	mov	x2, #0x0                   	// #0
    3430257c:	f100101f 	cmp	x0, #0x4
    34302580:	9a829020 	csel	x0, x1, x2, ls  // ls = plast
    34302584:	54000081 	b.ne	34302594 <exit_check_errata_843419>  // b.any
    34302588:	d53800c3 	mrs	x3, revidr_el1
    3430258c:	36400043 	tbz	w3, #8, 34302594 <exit_check_errata_843419>
    34302590:	aa0203e0 	mov	x0, x2

0000000034302594 <exit_check_errata_843419>:
    34302594:	d65f03c0 	ret

0000000034302598 <erratum_cortex_a53_855873_wa>:
    34302598:	aa1e03e8 	mov	x8, x30
    3430259c:	aa0003e7 	mov	x7, x0
    343025a0:	94000006 	bl	343025b8 <check_erratum_cortex_a53_855873>
    343025a4:	b4000080 	cbz	x0, 343025b4 <erratum_cortex_a53_855873_skip>
    343025a8:	d539f201 	mrs	x1, s3_1_c15_c2_0
    343025ac:	b2540021 	orr	x1, x1, #0x100000000000
    343025b0:	d519f201 	msr	s3_1_c15_c2_0, x1

00000000343025b4 <erratum_cortex_a53_855873_skip>:
    343025b4:	d65f0100 	ret	x8

00000000343025b8 <check_erratum_cortex_a53_855873>:
    343025b8:	d2800061 	mov	x1, #0x3                   	// #3
    343025bc:	1400003e 	b	343026b4 <cpu_rev_var_hs>

00000000343025c0 <check_erratum_cortex_a53_1530924>:
    343025c0:	d2800020 	mov	x0, #0x1                   	// #1
    343025c4:	d65f03c0 	ret

00000000343025c8 <check_erratum_cortex_a53_50481>:
    343025c8:	d2800081 	mov	x1, #0x4                   	// #4
    343025cc:	14000035 	b	343026a0 <cpu_rev_var_ls>

00000000343025d0 <check_erratum_cortex_a53_50543>:
    343025d0:	d2800081 	mov	x1, #0x4                   	// #4
    343025d4:	14000033 	b	343026a0 <cpu_rev_var_ls>

00000000343025d8 <cortex_a53_reset_func>:
    343025d8:	aa1e03ef 	mov	x15, x30
    343025dc:	9400002d 	bl	34302690 <cpu_get_rev_var>
    343025e0:	aa0003ee 	mov	x14, x0
    343025e4:	b00000ac 	adrp	x12, 34317000 <reset_table+0x2d8>
    343025e8:	9125c18c 	add	x12, x12, #0x970
    343025ec:	b00000ad 	adrp	x13, 34317000 <reset_table+0x2d8>
    343025f0:	9129e1ad 	add	x13, x13, #0xa78

00000000343025f4 <errata_begin>:
    343025f4:	eb0d019f 	cmp	x12, x13
    343025f8:	54000120 	b.eq	3430261c <errata_end>  // b.none
    343025fc:	f940018a 	ldr	x10, [x12]
    34302600:	3940598b 	ldrb	w11, [x12, #22]
    34302604:	b400008b 	cbz	x11, 34302614 <errata_begin+0x20>
    34302608:	b400006a 	cbz	x10, 34302614 <errata_begin+0x20>
    3430260c:	aa0e03e0 	mov	x0, x14
    34302610:	d63f0140 	blr	x10
    34302614:	9100618c 	add	x12, x12, #0x18
    34302618:	17fffff7 	b	343025f4 <errata_begin>

000000003430261c <errata_end>:
    3430261c:	d539f221 	mrs	x1, s3_1_c15_c2_1
    34302620:	b27a0021 	orr	x1, x1, #0x40
    34302624:	d519f221 	msr	s3_1_c15_c2_1, x1
    34302628:	d5033fdf 	isb
    3430262c:	d65f01e0 	ret	x15

0000000034302630 <reset_handler>:
    34302630:	aa1e03f3 	mov	x19, x30
    34302634:	9400004f 	bl	34302770 <plat_reset_handler>
    34302638:	94000006 	bl	34302650 <get_cpu_ops_ptr>
    3430263c:	f9400402 	ldr	x2, [x0, #8]
    34302640:	aa1303fe 	mov	x30, x19
    34302644:	b4000042 	cbz	x2, 3430264c <reset_handler+0x1c>
    34302648:	d61f0040 	br	x2
    3430264c:	d65f03c0 	ret

0000000034302650 <get_cpu_ops_ptr>:
    34302650:	d5380002 	mrs	x2, midr_el1
    34302654:	d29ffe03 	mov	x3, #0xfff0                	// #65520
    34302658:	f2bfe003 	movk	x3, #0xff00, lsl #16
    3430265c:	0a030042 	and	w2, w2, w3
    34302660:	100ab905 	adr	x5, 34317d80 <__CPU_OPS_END__>
    34302664:	d2800000 	mov	x0, #0x0                   	// #0
    34302668:	100ab6c4 	adr	x4, 34317d40 <__CPU_OPS_START__>
    3430266c:	eb05009f 	cmp	x4, x5
    34302670:	540000e0 	b.eq	3430268c <search_def_ptr>  // b.none
    34302674:	f8440481 	ldr	x1, [x4], #64
    34302678:	0a030021 	and	w1, w1, w3
    3430267c:	6b02003f 	cmp	w1, w2
    34302680:	54ffff61 	b.ne	3430266c <get_cpu_ops_ptr+0x1c>  // b.any
    34302684:	d1010080 	sub	x0, x4, #0x40
    34302688:	d65f03c0 	ret

000000003430268c <search_def_ptr>:
    3430268c:	d65f03c0 	ret

0000000034302690 <cpu_get_rev_var>:
    34302690:	d5380001 	mrs	x1, midr_el1
    34302694:	d3505c20 	ubfx	x0, x1, #16, #8
    34302698:	b3400c20 	bfxil	x0, x1, #0, #4
    3430269c:	d65f03c0 	ret

00000000343026a0 <cpu_rev_var_ls>:
    343026a0:	d2800022 	mov	x2, #0x1                   	// #1
    343026a4:	d2800003 	mov	x3, #0x0                   	// #0
    343026a8:	eb01001f 	cmp	x0, x1
    343026ac:	9a839040 	csel	x0, x2, x3, ls  // ls = plast
    343026b0:	d65f03c0 	ret

00000000343026b4 <cpu_rev_var_hs>:
    343026b4:	d2800022 	mov	x2, #0x1                   	// #1
    343026b8:	d2800003 	mov	x3, #0x0                   	// #0
    343026bc:	eb01001f 	cmp	x0, x1
    343026c0:	9a832040 	csel	x0, x2, x3, cs  // cs = hs, nlast
    343026c4:	d65f03c0 	ret

00000000343026c8 <enable_mmu_direct_el3>:
    343026c8:	d50e871f 	tlbi	alle3
    343026cc:	aa0003e7 	mov	x7, x0
    343026d0:	900001a0 	adrp	x0, 34336000 <mbr_sector+0xe0>
    343026d4:	91048000 	add	x0, x0, #0x120
    343026d8:	f9400001 	ldr	x1, [x0]
    343026dc:	d51ea201 	msr	mair_el3, x1
    343026e0:	f9400402 	ldr	x2, [x0, #8]
    343026e4:	d51e2042 	msr	tcr_el3, x2
    343026e8:	f9400803 	ldr	x3, [x0, #16]
    343026ec:	d51e2003 	msr	ttbr0_el3, x3
    343026f0:	d5033b9f 	dsb	ish
    343026f4:	d5033fdf 	isb
    343026f8:	d53e1004 	mrs	x4, sctlr_el3
    343026fc:	d28000a5 	mov	x5, #0x5                   	// #5
    34302700:	f2a00105 	movk	x5, #0x8, lsl #16
    34302704:	aa050084 	orr	x4, x4, x5
    34302708:	927df885 	and	x5, x4, #0xfffffffffffffffb
    3430270c:	f24000ff 	tst	x7, #0x1
    34302710:	9a8410a4 	csel	x4, x5, x4, ne  // ne = any
    34302714:	d51e1004 	msr	sctlr_el3, x4
    34302718:	d5033fdf 	isb
    3430271c:	d65f03c0 	ret

0000000034302720 <plat_report_exception>:
    34302720:	d65f03c0 	ret

0000000034302724 <plat_set_my_stack>:
    34302724:	90000180 	adrp	x0, 34332000 <__STACKS_START__+0x36c0>
    34302728:	91250000 	add	x0, x0, #0x940
    3430272c:	9100001f 	mov	sp, x0
    34302730:	d65f03c0 	ret

0000000034302734 <plat_crash_console_init>:
    34302734:	d2900000 	mov	x0, #0x8000                	// #32768
    34302738:	f2a80380 	movk	x0, #0x401c, lsl #16
    3430273c:	d28b2801 	mov	x1, #0x5940                	// #22848
    34302740:	f2a0ee61 	movk	x1, #0x773, lsl #16
    34302744:	d2984002 	mov	x2, #0xc200                	// #49664
    34302748:	f2a00022 	movk	x2, #0x1, lsl #16
    3430274c:	17fffeae 	b	34302204 <console_linflex_core_init>

0000000034302750 <plat_crash_console_putc>:
    34302750:	d2900001 	mov	x1, #0x8000                	// #32768
    34302754:	f2a80381 	movk	x1, #0x401c, lsl #16
    34302758:	17fffed8 	b	343022b8 <console_linflex_core_putc>
    3430275c:	d65f03c0 	ret

0000000034302760 <plat_crash_console_flush>:
    34302760:	d2900000 	mov	x0, #0x8000                	// #32768
    34302764:	f2a80380 	movk	x0, #0x401c, lsl #16
    34302768:	17fffeca 	b	34302290 <console_linflex_core_flush>
    3430276c:	d65f03c0 	ret

0000000034302770 <plat_reset_handler>:
    34302770:	aa1e03f0 	mov	x16, x30
    34302774:	9400001e 	bl	343027ec <reset_registers_for_lockstep>
    34302778:	94000006 	bl	34302790 <s32_ncore_isol_cluster0>
    3430277c:	aa1003fe 	mov	x30, x16
    34302780:	d65f03c0 	ret

0000000034302784 <plat_secondary_cold_boot_setup>:
    34302784:	d65f03c0 	ret

0000000034302788 <plat_panic_handler>:
    34302788:	d503207f 	wfi
    3430278c:	17ffffff 	b	34302788 <plat_panic_handler>

0000000034302790 <s32_ncore_isol_cluster0>:
    34302790:	d2aa0808 	mov	x8, #0x50400000            	// #1346371584
    34302794:	f9400109 	ldr	x9, [x8]
    34302798:	d280002a 	mov	x10, #0x1                   	// #1
    3430279c:	d37ff94a 	lsl	x10, x10, #1
    343027a0:	aa0a0129 	orr	x9, x9, x10
    343027a4:	f9000109 	str	x9, [x8]
    343027a8:	d65f03c0 	ret

00000000343027ac <plat_is_my_cpu_primary>:
    343027ac:	aa1e03e7 	mov	x7, x30
    343027b0:	94000005 	bl	343027c4 <plat_my_core_pos>
    343027b4:	f100001f 	cmp	x0, #0x0
    343027b8:	9a9f17e0 	cset	x0, eq  // eq = none
    343027bc:	aa0703fe 	mov	x30, x7
    343027c0:	d65f03c0 	ret

00000000343027c4 <plat_my_core_pos>:
    343027c4:	aa1e03e8 	mov	x8, x30
    343027c8:	d53800a0 	mrs	x0, mpidr_el1
    343027cc:	94000003 	bl	343027d8 <s32_core_pos_by_mpidr>
    343027d0:	aa0803fe 	mov	x30, x8
    343027d4:	d65f03c0 	ret

00000000343027d8 <s32_core_pos_by_mpidr>:
    343027d8:	92401c01 	and	x1, x0, #0xff
    343027dc:	92781c00 	and	x0, x0, #0xff00
    343027e0:	d348fc00 	lsr	x0, x0, #8
    343027e4:	8b000820 	add	x0, x1, x0, lsl #2
    343027e8:	d65f03c0 	ret

00000000343027ec <reset_registers_for_lockstep>:
    343027ec:	d2800000 	mov	x0, #0x0                   	// #0
    343027f0:	d518e100 	msr	cntkctl_el1, x0
    343027f4:	d51be200 	msr	cntp_tval_el0, x0
    343027f8:	d51be220 	msr	cntp_ctl_el0, x0
    343027fc:	d51be240 	msr	cntp_cval_el0, x0
    34302800:	d51be300 	msr	cntv_tval_el0, x0
    34302804:	d51be340 	msr	cntv_cval_el0, x0
    34302808:	d51be320 	msr	cntv_ctl_el0, x0
    3430280c:	d51ce060 	msr	cntvoff_el2, x0
    34302810:	d51ce100 	msr	cnthctl_el2, x0
    34302814:	d51ce200 	msr	cnthp_tval_el2, x0
    34302818:	d51ce220 	msr	cnthp_ctl_el2, x0
    3430281c:	d51ce240 	msr	cnthp_cval_el2, x0
    34302820:	d51fe200 	msr	cntps_tval_el1, x0
    34302824:	d51fe220 	msr	cntps_ctl_el1, x0
    34302828:	d51fe240 	msr	cntps_cval_el1, x0
    3430282c:	d2800001 	mov	x1, #0x0                   	// #0
    34302830:	d2800002 	mov	x2, #0x0                   	// #0
    34302834:	d2800003 	mov	x3, #0x0                   	// #0
    34302838:	d2800004 	mov	x4, #0x0                   	// #0
    3430283c:	d2800005 	mov	x5, #0x0                   	// #0
    34302840:	d2800006 	mov	x6, #0x0                   	// #0
    34302844:	d2800007 	mov	x7, #0x0                   	// #0
    34302848:	d2800008 	mov	x8, #0x0                   	// #0
    3430284c:	d2800009 	mov	x9, #0x0                   	// #0
    34302850:	d280000a 	mov	x10, #0x0                   	// #0
    34302854:	d280000b 	mov	x11, #0x0                   	// #0
    34302858:	d280000c 	mov	x12, #0x0                   	// #0
    3430285c:	d280000d 	mov	x13, #0x0                   	// #0
    34302860:	d280000e 	mov	x14, #0x0                   	// #0
    34302864:	d280000f 	mov	x15, #0x0                   	// #0
    34302868:	d2800011 	mov	x17, #0x0                   	// #0
    3430286c:	d2800012 	mov	x18, #0x0                   	// #0
    34302870:	d2800014 	mov	x20, #0x0                   	// #0
    34302874:	d2800015 	mov	x21, #0x0                   	// #0
    34302878:	d2800016 	mov	x22, #0x0                   	// #0
    3430287c:	d2800017 	mov	x23, #0x0                   	// #0
    34302880:	d2800018 	mov	x24, #0x0                   	// #0
    34302884:	d2800019 	mov	x25, #0x0                   	// #0
    34302888:	d280001a 	mov	x26, #0x0                   	// #0
    3430288c:	d280001b 	mov	x27, #0x0                   	// #0
    34302890:	d280001c 	mov	x28, #0x0                   	// #0
    34302894:	d280001d 	mov	x29, #0x0                   	// #0
    34302898:	2f00e400 	movi	d0, #0x0
    3430289c:	2f00e401 	movi	d1, #0x0
    343028a0:	2f00e402 	movi	d2, #0x0
    343028a4:	2f00e403 	movi	d3, #0x0
    343028a8:	2f00e404 	movi	d4, #0x0
    343028ac:	2f00e405 	movi	d5, #0x0
    343028b0:	2f00e406 	movi	d6, #0x0
    343028b4:	2f00e407 	movi	d7, #0x0
    343028b8:	2f00e408 	movi	d8, #0x0
    343028bc:	2f00e409 	movi	d9, #0x0
    343028c0:	2f00e40a 	movi	d10, #0x0
    343028c4:	2f00e40b 	movi	d11, #0x0
    343028c8:	2f00e40c 	movi	d12, #0x0
    343028cc:	2f00e40d 	movi	d13, #0x0
    343028d0:	2f00e40e 	movi	d14, #0x0
    343028d4:	2f00e40f 	movi	d15, #0x0
    343028d8:	2f00e410 	movi	d16, #0x0
    343028dc:	2f00e411 	movi	d17, #0x0
    343028e0:	2f00e412 	movi	d18, #0x0
    343028e4:	2f00e413 	movi	d19, #0x0
    343028e8:	2f00e414 	movi	d20, #0x0
    343028ec:	2f00e415 	movi	d21, #0x0
    343028f0:	2f00e416 	movi	d22, #0x0
    343028f4:	2f00e417 	movi	d23, #0x0
    343028f8:	2f00e418 	movi	d24, #0x0
    343028fc:	2f00e419 	movi	d25, #0x0
    34302900:	2f00e41a 	movi	d26, #0x0
    34302904:	2f00e41b 	movi	d27, #0x0
    34302908:	2f00e41c 	movi	d28, #0x0
    3430290c:	2f00e41d 	movi	d29, #0x0
    34302910:	2f00e41e 	movi	d30, #0x0
    34302914:	2f00e41f 	movi	d31, #0x0
    34302918:	d65f03c0 	ret

000000003430291c <_s32_sram_clr>:
    3430291c:	910003e9 	mov	x9, sp
    34302920:	9000016a 	adrp	x10, 3432e000 <pie_cfg+0xe08>
    34302924:	9124214a 	add	x10, x10, #0x908
    34302928:	a9004550 	stp	x16, x17, [x10]
    3430292c:	a901795d 	stp	x29, x30, [x10, #16]
    34302930:	529bd5aa 	mov	w10, #0xdead                	// #57005
    34302934:	f00000a9 	adrp	x9, 34319000 <__RO_END__>
    34302938:	91000129 	add	x9, x9, #0x0
    3430293c:	b900012a 	str	w10, [x9]
    34302940:	91100129 	add	x9, x9, #0x400
    34302944:	9100013f 	mov	sp, x9
    34302948:	9400335a 	bl	3430f6b0 <s32_sram_clear>
    3430294c:	529bd5aa 	mov	w10, #0xdead                	// #57005
    34302950:	f00000a9 	adrp	x9, 34319000 <__RO_END__>
    34302954:	91000129 	add	x9, x9, #0x0
    34302958:	79400129 	ldrh	w9, [x9]
    3430295c:	6b0a013f 	cmp	w9, w10
    34302960:	54fff141 	b.ne	34302788 <plat_panic_handler>  // b.any
    34302964:	9000016a 	adrp	x10, 3432e000 <pie_cfg+0xe08>
    34302968:	9124214a 	add	x10, x10, #0x908
    3430296c:	a9404550 	ldp	x16, x17, [x10]
    34302970:	a941795d 	ldp	x29, x30, [x10, #16]
    34302974:	9100013f 	mov	sp, x9
    34302978:	d65f03c0 	ret

000000003430297c <__TEXT_RESIDENT_END__>:
    3430297c:	00000000 	udf	#0

0000000034302980 <bl2_arch_setup>:
    34302980:	d2a00600 	mov	x0, #0x300000              	// #3145728
    34302984:	d5181040 	msr	cpacr_el1, x0
    34302988:	d65f03c0 	ret
    3430298c:	00000000 	udf	#0

0000000034302990 <bl2_load_images>:
    34302990:	a9bd7bfd 	stp	x29, x30, [sp, #-48]!
    34302994:	910003fd 	mov	x29, sp
    34302998:	a90153f3 	stp	x19, x20, [sp, #16]
    3430299c:	94002e69 	bl	3430e340 <plat_get_bl_image_load_info>
    343029a0:	f9400413 	ldr	x19, [x0, #8]
    343029a4:	b40003b3 	cbz	x19, 34302a18 <bl2_load_images+0x88>
    343029a8:	52800014 	mov	w20, #0x0                   	// #0
    343029ac:	f90013f5 	str	x21, [sp, #32]
    343029b0:	14000012 	b	343029f8 <bl2_load_images+0x68>
    343029b4:	b9400260 	ldr	w0, [x19]
    343029b8:	94002f32 	bl	3430e680 <bl2_plat_handle_pre_image_load>
    343029bc:	2a0003f5 	mov	w21, w0
    343029c0:	35000520 	cbnz	w0, 34302a64 <bl2_load_images+0xd4>
    343029c4:	f9400661 	ldr	x1, [x19, #8]
    343029c8:	b9400260 	ldr	w0, [x19]
    343029cc:	b9400422 	ldr	w2, [x1, #4]
    343029d0:	370800a2 	tbnz	w2, #1, 343029e4 <bl2_load_images+0x54>
    343029d4:	94000057 	bl	34302b30 <load_auth_image>
    343029d8:	2a0003f5 	mov	w21, w0
    343029dc:	35000500 	cbnz	w0, 34302a7c <bl2_load_images+0xec>
    343029e0:	b9400260 	ldr	w0, [x19]
    343029e4:	94002f3f 	bl	3430e6e0 <bl2_plat_handle_post_image_load>
    343029e8:	2a0003f5 	mov	w21, w0
    343029ec:	35000300 	cbnz	w0, 34302a4c <bl2_load_images+0xbc>
    343029f0:	f9400a73 	ldr	x19, [x19, #16]
    343029f4:	b4000113 	cbz	x19, 34302a14 <bl2_load_images+0x84>
    343029f8:	f9400660 	ldr	x0, [x19, #8]
    343029fc:	b9400400 	ldr	w0, [x0, #4]
    34302a00:	3617fda0 	tbz	w0, #2, 343029b4 <bl2_load_images+0x24>
    34302a04:	35fffd94 	cbnz	w20, 343029b4 <bl2_load_images+0x24>
    34302a08:	52800034 	mov	w20, #0x1                   	// #1
    34302a0c:	94002f19 	bl	3430e670 <bl2_platform_setup>
    34302a10:	17ffffe9 	b	343029b4 <bl2_load_images+0x24>
    34302a14:	f94013f5 	ldr	x21, [sp, #32]
    34302a18:	94002e4e 	bl	3430e350 <plat_get_next_bl_params>
    34302a1c:	aa0003f3 	mov	x19, x0
    34302a20:	f9400400 	ldr	x0, [x0, #8]
    34302a24:	f9400800 	ldr	x0, [x0, #16]
    34302a28:	f9400c01 	ldr	x1, [x0, #24]
    34302a2c:	b5000041 	cbnz	x1, 34302a34 <bl2_load_images+0xa4>
    34302a30:	f9000c13 	str	x19, [x0, #24]
    34302a34:	94002e4b 	bl	3430e360 <plat_flush_next_bl_params>
    34302a38:	f9400660 	ldr	x0, [x19, #8]
    34302a3c:	a94153f3 	ldp	x19, x20, [sp, #16]
    34302a40:	a8c37bfd 	ldp	x29, x30, [sp], #48
    34302a44:	f9400800 	ldr	x0, [x0, #16]
    34302a48:	d65f03c0 	ret
    34302a4c:	2a0003e1 	mov	w1, w0
    34302a50:	b0000080 	adrp	x0, 34313000 <vprintf+0x520>
    34302a54:	9126e000 	add	x0, x0, #0x9b8
    34302a58:	940001d6 	bl	343031b0 <tf_log>
    34302a5c:	2a1503e0 	mov	w0, w21
    34302a60:	94002cf0 	bl	3430de20 <plat_error_handler>
    34302a64:	2a0003e1 	mov	w1, w0
    34302a68:	b0000080 	adrp	x0, 34313000 <vprintf+0x520>
    34302a6c:	91258000 	add	x0, x0, #0x960
    34302a70:	940001d0 	bl	343031b0 <tf_log>
    34302a74:	2a1503e0 	mov	w0, w21
    34302a78:	94002cea 	bl	3430de20 <plat_error_handler>
    34302a7c:	b9400261 	ldr	w1, [x19]
    34302a80:	2a0003e2 	mov	w2, w0
    34302a84:	b0000080 	adrp	x0, 34313000 <vprintf+0x520>
    34302a88:	91264000 	add	x0, x0, #0x990
    34302a8c:	940001c9 	bl	343031b0 <tf_log>
    34302a90:	2a1503e0 	mov	w0, w21
    34302a94:	94002ce3 	bl	3430de20 <plat_error_handler>
	...

0000000034302aa0 <bl2_el3_setup>:
    34302aa0:	a9bf7bfd 	stp	x29, x30, [sp, #-16]!
    34302aa4:	910003fd 	mov	x29, sp
    34302aa8:	9400353e 	bl	3430ffa0 <bl2_el3_early_platform_setup>
    34302aac:	a8c17bfd 	ldp	x29, x30, [sp], #16
    34302ab0:	140035dc 	b	34310220 <bl2_el3_plat_arch_setup>
	...

0000000034302ac0 <bl2_main>:
    34302ac0:	a9be7bfd 	stp	x29, x30, [sp, #-32]!
    34302ac4:	b0000081 	adrp	x1, 34313000 <vprintf+0x520>
    34302ac8:	9124e021 	add	x1, x1, #0x938
    34302acc:	910003fd 	mov	x29, sp
    34302ad0:	f9000bf3 	str	x19, [sp, #16]
    34302ad4:	b0000093 	adrp	x19, 34313000 <vprintf+0x520>
    34302ad8:	9127a273 	add	x19, x19, #0x9e8
    34302adc:	aa1303e0 	mov	x0, x19
    34302ae0:	940001b4 	bl	343031b0 <tf_log>
    34302ae4:	aa1303e0 	mov	x0, x19
    34302ae8:	b0000081 	adrp	x1, 34313000 <vprintf+0x520>
    34302aec:	91246021 	add	x1, x1, #0x918
    34302af0:	940001b0 	bl	343031b0 <tf_log>
    34302af4:	97ffffa3 	bl	34302980 <bl2_arch_setup>
    34302af8:	94002cce 	bl	3430de30 <bl2_plat_preload_setup>
    34302afc:	97ffffa5 	bl	34302990 <bl2_load_images>
    34302b00:	aa0003f3 	mov	x19, x0
    34302b04:	b0000080 	adrp	x0, 34313000 <vprintf+0x520>
    34302b08:	9127e000 	add	x0, x0, #0x9f8
    34302b0c:	940001a9 	bl	343031b0 <tf_log>
    34302b10:	aa1303e0 	mov	x0, x19
    34302b14:	9400004f 	bl	34302c50 <print_entry_point_info>
    34302b18:	94000222 	bl	343033a0 <console_flush>
    34302b1c:	aa1303e0 	mov	x0, x19
    34302b20:	f9400bf3 	ldr	x19, [sp, #16]
    34302b24:	a8c27bfd 	ldp	x29, x30, [sp], #32
    34302b28:	17fffd74 	b	343020f8 <bl2_run_next_image>
    34302b2c:	00000000 	udf	#0

0000000034302b30 <load_auth_image>:
    34302b30:	a9ba7bfd 	stp	x29, x30, [sp, #-96]!
    34302b34:	910003fd 	mov	x29, sp
    34302b38:	a90153f3 	stp	x19, x20, [sp, #16]
    34302b3c:	aa0103f4 	mov	x20, x1
    34302b40:	a9025bf5 	stp	x21, x22, [sp, #32]
    34302b44:	2a0003f5 	mov	w21, w0
    34302b48:	910123e2 	add	x2, sp, #0x48
    34302b4c:	9100e3e1 	add	x1, sp, #0x38
    34302b50:	2a1503e0 	mov	w0, w21
    34302b54:	f9400696 	ldr	x22, [x20, #8]
    34302b58:	94003396 	bl	3430f9b0 <plat_get_image_source>
    34302b5c:	910103e2 	add	x2, sp, #0x40
    34302b60:	2a0003f3 	mov	w19, w0
    34302b64:	35000320 	cbnz	w0, 34302bc8 <load_auth_image+0x98>
    34302b68:	f9401fe0 	ldr	x0, [sp, #56]
    34302b6c:	f94027e1 	ldr	x1, [sp, #72]
    34302b70:	94000540 	bl	34304070 <io_open>
    34302b74:	2a0003f3 	mov	w19, w0
    34302b78:	910143e1 	add	x1, sp, #0x50
    34302b7c:	35000260 	cbnz	w0, 34302bc8 <load_auth_image+0x98>
    34302b80:	f94023e0 	ldr	x0, [sp, #64]
    34302b84:	9400058f 	bl	343041c0 <io_size>
    34302b88:	2a0003f3 	mov	w19, w0
    34302b8c:	350002e0 	cbnz	w0, 34302be8 <load_auth_image+0xb8>
    34302b90:	f9402be4 	ldr	x4, [sp, #80]
    34302b94:	f94023e0 	ldr	x0, [sp, #64]
    34302b98:	b4000364 	cbz	x4, 34302c04 <load_auth_image+0xd4>
    34302b9c:	b9401685 	ldr	w5, [x20, #20]
    34302ba0:	910163e3 	add	x3, sp, #0x58
    34302ba4:	aa0403e2 	mov	x2, x4
    34302ba8:	aa1603e1 	mov	x1, x22
    34302bac:	eb05009f 	cmp	x4, x5
    34302bb0:	54000409 	b.ls	34302c30 <load_auth_image+0x100>  // b.plast
    34302bb4:	94000593 	bl	34304200 <io_close>
    34302bb8:	12800353 	mov	w19, #0xffffffe5            	// #-27
    34302bbc:	f9401fe0 	ldr	x0, [sp, #56]
    34302bc0:	94000524 	bl	34304050 <io_dev_close>
    34302bc4:	d503201f 	nop
    34302bc8:	94002c9e 	bl	3430de40 <plat_try_next_boot_source>
    34302bcc:	35fffbe0 	cbnz	w0, 34302b48 <load_auth_image+0x18>
    34302bd0:	2a1303e0 	mov	w0, w19
    34302bd4:	a94153f3 	ldp	x19, x20, [sp, #16]
    34302bd8:	a9425bf5 	ldp	x21, x22, [sp, #32]
    34302bdc:	a8c67bfd 	ldp	x29, x30, [sp], #96
    34302be0:	d65f03c0 	ret
    34302be4:	2a0003f3 	mov	w19, w0
    34302be8:	f94023e0 	ldr	x0, [sp, #64]
    34302bec:	94000585 	bl	34304200 <io_close>
    34302bf0:	f9401fe0 	ldr	x0, [sp, #56]
    34302bf4:	94000517 	bl	34304050 <io_dev_close>
    34302bf8:	94002c92 	bl	3430de40 <plat_try_next_boot_source>
    34302bfc:	35fffa60 	cbnz	w0, 34302b48 <load_auth_image+0x18>
    34302c00:	17fffff4 	b	34302bd0 <load_auth_image+0xa0>
    34302c04:	9400057f 	bl	34304200 <io_close>
    34302c08:	f9401fe0 	ldr	x0, [sp, #56]
    34302c0c:	94000511 	bl	34304050 <io_dev_close>
    34302c10:	b9401281 	ldr	w1, [x20, #16]
    34302c14:	f9400680 	ldr	x0, [x20, #8]
    34302c18:	97fffdcd 	bl	3430234c <flush_dcache_range>
    34302c1c:	2a1303e0 	mov	w0, w19
    34302c20:	a94153f3 	ldp	x19, x20, [sp, #16]
    34302c24:	a9425bf5 	ldp	x21, x22, [sp, #32]
    34302c28:	a8c67bfd 	ldp	x29, x30, [sp], #96
    34302c2c:	d65f03c0 	ret
    34302c30:	b9001284 	str	w4, [x20, #16]
    34302c34:	9400056b 	bl	343041e0 <io_read>
    34302c38:	35fffd60 	cbnz	w0, 34302be4 <load_auth_image+0xb4>
    34302c3c:	f94023e0 	ldr	x0, [sp, #64]
    34302c40:	94000570 	bl	34304200 <io_close>
    34302c44:	f9401fe0 	ldr	x0, [sp, #56]
    34302c48:	94000502 	bl	34304050 <io_dev_close>
    34302c4c:	17fffff1 	b	34302c10 <load_auth_image+0xe0>

0000000034302c50 <print_entry_point_info>:
    34302c50:	d65f03c0 	ret
	...

0000000034302c60 <flush_bl_params_desc>:
    34302c60:	a9bf7bfd 	stp	x29, x30, [sp, #-16]!
    34302c64:	90000162 	adrp	x2, 3432e000 <pie_cfg+0xe08>
    34302c68:	52801701 	mov	w1, #0xb8                  	// #184
    34302c6c:	910003fd 	mov	x29, sp
    34302c70:	b9492c42 	ldr	w2, [x2, #2348]
    34302c74:	90000160 	adrp	x0, 3432e000 <pie_cfg+0xe08>
    34302c78:	f9448000 	ldr	x0, [x0, #2304]
    34302c7c:	9ba17c41 	umull	x1, w2, w1
    34302c80:	97fffdb3 	bl	3430234c <flush_dcache_range>
    34302c84:	a8c17bfd 	ldp	x29, x30, [sp], #16
    34302c88:	90000180 	adrp	x0, 34332000 <__STACKS_START__+0x36c0>
    34302c8c:	d2800201 	mov	x1, #0x10                  	// #16
    34302c90:	91306000 	add	x0, x0, #0xc18
    34302c94:	17fffdae 	b	3430234c <flush_dcache_range>
	...

0000000034302ca0 <get_bl_mem_params_node>:
    34302ca0:	90000161 	adrp	x1, 3432e000 <pie_cfg+0xe08>
    34302ca4:	b9492c24 	ldr	w4, [x1, #2348]
    34302ca8:	34000224 	cbz	w4, 34302cec <get_bl_mem_params_node+0x4c>
    34302cac:	90000162 	adrp	x2, 3432e000 <pie_cfg+0xe08>
    34302cb0:	52800001 	mov	w1, #0x0                   	// #0
    34302cb4:	f9448045 	ldr	x5, [x2, #2304]
    34302cb8:	aa0503e2 	mov	x2, x5
    34302cbc:	14000004 	b	34302ccc <get_bl_mem_params_node+0x2c>
    34302cc0:	11000421 	add	w1, w1, #0x1
    34302cc4:	6b04003f 	cmp	w1, w4
    34302cc8:	54000120 	b.eq	34302cec <get_bl_mem_params_node+0x4c>  // b.none
    34302ccc:	b9400043 	ldr	w3, [x2]
    34302cd0:	9102e042 	add	x2, x2, #0xb8
    34302cd4:	6b03001f 	cmp	w0, w3
    34302cd8:	54ffff41 	b.ne	34302cc0 <get_bl_mem_params_node+0x20>  // b.any
    34302cdc:	37f80081 	tbnz	w1, #31, 34302cec <get_bl_mem_params_node+0x4c>
    34302ce0:	52801700 	mov	w0, #0xb8                  	// #184
    34302ce4:	9b201420 	smaddl	x0, w1, w0, x5
    34302ce8:	d65f03c0 	ret
    34302cec:	d2800000 	mov	x0, #0x0                   	// #0
    34302cf0:	d65f03c0 	ret
	...

0000000034302d00 <get_bl_load_info_from_mem_params_desc>:
    34302d00:	90000160 	adrp	x0, 3432e000 <pie_cfg+0xe08>
    34302d04:	b9492c06 	ldr	w6, [x0, #2348]
    34302d08:	34000406 	cbz	w6, 34302d88 <get_bl_load_info_from_mem_params_desc+0x88>
    34302d0c:	90000162 	adrp	x2, 3432e000 <pie_cfg+0xe08>
    34302d10:	90000181 	adrp	x1, 34332000 <__STACKS_START__+0x36c0>
    34302d14:	91302020 	add	x0, x1, #0xc08
    34302d18:	d2804083 	mov	x3, #0x204                 	// #516
    34302d1c:	f9448042 	ldr	x2, [x2, #2304]
    34302d20:	f2a00203 	movk	x3, #0x10, lsl #16
    34302d24:	f9060423 	str	x3, [x1, #3080]
    34302d28:	52800003 	mov	w3, #0x0                   	// #0
    34302d2c:	91002041 	add	x1, x2, #0x8
    34302d30:	91020042 	add	x2, x2, #0x80
    34302d34:	f9000402 	str	x2, [x0, #8]
    34302d38:	b85f8025 	ldur	w5, [x1, #-8]
    34302d3c:	11000463 	add	w3, w3, #0x1
    34302d40:	b9000045 	str	w5, [x2]
    34302d44:	9104c024 	add	x4, x1, #0x130
    34302d48:	f9000441 	str	x1, [x2, #8]
    34302d4c:	9102e021 	add	x1, x1, #0xb8
    34302d50:	6b0300df 	cmp	w6, w3
    34302d54:	54000169 	b.ls	34302d80 <get_bl_load_info_from_mem_params_desc+0x80>  // b.plast
    34302d58:	f9000844 	str	x4, [x2, #16]
    34302d5c:	aa0403e2 	mov	x2, x4
    34302d60:	b85f8025 	ldur	w5, [x1, #-8]
    34302d64:	11000463 	add	w3, w3, #0x1
    34302d68:	9104c024 	add	x4, x1, #0x130
    34302d6c:	b9000045 	str	w5, [x2]
    34302d70:	f9000441 	str	x1, [x2, #8]
    34302d74:	9102e021 	add	x1, x1, #0xb8
    34302d78:	6b0300df 	cmp	w6, w3
    34302d7c:	54fffee8 	b.hi	34302d58 <get_bl_load_info_from_mem_params_desc+0x58>  // b.pmore
    34302d80:	54fffdc1 	b.ne	34302d38 <get_bl_load_info_from_mem_params_desc+0x38>  // b.any
    34302d84:	d65f03c0 	ret
    34302d88:	d2800000 	mov	x0, #0x0                   	// #0
    34302d8c:	d65f03c0 	ret

0000000034302d90 <get_next_bl_params_from_mem_params_desc>:
    34302d90:	90000160 	adrp	x0, 3432e000 <pie_cfg+0xe08>
    34302d94:	b9492c05 	ldr	w5, [x0, #2348]
    34302d98:	34000885 	cbz	w5, 34302ea8 <get_next_bl_params_from_mem_params_desc+0x118>
    34302d9c:	90000160 	adrp	x0, 3432e000 <pie_cfg+0xe08>
    34302da0:	510004a3 	sub	w3, w5, #0x1
    34302da4:	52801702 	mov	w2, #0xb8                  	// #184
    34302da8:	d2c00304 	mov	x4, #0x1800000000          	// #103079215104
    34302dac:	f9448006 	ldr	x6, [x0, #2304]
    34302db0:	9102e0c1 	add	x1, x6, #0xb8
    34302db4:	aa0603e0 	mov	x0, x6
    34302db8:	9ba20463 	umaddl	x3, w3, w2, x1
    34302dbc:	d503201f 	nop
    34302dc0:	f9401001 	ldr	x1, [x0, #32]
    34302dc4:	aa0003e2 	mov	x2, x0
    34302dc8:	9102e000 	add	x0, x0, #0xb8
    34302dcc:	925d0421 	and	x1, x1, #0x1800000000
    34302dd0:	eb04003f 	cmp	x1, x4
    34302dd4:	54000600 	b.eq	34302e94 <get_next_bl_params_from_mem_params_desc+0x104>  // b.none
    34302dd8:	eb00007f 	cmp	x3, x0
    34302ddc:	54ffff21 	b.ne	34302dc0 <get_next_bl_params_from_mem_params_desc+0x30>  // b.any
    34302de0:	90000183 	adrp	x3, 34332000 <__STACKS_START__+0x36c0>
    34302de4:	910260c8 	add	x8, x6, #0x98
    34302de8:	91306060 	add	x0, x3, #0xc18
    34302dec:	aa0603e2 	mov	x2, x6
    34302df0:	aa0203e1 	mov	x1, x2
    34302df4:	d28040a4 	mov	x4, #0x205                 	// #517
    34302df8:	f2a00204 	movk	x4, #0x10, lsl #16
    34302dfc:	f9060c64 	str	x4, [x3, #3096]
    34302e00:	91002044 	add	x4, x2, #0x8
    34302e04:	91008043 	add	x3, x2, #0x20
    34302e08:	b8498429 	ldr	w9, [x1], #152
    34302e0c:	52800007 	mov	w7, #0x0                   	// #0
    34302e10:	b9009849 	str	w9, [x2, #152]
    34302e14:	5280170a 	mov	w10, #0xb8                  	// #184
    34302e18:	a9008c24 	stp	x4, x3, [x1, #8]
    34302e1c:	b9407844 	ldr	w4, [x2, #120]
    34302e20:	3100049f 	cmn	w4, #0x1
    34302e24:	54000360 	b.eq	34302e90 <get_next_bl_params_from_mem_params_desc+0x100>  // b.none
    34302e28:	aa0603e2 	mov	x2, x6
    34302e2c:	52800001 	mov	w1, #0x0                   	// #0
    34302e30:	b9400043 	ldr	w3, [x2]
    34302e34:	9102e042 	add	x2, x2, #0xb8
    34302e38:	6b03009f 	cmp	w4, w3
    34302e3c:	540000a0 	b.eq	34302e50 <get_next_bl_params_from_mem_params_desc+0xc0>  // b.none
    34302e40:	11000421 	add	w1, w1, #0x1
    34302e44:	6b0100bf 	cmp	w5, w1
    34302e48:	54ffff41 	b.ne	34302e30 <get_next_bl_params_from_mem_params_desc+0xa0>  // b.any
    34302e4c:	12800001 	mov	w1, #0xffffffff            	// #-1
    34302e50:	110004e7 	add	w7, w7, #0x1
    34302e54:	6b0700bf 	cmp	w5, w7
    34302e58:	540001c0 	b.eq	34302e90 <get_next_bl_params_from_mem_params_desc+0x100>  // b.none
    34302e5c:	9baa7c21 	umull	x1, w1, w10
    34302e60:	8b0100c2 	add	x2, x6, x1
    34302e64:	91002044 	add	x4, x2, #0x8
    34302e68:	91026043 	add	x3, x2, #0x98
    34302e6c:	b86168c9 	ldr	w9, [x6, x1]
    34302e70:	91008041 	add	x1, x2, #0x20
    34302e74:	b9009849 	str	w9, [x2, #152]
    34302e78:	a90a0444 	stp	x4, x1, [x2, #160]
    34302e7c:	b9407844 	ldr	w4, [x2, #120]
    34302e80:	f9000d03 	str	x3, [x8, #24]
    34302e84:	aa0303e8 	mov	x8, x3
    34302e88:	3100049f 	cmn	w4, #0x1
    34302e8c:	54fffce1 	b.ne	34302e28 <get_next_bl_params_from_mem_params_desc+0x98>  // b.any
    34302e90:	d65f03c0 	ret
    34302e94:	90000183 	adrp	x3, 34332000 <__STACKS_START__+0x36c0>
    34302e98:	91306060 	add	x0, x3, #0xc18
    34302e9c:	91026048 	add	x8, x2, #0x98
    34302ea0:	f9000408 	str	x8, [x0, #8]
    34302ea4:	17ffffd3 	b	34302df0 <get_next_bl_params_from_mem_params_desc+0x60>
    34302ea8:	d2800000 	mov	x0, #0x0                   	// #0
    34302eac:	d65f03c0 	ret

0000000034302eb0 <fdt_add_reserved_memory>:
    34302eb0:	a9ba7bfd 	stp	x29, x30, [sp, #-96]!
    34302eb4:	910003fd 	mov	x29, sp
    34302eb8:	a90153f3 	stp	x19, x20, [sp, #16]
    34302ebc:	aa0003f3 	mov	x19, x0
    34302ec0:	a9025bf5 	stp	x21, x22, [sp, #32]
    34302ec4:	aa0203f6 	mov	x22, x2
    34302ec8:	aa0303f5 	mov	x21, x3
    34302ecc:	a90363f7 	stp	x23, x24, [sp, #48]
    34302ed0:	910143f8 	add	x24, sp, #0x50
    34302ed4:	a9046bf9 	stp	x25, x26, [sp, #64]
    34302ed8:	aa0103fa 	mov	x26, x1
    34302edc:	b0000081 	adrp	x1, 34313000 <vprintf+0x520>
    34302ee0:	91284021 	add	x1, x1, #0xa10
    34302ee4:	94003a8b 	bl	34311910 <fdt_path_offset>
    34302ee8:	52800001 	mov	w1, #0x0                   	// #0
    34302eec:	2a0003f4 	mov	w20, w0
    34302ef0:	aa1303e0 	mov	x0, x19
    34302ef4:	9400383f 	bl	34310ff0 <fdt_address_cells>
    34302ef8:	52800001 	mov	w1, #0x0                   	// #0
    34302efc:	2a0003f7 	mov	w23, w0
    34302f00:	aa1303e0 	mov	x0, x19
    34302f04:	94003857 	bl	34311060 <fdt_size_cells>
    34302f08:	2a0003f9 	mov	w25, w0
    34302f0c:	37f80654 	tbnz	w20, #31, 34302fd4 <fdt_add_reserved_memory+0x124>
    34302f10:	710006ff 	cmp	w23, #0x1
    34302f14:	540005ad 	b.le	34302fc8 <fdt_add_reserved_memory+0x118>
    34302f18:	d360fec0 	lsr	x0, x22, #32
    34302f1c:	52800057 	mov	w23, #0x2                   	// #2
    34302f20:	5ac00800 	rev	w0, w0
    34302f24:	52800021 	mov	w1, #0x1                   	// #1
    34302f28:	b90053e0 	str	w0, [sp, #80]
    34302f2c:	2a0103e0 	mov	w0, w1
    34302f30:	5ac00ad6 	rev	w22, w22
    34302f34:	b8207b16 	str	w22, [x24, x0, lsl #2]
    34302f38:	7100073f 	cmp	w25, #0x1
    34302f3c:	540000ad 	b.le	34302f50 <fdt_add_reserved_memory+0xa0>
    34302f40:	d360fea0 	lsr	x0, x21, #32
    34302f44:	5ac00800 	rev	w0, w0
    34302f48:	b8375b00 	str	w0, [x24, w23, uxtw #2]
    34302f4c:	11000837 	add	w23, w1, #0x2
    34302f50:	2a1403e1 	mov	w1, w20
    34302f54:	5ac00ab5 	rev	w21, w21
    34302f58:	aa1a03e2 	mov	x2, x26
    34302f5c:	aa1303e0 	mov	x0, x19
    34302f60:	b8375b15 	str	w21, [x24, w23, uxtw #2]
    34302f64:	94003e0f 	bl	343127a0 <fdt_add_subnode>
    34302f68:	52800004 	mov	w4, #0x0                   	// #0
    34302f6c:	2a0003e1 	mov	w1, w0
    34302f70:	2a0003f5 	mov	w21, w0
    34302f74:	d2800003 	mov	x3, #0x0                   	// #0
    34302f78:	aa1303e0 	mov	x0, x19
    34302f7c:	b0000082 	adrp	x2, 34313000 <vprintf+0x520>
    34302f80:	91298042 	add	x2, x2, #0xa60
    34302f84:	94003d2b 	bl	34312430 <fdt_setprop>
    34302f88:	110006e4 	add	w4, w23, #0x1
    34302f8c:	b0000082 	adrp	x2, 34313000 <vprintf+0x520>
    34302f90:	2a1503e1 	mov	w1, w21
    34302f94:	aa1803e3 	mov	x3, x24
    34302f98:	aa1303e0 	mov	x0, x19
    34302f9c:	531e7484 	lsl	w4, w4, #2
    34302fa0:	9129a042 	add	x2, x2, #0xa68
    34302fa4:	52800014 	mov	w20, #0x0                   	// #0
    34302fa8:	94003d22 	bl	34312430 <fdt_setprop>
    34302fac:	2a1403e0 	mov	w0, w20
    34302fb0:	a94153f3 	ldp	x19, x20, [sp, #16]
    34302fb4:	a9425bf5 	ldp	x21, x22, [sp, #32]
    34302fb8:	a94363f7 	ldp	x23, x24, [sp, #48]
    34302fbc:	a9446bf9 	ldp	x25, x26, [sp, #64]
    34302fc0:	a8c67bfd 	ldp	x29, x30, [sp], #96
    34302fc4:	d65f03c0 	ret
    34302fc8:	52800037 	mov	w23, #0x1                   	// #1
    34302fcc:	52800001 	mov	w1, #0x0                   	// #0
    34302fd0:	17ffffd7 	b	34302f2c <fdt_add_reserved_memory+0x7c>
    34302fd4:	aa1303e0 	mov	x0, x19
    34302fd8:	b0000082 	adrp	x2, 34313000 <vprintf+0x520>
    34302fdc:	52800001 	mov	w1, #0x0                   	// #0
    34302fe0:	9128a042 	add	x2, x2, #0xa28
    34302fe4:	94003def 	bl	343127a0 <fdt_add_subnode>
    34302fe8:	2a0003f4 	mov	w20, w0
    34302fec:	37fffe00 	tbnz	w0, #31, 34302fac <fdt_add_reserved_memory+0xfc>
    34302ff0:	5ac00ae5 	rev	w5, w23
    34302ff4:	aa1803e3 	mov	x3, x24
    34302ff8:	2a0003e1 	mov	w1, w0
    34302ffc:	52800084 	mov	w4, #0x4                   	// #4
    34303000:	aa1303e0 	mov	x0, x19
    34303004:	90000082 	adrp	x2, 34313000 <vprintf+0x520>
    34303008:	9128e042 	add	x2, x2, #0xa38
    3430300c:	b90053e5 	str	w5, [sp, #80]
    34303010:	94003d08 	bl	34312430 <fdt_setprop>
    34303014:	5ac00b25 	rev	w5, w25
    34303018:	aa1803e3 	mov	x3, x24
    3430301c:	2a1403e1 	mov	w1, w20
    34303020:	aa1303e0 	mov	x0, x19
    34303024:	52800084 	mov	w4, #0x4                   	// #4
    34303028:	90000082 	adrp	x2, 34313000 <vprintf+0x520>
    3430302c:	91292042 	add	x2, x2, #0xa48
    34303030:	b90053e5 	str	w5, [sp, #80]
    34303034:	94003cff 	bl	34312430 <fdt_setprop>
    34303038:	2a1403e1 	mov	w1, w20
    3430303c:	aa1303e0 	mov	x0, x19
    34303040:	52800004 	mov	w4, #0x0                   	// #0
    34303044:	90000082 	adrp	x2, 34313000 <vprintf+0x520>
    34303048:	d2800003 	mov	x3, #0x0                   	// #0
    3430304c:	91296042 	add	x2, x2, #0xa58
    34303050:	94003cf8 	bl	34312430 <fdt_setprop>
    34303054:	17ffffaf 	b	34302f10 <fdt_add_reserved_memory+0x60>
	...

0000000034303060 <fdt_get_reg_props_by_index>:
    34303060:	a9ba7bfd 	stp	x29, x30, [sp, #-96]!
    34303064:	910003fd 	mov	x29, sp
    34303068:	a90153f3 	stp	x19, x20, [sp, #16]
    3430306c:	aa0003f4 	mov	x20, x0
    34303070:	a9025bf5 	stp	x21, x22, [sp, #32]
    34303074:	aa0303f6 	mov	x22, x3
    34303078:	aa0403f5 	mov	x21, x4
    3430307c:	a90363f7 	stp	x23, x24, [sp, #48]
    34303080:	2a0103f8 	mov	w24, w1
    34303084:	f90023f9 	str	x25, [sp, #64]
    34303088:	2a0203f9 	mov	w25, w2
    3430308c:	94003a79 	bl	34311a70 <fdt_parent_offset>
    34303090:	37f806a0 	tbnz	w0, #31, 34303164 <fdt_get_reg_props_by_index+0x104>
    34303094:	2a0003f3 	mov	w19, w0
    34303098:	2a0003e1 	mov	w1, w0
    3430309c:	aa1403e0 	mov	x0, x20
    343030a0:	940037d4 	bl	34310ff0 <fdt_address_cells>
    343030a4:	2a1303e1 	mov	w1, w19
    343030a8:	2a0003f7 	mov	w23, w0
    343030ac:	aa1403e0 	mov	x0, x20
    343030b0:	940037ec 	bl	34311060 <fdt_size_cells>
    343030b4:	2a1803e1 	mov	w1, w24
    343030b8:	2a0003f8 	mov	w24, w0
    343030bc:	0b1802f3 	add	w19, w23, w24
    343030c0:	aa1403e0 	mov	x0, x20
    343030c4:	910173e3 	add	x3, sp, #0x5c
    343030c8:	90000082 	adrp	x2, 34313000 <vprintf+0x520>
    343030cc:	9129a042 	add	x2, x2, #0xa68
    343030d0:	94003a20 	bl	34311950 <fdt_getprop>
    343030d4:	1b197e73 	mul	w19, w19, w25
    343030d8:	aa0003e1 	mov	x1, x0
    343030dc:	b40004c0 	cbz	x0, 34303174 <fdt_get_reg_props_by_index+0x114>
    343030e0:	0b1302e2 	add	w2, w23, w19
    343030e4:	b9405fe0 	ldr	w0, [sp, #92]
    343030e8:	0b180043 	add	w3, w2, w24
    343030ec:	6b03081f 	cmp	w0, w3, lsl #2
    343030f0:	540003eb 	b.lt	3430316c <fdt_get_reg_props_by_index+0x10c>  // b.tstop
    343030f4:	b4000156 	cbz	x22, 3430311c <fdt_get_reg_props_by_index+0xbc>
    343030f8:	b873d820 	ldr	w0, [x1, w19, sxtw #2]
    343030fc:	8b33c833 	add	x19, x1, w19, sxtw #2
    34303100:	5ac00800 	rev	w0, w0
    34303104:	710006ff 	cmp	w23, #0x1
    34303108:	5400008d 	b.le	34303118 <fdt_get_reg_props_by_index+0xb8>
    3430310c:	b9400663 	ldr	w3, [x19, #4]
    34303110:	5ac00863 	rev	w3, w3
    34303114:	aa008060 	orr	x0, x3, x0, lsl #32
    34303118:	f90002c0 	str	x0, [x22]
    3430311c:	52800000 	mov	w0, #0x0                   	// #0
    34303120:	b4000175 	cbz	x21, 3430314c <fdt_get_reg_props_by_index+0xec>
    34303124:	b862d820 	ldr	w0, [x1, w2, sxtw #2]
    34303128:	8b22c822 	add	x2, x1, w2, sxtw #2
    3430312c:	5ac00801 	rev	w1, w0
    34303130:	7100071f 	cmp	w24, #0x1
    34303134:	5400008d 	b.le	34303144 <fdt_get_reg_props_by_index+0xe4>
    34303138:	b9400440 	ldr	w0, [x2, #4]
    3430313c:	5ac00800 	rev	w0, w0
    34303140:	aa018001 	orr	x1, x0, x1, lsl #32
    34303144:	52800000 	mov	w0, #0x0                   	// #0
    34303148:	f90002a1 	str	x1, [x21]
    3430314c:	a94153f3 	ldp	x19, x20, [sp, #16]
    34303150:	a9425bf5 	ldp	x21, x22, [sp, #32]
    34303154:	a94363f7 	ldp	x23, x24, [sp, #48]
    34303158:	f94023f9 	ldr	x25, [sp, #64]
    3430315c:	a8c67bfd 	ldp	x29, x30, [sp], #96
    34303160:	d65f03c0 	ret
    34303164:	12800060 	mov	w0, #0xfffffffc            	// #-4
    34303168:	17fffff9 	b	3430314c <fdt_get_reg_props_by_index+0xec>
    3430316c:	128001c0 	mov	w0, #0xfffffff1            	// #-15
    34303170:	17fffff7 	b	3430314c <fdt_get_reg_props_by_index+0xec>
    34303174:	12800000 	mov	w0, #0xffffffff            	// #-1
    34303178:	17fffff5 	b	3430314c <fdt_get_reg_props_by_index+0xec>
    3430317c:	00000000 	udf	#0

0000000034303180 <tf_crc32>:
    34303180:	2a2003e3 	mvn	w3, w0
    34303184:	b4000102 	cbz	x2, 343031a4 <tf_crc32+0x24>
    34303188:	8b020022 	add	x2, x1, x2
    3430318c:	d503201f 	nop
    34303190:	38401420 	ldrb	w0, [x1], #1
    34303194:	1ac04063 	crc32b	w3, w3, w0
    34303198:	eb01005f 	cmp	x2, x1
    3430319c:	54ffffa1 	b.ne	34303190 <tf_crc32+0x10>  // b.any
    343031a0:	2a2303e0 	mvn	w0, w3
    343031a4:	d65f03c0 	ret
	...

00000000343031b0 <tf_log>:
    343031b0:	a9b67bfd 	stp	x29, x30, [sp, #-160]!
    343031b4:	f0000148 	adrp	x8, 3432e000 <pie_cfg+0xe08>
    343031b8:	910003fd 	mov	x29, sp
    343031bc:	a90153f3 	stp	x19, x20, [sp, #16]
    343031c0:	aa0003f4 	mov	x20, x0
    343031c4:	a9068be1 	stp	x1, x2, [sp, #104]
    343031c8:	b9492901 	ldr	w1, [x8, #2344]
    343031cc:	39400000 	ldrb	w0, [x0]
    343031d0:	a90793e3 	stp	x3, x4, [sp, #120]
    343031d4:	a9089be5 	stp	x5, x6, [sp, #136]
    343031d8:	f9004fe7 	str	x7, [sp, #152]
    343031dc:	6b00003f 	cmp	w1, w0
    343031e0:	54000082 	b.cs	343031f0 <tf_log+0x40>  // b.hs, b.nlast
    343031e4:	a94153f3 	ldp	x19, x20, [sp, #16]
    343031e8:	a8ca7bfd 	ldp	x29, x30, [sp], #160
    343031ec:	d65f03c0 	ret
    343031f0:	94002b18 	bl	3430de50 <plat_log_get_prefix>
    343031f4:	aa0003f3 	mov	x19, x0
    343031f8:	39400000 	ldrb	w0, [x0]
    343031fc:	34000080 	cbz	w0, 3430320c <tf_log+0x5c>
    34303200:	9400005c 	bl	34303370 <putchar>
    34303204:	38401e60 	ldrb	w0, [x19, #1]!
    34303208:	35ffffc0 	cbnz	w0, 34303200 <tf_log+0x50>
    3430320c:	910283e0 	add	x0, sp, #0xa0
    34303210:	910283e1 	add	x1, sp, #0xa0
    34303214:	a90407e0 	stp	x0, x1, [sp, #64]
    34303218:	910183e3 	add	x3, sp, #0x60
    3430321c:	128006e2 	mov	w2, #0xffffffc8            	// #-56
    34303220:	f9002be3 	str	x3, [sp, #80]
    34303224:	910083e1 	add	x1, sp, #0x20
    34303228:	290b7fe2 	stp	w2, wzr, [sp, #88]
    3430322c:	91000680 	add	x0, x20, #0x1
    34303230:	a9440fe2 	ldp	x2, x3, [sp, #64]
    34303234:	a9020fe2 	stp	x2, x3, [sp, #32]
    34303238:	a9450fe2 	ldp	x2, x3, [sp, #80]
    3430323c:	a9030fe2 	stp	x2, x3, [sp, #48]
    34303240:	94003e28 	bl	34312ae0 <vprintf>
    34303244:	a94153f3 	ldp	x19, x20, [sp, #16]
    34303248:	a8ca7bfd 	ldp	x29, x30, [sp], #160
    3430324c:	d65f03c0 	ret

0000000034303250 <console_register>:
    34303250:	f0000163 	adrp	x3, 34332000 <__STACKS_START__+0x36c0>
    34303254:	f9461462 	ldr	x2, [x3, #3112]
    34303258:	b4000122 	cbz	x2, 3430327c <console_register+0x2c>
    3430325c:	eb02001f 	cmp	x0, x2
    34303260:	54000120 	b.eq	34303284 <console_register+0x34>  // b.none
    34303264:	aa0203e1 	mov	x1, x2
    34303268:	14000003 	b	34303274 <console_register+0x24>
    3430326c:	eb01001f 	cmp	x0, x1
    34303270:	540000a0 	b.eq	34303284 <console_register+0x34>  // b.none
    34303274:	f9400021 	ldr	x1, [x1]
    34303278:	b5ffffa1 	cbnz	x1, 3430326c <console_register+0x1c>
    3430327c:	f9000002 	str	x2, [x0]
    34303280:	f9061460 	str	x0, [x3, #3112]
    34303284:	52800020 	mov	w0, #0x1                   	// #1
    34303288:	d65f03c0 	ret
    3430328c:	00000000 	udf	#0

0000000034303290 <console_set_scope>:
    34303290:	2a0103e2 	mov	w2, w1
    34303294:	f9400401 	ldr	x1, [x0, #8]
    34303298:	92785c21 	and	x1, x1, #0xffffff00
    3430329c:	aa020021 	orr	x1, x1, x2
    343032a0:	f9000401 	str	x1, [x0, #8]
    343032a4:	d65f03c0 	ret
	...

00000000343032b0 <console_putc>:
    343032b0:	a9bd7bfd 	stp	x29, x30, [sp, #-48]!
    343032b4:	f0000161 	adrp	x1, 34332000 <__STACKS_START__+0x36c0>
    343032b8:	910003fd 	mov	x29, sp
    343032bc:	a90153f3 	stp	x19, x20, [sp, #16]
    343032c0:	f9461433 	ldr	x19, [x1, #3112]
    343032c4:	a9025bf5 	stp	x21, x22, [sp, #32]
    343032c8:	b4000453 	cbz	x19, 34303350 <console_putc+0xa0>
    343032cc:	f0000154 	adrp	x20, 3432e000 <pie_cfg+0xe08>
    343032d0:	2a0003f6 	mov	w22, w0
    343032d4:	9124c294 	add	x20, x20, #0x930
    343032d8:	12800ff5 	mov	w21, #0xffffff80            	// #-128
    343032dc:	d503201f 	nop
    343032e0:	f9400662 	ldr	x2, [x19, #8]
    343032e4:	39400281 	ldrb	w1, [x20]
    343032e8:	ea02003f 	tst	x1, x2
    343032ec:	54000160 	b.eq	34303318 <console_putc+0x68>  // b.none
    343032f0:	f9400a63 	ldr	x3, [x19, #16]
    343032f4:	b4000123 	cbz	x3, 34303318 <console_putc+0x68>
    343032f8:	71002adf 	cmp	w22, #0xa
    343032fc:	540001c0 	b.eq	34303334 <console_putc+0x84>  // b.none
    34303300:	aa1303e1 	mov	x1, x19
    34303304:	2a1603e0 	mov	w0, w22
    34303308:	d63f0060 	blr	x3
    3430330c:	310202bf 	cmn	w21, #0x80
    34303310:	7a551001 	ccmp	w0, w21, #0x1, ne  // ne = any
    34303314:	1a80a2b5 	csel	w21, w21, w0, ge  // ge = tcont
    34303318:	f9400273 	ldr	x19, [x19]
    3430331c:	b5fffe33 	cbnz	x19, 343032e0 <console_putc+0x30>
    34303320:	2a1503e0 	mov	w0, w21
    34303324:	a94153f3 	ldp	x19, x20, [sp, #16]
    34303328:	a9425bf5 	ldp	x21, x22, [sp, #32]
    3430332c:	a8c37bfd 	ldp	x29, x30, [sp], #48
    34303330:	d65f03c0 	ret
    34303334:	aa1303e1 	mov	x1, x19
    34303338:	528001a0 	mov	w0, #0xd                   	// #13
    3430333c:	3647fe22 	tbz	w2, #8, 34303300 <console_putc+0x50>
    34303340:	d63f0060 	blr	x3
    34303344:	37fffe40 	tbnz	w0, #31, 3430330c <console_putc+0x5c>
    34303348:	f9400a63 	ldr	x3, [x19, #16]
    3430334c:	17ffffed 	b	34303300 <console_putc+0x50>
    34303350:	12800ff5 	mov	w21, #0xffffff80            	// #-128
    34303354:	2a1503e0 	mov	w0, w21
    34303358:	a94153f3 	ldp	x19, x20, [sp, #16]
    3430335c:	a9425bf5 	ldp	x21, x22, [sp, #32]
    34303360:	a8c37bfd 	ldp	x29, x30, [sp], #48
    34303364:	d65f03c0 	ret
	...

0000000034303370 <putchar>:
    34303370:	a9be7bfd 	stp	x29, x30, [sp, #-32]!
    34303374:	910003fd 	mov	x29, sp
    34303378:	f9000bf3 	str	x19, [sp, #16]
    3430337c:	2a0003f3 	mov	w19, w0
    34303380:	97ffffcc 	bl	343032b0 <console_putc>
    34303384:	7100001f 	cmp	w0, #0x0
    34303388:	5a9f0260 	csinv	w0, w19, wzr, eq  // eq = none
    3430338c:	f9400bf3 	ldr	x19, [sp, #16]
    34303390:	a8c27bfd 	ldp	x29, x30, [sp], #32
    34303394:	d65f03c0 	ret
	...

00000000343033a0 <console_flush>:
    343033a0:	a9be7bfd 	stp	x29, x30, [sp, #-32]!
    343033a4:	f0000160 	adrp	x0, 34332000 <__STACKS_START__+0x36c0>
    343033a8:	910003fd 	mov	x29, sp
    343033ac:	a90153f3 	stp	x19, x20, [sp, #16]
    343033b0:	f9461413 	ldr	x19, [x0, #3112]
    343033b4:	b40001b3 	cbz	x19, 343033e8 <console_flush+0x48>
    343033b8:	f0000154 	adrp	x20, 3432e000 <pie_cfg+0xe08>
    343033bc:	9124c294 	add	x20, x20, #0x930
    343033c0:	f9400660 	ldr	x0, [x19, #8]
    343033c4:	39400281 	ldrb	w1, [x20]
    343033c8:	ea00003f 	tst	x1, x0
    343033cc:	540000a0 	b.eq	343033e0 <console_flush+0x40>  // b.none
    343033d0:	f9400e61 	ldr	x1, [x19, #24]
    343033d4:	aa1303e0 	mov	x0, x19
    343033d8:	b4000041 	cbz	x1, 343033e0 <console_flush+0x40>
    343033dc:	d63f0020 	blr	x1
    343033e0:	f9400273 	ldr	x19, [x19]
    343033e4:	b5fffef3 	cbnz	x19, 343033c0 <console_flush+0x20>
    343033e8:	a94153f3 	ldp	x19, x20, [sp, #16]
    343033ec:	a8c27bfd 	ldp	x29, x30, [sp], #32
    343033f0:	d65f03c0 	ret
	...

0000000034303400 <udelay>:
    34303400:	a9bd7bfd 	stp	x29, x30, [sp, #-48]!
    34303404:	910003fd 	mov	x29, sp
    34303408:	a90153f3 	stp	x19, x20, [sp, #16]
    3430340c:	f0000174 	adrp	x20, 34332000 <__STACKS_START__+0x36c0>
    34303410:	2a0003f3 	mov	w19, w0
    34303414:	f9461a80 	ldr	x0, [x20, #3120]
    34303418:	f9400000 	ldr	x0, [x0]
    3430341c:	f90013f5 	str	x21, [sp, #32]
    34303420:	d63f0000 	blr	x0
    34303424:	2a0003f5 	mov	w21, w0
    34303428:	f9461a81 	ldr	x1, [x20, #3120]
    3430342c:	29410c20 	ldp	w0, w3, [x1, #8]
    34303430:	d1000402 	sub	x2, x0, #0x1
    34303434:	9ba30a73 	umaddl	x19, w19, w3, x2
    34303438:	9ac00a73 	udiv	x19, x19, x0
    3430343c:	91000673 	add	x19, x19, #0x1
    34303440:	14000002 	b	34303448 <udelay+0x48>
    34303444:	f9461a81 	ldr	x1, [x20, #3120]
    34303448:	f9400021 	ldr	x1, [x1]
    3430344c:	d63f0020 	blr	x1
    34303450:	4b0002a0 	sub	w0, w21, w0
    34303454:	eb13001f 	cmp	x0, x19
    34303458:	54ffff63 	b.cc	34303444 <udelay+0x44>  // b.lo, b.ul, b.last
    3430345c:	a94153f3 	ldp	x19, x20, [sp, #16]
    34303460:	f94013f5 	ldr	x21, [sp, #32]
    34303464:	a8c37bfd 	ldp	x29, x30, [sp], #48
    34303468:	d65f03c0 	ret
    3430346c:	00000000 	udf	#0

0000000034303470 <mdelay>:
    34303470:	52807d01 	mov	w1, #0x3e8                 	// #1000
    34303474:	1b017c00 	mul	w0, w0, w1
    34303478:	17ffffe2 	b	34303400 <udelay>
    3430347c:	00000000 	udf	#0

0000000034303480 <timer_init>:
    34303480:	f0000161 	adrp	x1, 34332000 <__STACKS_START__+0x36c0>
    34303484:	f9061820 	str	x0, [x1, #3120]
    34303488:	d65f03c0 	ret
    3430348c:	00000000 	udf	#0

0000000034303490 <get_timer_value>:
    34303490:	d53be020 	mrs	x0, cntpct_el0
    34303494:	2a2003e0 	mvn	w0, w0
    34303498:	d65f03c0 	ret
    3430349c:	00000000 	udf	#0

00000000343034a0 <generic_delay_timer_init>:
    343034a0:	a9bf7bfd 	stp	x29, x30, [sp, #-16]!
    343034a4:	910003fd 	mov	x29, sp
    343034a8:	94002cea 	bl	3430e850 <plat_get_syscnt_freq2>
    343034ac:	2a0003e2 	mov	w2, w0
    343034b0:	529999a0 	mov	w0, #0xcccd                	// #52429
    343034b4:	52933327 	mov	w7, #0x9999                	// #39321
    343034b8:	72b99980 	movk	w0, #0xcccc, lsl #16
    343034bc:	52884804 	mov	w4, #0x4240                	// #16960
    343034c0:	72a33327 	movk	w7, #0x1999, lsl #16
    343034c4:	72a001e4 	movk	w4, #0xf, lsl #16
    343034c8:	1b007c41 	mul	w1, w2, w0
    343034cc:	13810421 	ror	w1, w1, #1
    343034d0:	6b07003f 	cmp	w1, w7
    343034d4:	54000208 	b.hi	34303514 <generic_delay_timer_init+0x74>  // b.pmore
    343034d8:	9ba07c42 	umull	x2, w2, w0
    343034dc:	5290d404 	mov	w4, #0x86a0                	// #34464
    343034e0:	528000a3 	mov	w3, #0x5                   	// #5
    343034e4:	72a00024 	movk	w4, #0x1, lsl #16
    343034e8:	d363fc42 	lsr	x2, x2, #35
    343034ec:	1b007c41 	mul	w1, w2, w0
    343034f0:	9ba07c86 	umull	x6, w4, w0
    343034f4:	9ba07c45 	umull	x5, w2, w0
    343034f8:	13810421 	ror	w1, w1, #1
    343034fc:	6b07003f 	cmp	w1, w7
    34303500:	540000a8 	b.hi	34303514 <generic_delay_timer_init+0x74>  // b.pmore
    34303504:	d363fcc4 	lsr	x4, x6, #35
    34303508:	d363fca2 	lsr	x2, x5, #35
    3430350c:	71000463 	subs	w3, w3, #0x1
    34303510:	54fffee1 	b.ne	343034ec <generic_delay_timer_init+0x4c>  // b.any
    34303514:	f0000163 	adrp	x3, 34332000 <__STACKS_START__+0x36c0>
    34303518:	9130e060 	add	x0, x3, #0xc38
    3430351c:	90000001 	adrp	x1, 34303000 <fdt_add_reserved_memory+0x150>
    34303520:	91124021 	add	x1, x1, #0x490
    34303524:	f9061c61 	str	x1, [x3, #3128]
    34303528:	29010804 	stp	w4, w2, [x0, #8]
    3430352c:	a8c17bfd 	ldp	x29, x30, [sp], #16
    34303530:	17ffffd4 	b	34303480 <timer_init>
	...

0000000034303540 <device_type_block>:
    34303540:	52800080 	mov	w0, #0x4                   	// #4
    34303544:	d65f03c0 	ret
	...

0000000034303550 <block_open>:
    34303550:	aa0003e3 	mov	x3, x0
    34303554:	52800000 	mov	w0, #0x0                   	// #0
    34303558:	a9400424 	ldp	x4, x1, [x1]
    3430355c:	f9400463 	ldr	x3, [x3, #8]
    34303560:	a900fc64 	stp	x4, xzr, [x3, #8]
    34303564:	f9000c61 	str	x1, [x3, #24]
    34303568:	f9000443 	str	x3, [x2, #8]
    3430356c:	d65f03c0 	ret

0000000034303570 <block_seek>:
    34303570:	f9400403 	ldr	x3, [x0, #8]
    34303574:	7100043f 	cmp	w1, #0x1
    34303578:	54000120 	b.eq	3430359c <block_seek+0x2c>  // b.none
    3430357c:	128002a0 	mov	w0, #0xffffffea            	// #-22
    34303580:	71000c3f 	cmp	w1, #0x3
    34303584:	540000a1 	b.ne	34303598 <block_seek+0x28>  // b.any
    34303588:	f9400861 	ldr	x1, [x3, #16]
    3430358c:	52800000 	mov	w0, #0x0                   	// #0
    34303590:	8b020021 	add	x1, x1, x2
    34303594:	f9000861 	str	x1, [x3, #16]
    34303598:	d65f03c0 	ret
    3430359c:	52800000 	mov	w0, #0x0                   	// #0
    343035a0:	f9000862 	str	x2, [x3, #16]
    343035a4:	d65f03c0 	ret
	...

00000000343035b0 <block_close>:
    343035b0:	aa0003e1 	mov	x1, x0
    343035b4:	52800000 	mov	w0, #0x0                   	// #0
    343035b8:	f900043f 	str	xzr, [x1, #8]
    343035bc:	d65f03c0 	ret

00000000343035c0 <block_dev_open>:
    343035c0:	f0000183 	adrp	x3, 34336000 <mbr_sector+0xe0>
    343035c4:	b94f3062 	ldr	w2, [x3, #3888]
    343035c8:	35000362 	cbnz	w2, 34303634 <block_dev_open+0x74>
    343035cc:	f0000162 	adrp	x2, 34332000 <__STACKS_START__+0x36c0>
    343035d0:	91316046 	add	x6, x2, #0xc58
    343035d4:	f9462c44 	ldr	x4, [x2, #3160]
    343035d8:	b50001a4 	cbnz	x4, 3430360c <block_dev_open+0x4c>
    343035dc:	f0000165 	adrp	x5, 34332000 <__STACKS_START__+0x36c0>
    343035e0:	913120a4 	add	x4, x5, #0xc48
    343035e4:	f9062c40 	str	x0, [x2, #3160]
    343035e8:	90000080 	adrp	x0, 34313000 <vprintf+0x520>
    343035ec:	9129e000 	add	x0, x0, #0xa78
    343035f0:	f90624a0 	str	x0, [x5, #3144]
    343035f4:	f9000486 	str	x6, [x4, #8]
    343035f8:	52800022 	mov	w2, #0x1                   	// #1
    343035fc:	52800000 	mov	w0, #0x0                   	// #0
    34303600:	b90f3062 	str	w2, [x3, #3888]
    34303604:	f9000024 	str	x4, [x1]
    34303608:	d65f03c0 	ret
    3430360c:	f0000161 	adrp	x1, 34332000 <__STACKS_START__+0x36c0>
    34303610:	91312022 	add	x2, x1, #0xc48
    34303614:	90000080 	adrp	x0, 34313000 <vprintf+0x520>
    34303618:	9129e000 	add	x0, x0, #0xa78
    3430361c:	52800024 	mov	w4, #0x1                   	// #1
    34303620:	f9062420 	str	x0, [x1, #3144]
    34303624:	b90f3064 	str	w4, [x3, #3888]
    34303628:	12800020 	mov	w0, #0xfffffffe            	// #-2
    3430362c:	f9000446 	str	x6, [x2, #8]
    34303630:	d65f03c0 	ret
    34303634:	12800020 	mov	w0, #0xfffffffe            	// #-2
    34303638:	d65f03c0 	ret
    3430363c:	00000000 	udf	#0

0000000034303640 <block_dev_close>:
    34303640:	a9be7bfd 	stp	x29, x30, [sp, #-32]!
    34303644:	f0000161 	adrp	x1, 34332000 <__STACKS_START__+0x36c0>
    34303648:	910003fd 	mov	x29, sp
    3430364c:	f9000bf3 	str	x19, [sp, #16]
    34303650:	aa0003f3 	mov	x19, x0
    34303654:	f9400400 	ldr	x0, [x0, #8]
    34303658:	f9462c21 	ldr	x1, [x1, #3160]
    3430365c:	f9400002 	ldr	x2, [x0]
    34303660:	eb01005f 	cmp	x2, x1
    34303664:	540001c1 	b.ne	3430369c <block_dev_close+0x5c>  // b.any
    34303668:	d2800401 	mov	x1, #0x20                  	// #32
    3430366c:	97fffb62 	bl	343023f4 <zeromem>
    34303670:	aa1303e0 	mov	x0, x19
    34303674:	d2800201 	mov	x1, #0x10                  	// #16
    34303678:	97fffb5f 	bl	343023f4 <zeromem>
    3430367c:	f0000182 	adrp	x2, 34336000 <mbr_sector+0xe0>
    34303680:	52800000 	mov	w0, #0x0                   	// #0
    34303684:	f9400bf3 	ldr	x19, [sp, #16]
    34303688:	b94f3041 	ldr	w1, [x2, #3888]
    3430368c:	a8c27bfd 	ldp	x29, x30, [sp], #32
    34303690:	51000421 	sub	w1, w1, #0x1
    34303694:	b90f3041 	str	w1, [x2, #3888]
    34303698:	d65f03c0 	ret
    3430369c:	12800020 	mov	w0, #0xfffffffe            	// #-2
    343036a0:	f9400bf3 	ldr	x19, [sp, #16]
    343036a4:	a8c27bfd 	ldp	x29, x30, [sp], #32
    343036a8:	d65f03c0 	ret
    343036ac:	00000000 	udf	#0

00000000343036b0 <block_write>:
    343036b0:	a9b87bfd 	stp	x29, x30, [sp, #-128]!
    343036b4:	910003fd 	mov	x29, sp
    343036b8:	a90573fb 	stp	x27, x28, [sp, #80]
    343036bc:	f940041c 	ldr	x28, [x0, #8]
    343036c0:	a9025bf5 	stp	x21, x22, [sp, #32]
    343036c4:	f9003fe3 	str	x3, [sp, #120]
    343036c8:	f9400395 	ldr	x21, [x28]
    343036cc:	f94012a0 	ldr	x0, [x21, #32]
    343036d0:	a90687e0 	stp	x0, x1, [sp, #104]
    343036d4:	b4000ac2 	cbz	x2, 3430382c <block_write+0x17c>
    343036d8:	a90153f3 	stp	x19, x20, [sp, #16]
    343036dc:	aa0203fb 	mov	x27, x2
    343036e0:	d2800016 	mov	x22, #0x0                   	// #0
    343036e4:	f9400b93 	ldr	x19, [x28, #16]
    343036e8:	a9046bf9 	stp	x25, x26, [sp, #64]
    343036ec:	910042b9 	add	x25, x21, #0x10
    343036f0:	a90363f7 	stp	x23, x24, [sp, #48]
    343036f4:	d1000417 	sub	x23, x0, #0x1
    343036f8:	cb0003e0 	neg	x0, x0
    343036fc:	f90033e0 	str	x0, [sp, #96]
    34303700:	8a170278 	and	x24, x19, x23
    34303704:	f94006b4 	ldr	x20, [x21, #8]
    34303708:	8b1b031a 	add	x26, x24, x27
    3430370c:	f94033e2 	ldr	x2, [sp, #96]
    34303710:	8b170340 	add	x0, x26, x23
    34303714:	f9400781 	ldr	x1, [x28, #8]
    34303718:	8a020000 	and	x0, x0, x2
    3430371c:	eb14035f 	cmp	x26, x20
    34303720:	9a949014 	csel	x20, x0, x20, ls  // ls = plast
    34303724:	8b010273 	add	x19, x19, x1
    34303728:	f94037e0 	ldr	x0, [sp, #104]
    3430372c:	cb180281 	sub	x1, x20, x24
    34303730:	aa1403e2 	mov	x2, x20
    34303734:	9ac00a73 	udiv	x19, x19, x0
    34303738:	eb1b003f 	cmp	x1, x27
    3430373c:	54000468 	b.hi	343037c8 <block_write+0x118>  // b.pmore
    34303740:	b5000458 	cbnz	x24, 343037c8 <block_write+0x118>
    34303744:	aa0103e2 	mov	x2, x1
    34303748:	f94002a0 	ldr	x0, [x21]
    3430374c:	f9403be1 	ldr	x1, [sp, #112]
    34303750:	8b000300 	add	x0, x24, x0
    34303754:	8b160021 	add	x1, x1, x22
    34303758:	94003c5e 	bl	343128d0 <memcpy>
    3430375c:	f94002a1 	ldr	x1, [x21]
    34303760:	2a1303e0 	mov	w0, w19
    34303764:	f9400727 	ldr	x7, [x25, #8]
    34303768:	aa1403e2 	mov	x2, x20
    3430376c:	d63f00e0 	blr	x7
    34303770:	cb180013 	sub	x19, x0, x24
    34303774:	eb00031f 	cmp	x24, x0
    34303778:	540004a2 	b.cs	3430380c <block_write+0x15c>  // b.hs, b.nlast
    3430377c:	eb1b027f 	cmp	x19, x27
    34303780:	540003c8 	b.hi	343037f8 <block_write+0x148>  // b.pmore
    34303784:	f9400b81 	ldr	x1, [x28, #16]
    34303788:	8b1302d6 	add	x22, x22, x19
    3430378c:	eb00035b 	subs	x27, x26, x0
    34303790:	8b010273 	add	x19, x19, x1
    34303794:	f9000b93 	str	x19, [x28, #16]
    34303798:	54fffb41 	b.ne	34303700 <block_write+0x50>  // b.any
    3430379c:	d503201f 	nop
    343037a0:	a94153f3 	ldp	x19, x20, [sp, #16]
    343037a4:	a94363f7 	ldp	x23, x24, [sp, #48]
    343037a8:	a9446bf9 	ldp	x25, x26, [sp, #64]
    343037ac:	52800000 	mov	w0, #0x0                   	// #0
    343037b0:	f9403fe1 	ldr	x1, [sp, #120]
    343037b4:	a94573fb 	ldp	x27, x28, [sp, #80]
    343037b8:	f9000036 	str	x22, [x1]
    343037bc:	a9425bf5 	ldp	x21, x22, [sp, #32]
    343037c0:	a8c87bfd 	ldp	x29, x30, [sp], #128
    343037c4:	d65f03c0 	ret
    343037c8:	f94002a1 	ldr	x1, [x21]
    343037cc:	2a1303e0 	mov	w0, w19
    343037d0:	f9400327 	ldr	x7, [x25]
    343037d4:	d63f00e0 	blr	x7
    343037d8:	f94033e1 	ldr	x1, [sp, #96]
    343037dc:	8a000034 	and	x20, x1, x0
    343037e0:	cb180281 	sub	x1, x20, x24
    343037e4:	eb14031f 	cmp	x24, x20
    343037e8:	54000122 	b.cs	3430380c <block_write+0x15c>  // b.hs, b.nlast
    343037ec:	eb1b003f 	cmp	x1, x27
    343037f0:	9a9b9021 	csel	x1, x1, x27, ls  // ls = plast
    343037f4:	17ffffd4 	b	34303744 <block_write+0x94>
    343037f8:	f9400b80 	ldr	x0, [x28, #16]
    343037fc:	8b1b02d6 	add	x22, x22, x27
    34303800:	8b1b0000 	add	x0, x0, x27
    34303804:	f9000b80 	str	x0, [x28, #16]
    34303808:	17ffffe6 	b	343037a0 <block_write+0xf0>
    3430380c:	12800080 	mov	w0, #0xfffffffb            	// #-5
    34303810:	a94153f3 	ldp	x19, x20, [sp, #16]
    34303814:	a9425bf5 	ldp	x21, x22, [sp, #32]
    34303818:	a94363f7 	ldp	x23, x24, [sp, #48]
    3430381c:	a9446bf9 	ldp	x25, x26, [sp, #64]
    34303820:	a94573fb 	ldp	x27, x28, [sp, #80]
    34303824:	a8c87bfd 	ldp	x29, x30, [sp], #128
    34303828:	d65f03c0 	ret
    3430382c:	d2800016 	mov	x22, #0x0                   	// #0
    34303830:	17ffffdf 	b	343037ac <block_write+0xfc>
	...

0000000034303840 <block_read>:
    34303840:	a9b87bfd 	stp	x29, x30, [sp, #-128]!
    34303844:	910003fd 	mov	x29, sp
    34303848:	a9046bf9 	stp	x25, x26, [sp, #64]
    3430384c:	f940041a 	ldr	x26, [x0, #8]
    34303850:	a90363f7 	stp	x23, x24, [sp, #48]
    34303854:	a90573fb 	stp	x27, x28, [sp, #80]
    34303858:	aa0203fb 	mov	x27, x2
    3430385c:	f9400358 	ldr	x24, [x26]
    34303860:	f9003fe3 	str	x3, [sp, #120]
    34303864:	f9401300 	ldr	x0, [x24, #32]
    34303868:	f90037e0 	str	x0, [sp, #104]
    3430386c:	b4000582 	cbz	x2, 3430391c <block_read+0xdc>
    34303870:	a90153f3 	stp	x19, x20, [sp, #16]
    34303874:	91004319 	add	x25, x24, #0x10
    34303878:	d2800014 	mov	x20, #0x0                   	// #0
    3430387c:	f9400b53 	ldr	x19, [x26, #16]
    34303880:	a9025bf5 	stp	x21, x22, [sp, #32]
    34303884:	aa0103f6 	mov	x22, x1
    34303888:	d1000415 	sub	x21, x0, #0x1
    3430388c:	cb0003e0 	neg	x0, x0
    34303890:	f9003be0 	str	x0, [sp, #112]
    34303894:	d503201f 	nop
    34303898:	f9400740 	ldr	x0, [x26, #8]
    3430389c:	8a15027c 	and	x28, x19, x21
    343038a0:	a94693e1 	ldp	x1, x4, [sp, #104]
    343038a4:	8b000260 	add	x0, x19, x0
    343038a8:	f9400703 	ldr	x3, [x24, #8]
    343038ac:	8b1b0397 	add	x23, x28, x27
    343038b0:	f9400327 	ldr	x7, [x25]
    343038b4:	eb0302ff 	cmp	x23, x3
    343038b8:	9ac10800 	udiv	x0, x0, x1
    343038bc:	8b1502e2 	add	x2, x23, x21
    343038c0:	f9400301 	ldr	x1, [x24]
    343038c4:	8a040042 	and	x2, x2, x4
    343038c8:	9a839042 	csel	x2, x2, x3, ls  // ls = plast
    343038cc:	d63f00e0 	blr	x7
    343038d0:	aa0003e3 	mov	x3, x0
    343038d4:	cb1c0073 	sub	x19, x3, x28
    343038d8:	8b1402c0 	add	x0, x22, x20
    343038dc:	eb03039f 	cmp	x28, x3
    343038e0:	54000462 	b.cs	3430396c <block_read+0x12c>  // b.hs, b.nlast
    343038e4:	aa1303e2 	mov	x2, x19
    343038e8:	f9400301 	ldr	x1, [x24]
    343038ec:	eb1b027f 	cmp	x19, x27
    343038f0:	54000269 	b.ls	3430393c <block_read+0xfc>  // b.plast
    343038f4:	8b1402c0 	add	x0, x22, x20
    343038f8:	aa1b03e2 	mov	x2, x27
    343038fc:	8b010381 	add	x1, x28, x1
    34303900:	94003bf4 	bl	343128d0 <memcpy>
    34303904:	f9400b40 	ldr	x0, [x26, #16]
    34303908:	a9425bf5 	ldp	x21, x22, [sp, #32]
    3430390c:	8b1b0000 	add	x0, x0, x27
    34303910:	8b14037b 	add	x27, x27, x20
    34303914:	a94153f3 	ldp	x19, x20, [sp, #16]
    34303918:	f9000b40 	str	x0, [x26, #16]
    3430391c:	f9403fe1 	ldr	x1, [sp, #120]
    34303920:	52800000 	mov	w0, #0x0                   	// #0
    34303924:	a94363f7 	ldp	x23, x24, [sp, #48]
    34303928:	f900003b 	str	x27, [x1]
    3430392c:	a9446bf9 	ldp	x25, x26, [sp, #64]
    34303930:	a94573fb 	ldp	x27, x28, [sp, #80]
    34303934:	a8c87bfd 	ldp	x29, x30, [sp], #128
    34303938:	d65f03c0 	ret
    3430393c:	cb0302fb 	sub	x27, x23, x3
    34303940:	8b010381 	add	x1, x28, x1
    34303944:	94003be3 	bl	343128d0 <memcpy>
    34303948:	8b130294 	add	x20, x20, x19
    3430394c:	f9400b40 	ldr	x0, [x26, #16]
    34303950:	8b000273 	add	x19, x19, x0
    34303954:	f9000b53 	str	x19, [x26, #16]
    34303958:	b5fffa1b 	cbnz	x27, 34303898 <block_read+0x58>
    3430395c:	aa1403fb 	mov	x27, x20
    34303960:	a94153f3 	ldp	x19, x20, [sp, #16]
    34303964:	a9425bf5 	ldp	x21, x22, [sp, #32]
    34303968:	17ffffed 	b	3430391c <block_read+0xdc>
    3430396c:	12800080 	mov	w0, #0xfffffffb            	// #-5
    34303970:	a94153f3 	ldp	x19, x20, [sp, #16]
    34303974:	a9425bf5 	ldp	x21, x22, [sp, #32]
    34303978:	a94363f7 	ldp	x23, x24, [sp, #48]
    3430397c:	a9446bf9 	ldp	x25, x26, [sp, #64]
    34303980:	a94573fb 	ldp	x27, x28, [sp, #80]
    34303984:	a8c87bfd 	ldp	x29, x30, [sp], #128
    34303988:	d65f03c0 	ret
    3430398c:	00000000 	udf	#0

0000000034303990 <register_io_dev_block>:
    34303990:	a9be7bfd 	stp	x29, x30, [sp, #-32]!
    34303994:	f0000161 	adrp	x1, 34332000 <__STACKS_START__+0x36c0>
    34303998:	910003fd 	mov	x29, sp
    3430399c:	f9000bf3 	str	x19, [sp, #16]
    343039a0:	aa0003f3 	mov	x19, x0
    343039a4:	91312020 	add	x0, x1, #0xc48
    343039a8:	9400018e 	bl	34303fe0 <io_register_device>
    343039ac:	35000080 	cbnz	w0, 343039bc <register_io_dev_block+0x2c>
    343039b0:	90000081 	adrp	x1, 34313000 <vprintf+0x520>
    343039b4:	9129c021 	add	x1, x1, #0xa70
    343039b8:	f9000261 	str	x1, [x19]
    343039bc:	f9400bf3 	ldr	x19, [sp, #16]
    343039c0:	a8c27bfd 	ldp	x29, x30, [sp], #32
    343039c4:	d65f03c0 	ret
	...

00000000343039d0 <device_type_fip>:
    343039d0:	52800060 	mov	w0, #0x3                   	// #3
    343039d4:	d65f03c0 	ret
	...

00000000343039e0 <fip_dev_open>:
    343039e0:	f0000183 	adrp	x3, 34336000 <mbr_sector+0xe0>
    343039e4:	b94f3462 	ldr	w2, [x3, #3892]
    343039e8:	35000362 	cbnz	w2, 34303a54 <fip_dev_open+0x74>
    343039ec:	f0000162 	adrp	x2, 34332000 <__STACKS_START__+0x36c0>
    343039f0:	91332046 	add	x6, x2, #0xcc8
    343039f4:	f9466444 	ldr	x4, [x2, #3272]
    343039f8:	b50001a4 	cbnz	x4, 34303a2c <fip_dev_open+0x4c>
    343039fc:	f0000165 	adrp	x5, 34332000 <__STACKS_START__+0x36c0>
    34303a00:	9132e0a4 	add	x4, x5, #0xcb8
    34303a04:	f9066440 	str	x0, [x2, #3272]
    34303a08:	90000080 	adrp	x0, 34313000 <vprintf+0x520>
    34303a0c:	912b2000 	add	x0, x0, #0xac8
    34303a10:	f9065ca0 	str	x0, [x5, #3256]
    34303a14:	f9000486 	str	x6, [x4, #8]
    34303a18:	52800022 	mov	w2, #0x1                   	// #1
    34303a1c:	52800000 	mov	w0, #0x0                   	// #0
    34303a20:	b90f3462 	str	w2, [x3, #3892]
    34303a24:	f9000024 	str	x4, [x1]
    34303a28:	d65f03c0 	ret
    34303a2c:	f0000161 	adrp	x1, 34332000 <__STACKS_START__+0x36c0>
    34303a30:	9132e022 	add	x2, x1, #0xcb8
    34303a34:	90000080 	adrp	x0, 34313000 <vprintf+0x520>
    34303a38:	912b2000 	add	x0, x0, #0xac8
    34303a3c:	52800024 	mov	w4, #0x1                   	// #1
    34303a40:	f9065c20 	str	x0, [x1, #3256]
    34303a44:	b90f3464 	str	w4, [x3, #3892]
    34303a48:	12800160 	mov	w0, #0xfffffff4            	// #-12
    34303a4c:	f9000446 	str	x6, [x2, #8]
    34303a50:	d65f03c0 	ret
    34303a54:	12800160 	mov	w0, #0xfffffff4            	// #-12
    34303a58:	d65f03c0 	ret
    34303a5c:	00000000 	udf	#0

0000000034303a60 <fip_file_len>:
    34303a60:	aa0003e2 	mov	x2, x0
    34303a64:	52800000 	mov	w0, #0x0                   	// #0
    34303a68:	f9400442 	ldr	x2, [x2, #8]
    34303a6c:	f9401042 	ldr	x2, [x2, #32]
    34303a70:	f9000022 	str	x2, [x1]
    34303a74:	d65f03c0 	ret
	...

0000000034303a80 <fip_file_close>:
    34303a80:	a9be7bfd 	stp	x29, x30, [sp, #-32]!
    34303a84:	f0000161 	adrp	x1, 34332000 <__STACKS_START__+0x36c0>
    34303a88:	91322021 	add	x1, x1, #0xc88
    34303a8c:	910003fd 	mov	x29, sp
    34303a90:	f9000bf3 	str	x19, [sp, #16]
    34303a94:	aa0003f3 	mov	x19, x0
    34303a98:	f9400c20 	ldr	x0, [x1, #24]
    34303a9c:	b50000c0 	cbnz	x0, 34303ab4 <fip_file_close+0x34>
    34303aa0:	f900067f 	str	xzr, [x19, #8]
    34303aa4:	52800000 	mov	w0, #0x0                   	// #0
    34303aa8:	f9400bf3 	ldr	x19, [sp, #16]
    34303aac:	a8c27bfd 	ldp	x29, x30, [sp], #32
    34303ab0:	d65f03c0 	ret
    34303ab4:	aa0103e0 	mov	x0, x1
    34303ab8:	d2800601 	mov	x1, #0x30                  	// #48
    34303abc:	97fffa4e 	bl	343023f4 <zeromem>
    34303ac0:	f900067f 	str	xzr, [x19, #8]
    34303ac4:	52800000 	mov	w0, #0x0                   	// #0
    34303ac8:	f9400bf3 	ldr	x19, [sp, #16]
    34303acc:	a8c27bfd 	ldp	x29, x30, [sp], #32
    34303ad0:	d65f03c0 	ret
	...

0000000034303ae0 <fip_dev_init>:
    34303ae0:	a9bb7bfd 	stp	x29, x30, [sp, #-80]!
    34303ae4:	aa0003e3 	mov	x3, x0
    34303ae8:	2a0103e0 	mov	w0, w1
    34303aec:	910003fd 	mov	x29, sp
    34303af0:	a90153f3 	stp	x19, x20, [sp, #16]
    34303af4:	f0000174 	adrp	x20, 34332000 <__STACKS_START__+0x36c0>
    34303af8:	f0000173 	adrp	x19, 34332000 <__STACKS_START__+0x36c0>
    34303afc:	91320282 	add	x2, x20, #0xc80
    34303b00:	9131e261 	add	x1, x19, #0xc78
    34303b04:	f90013f5 	str	x21, [sp, #32]
    34303b08:	f9400475 	ldr	x21, [x3, #8]
    34303b0c:	94002fa9 	bl	3430f9b0 <plat_get_image_source>
    34303b10:	350003e0 	cbnz	w0, 34303b8c <fip_dev_init+0xac>
    34303b14:	f9464281 	ldr	x1, [x20, #3200]
    34303b18:	9100c3e2 	add	x2, sp, #0x30
    34303b1c:	f9463e60 	ldr	x0, [x19, #3192]
    34303b20:	94000154 	bl	34304070 <io_open>
    34303b24:	35000340 	cbnz	w0, 34303b8c <fip_dev_init+0xac>
    34303b28:	f9401be0 	ldr	x0, [sp, #48]
    34303b2c:	9100e3e3 	add	x3, sp, #0x38
    34303b30:	910103e1 	add	x1, sp, #0x40
    34303b34:	d2800202 	mov	x2, #0x10                  	// #16
    34303b38:	940001aa 	bl	343041e0 <io_read>
    34303b3c:	2a0003f3 	mov	w19, w0
    34303b40:	35000140 	cbnz	w0, 34303b68 <fip_dev_init+0x88>
    34303b44:	b94043e1 	ldr	w1, [sp, #64]
    34303b48:	52800020 	mov	w0, #0x1                   	// #1
    34303b4c:	72b54c80 	movk	w0, #0xaa64, lsl #16
    34303b50:	6b00003f 	cmp	w1, w0
    34303b54:	54000181 	b.ne	34303b84 <fip_dev_init+0xa4>  // b.any
    34303b58:	b94047e0 	ldr	w0, [sp, #68]
    34303b5c:	34000140 	cbz	w0, 34303b84 <fip_dev_init+0xa4>
    34303b60:	b9404fe0 	ldr	w0, [sp, #76]
    34303b64:	790012a0 	strh	w0, [x21, #8]
    34303b68:	f9401be0 	ldr	x0, [sp, #48]
    34303b6c:	940001a5 	bl	34304200 <io_close>
    34303b70:	2a1303e0 	mov	w0, w19
    34303b74:	a94153f3 	ldp	x19, x20, [sp, #16]
    34303b78:	f94013f5 	ldr	x21, [sp, #32]
    34303b7c:	a8c57bfd 	ldp	x29, x30, [sp], #80
    34303b80:	d65f03c0 	ret
    34303b84:	12800033 	mov	w19, #0xfffffffe            	// #-2
    34303b88:	17fffff8 	b	34303b68 <fip_dev_init+0x88>
    34303b8c:	12800033 	mov	w19, #0xfffffffe            	// #-2
    34303b90:	17fffff8 	b	34303b70 <fip_dev_init+0x90>
	...

0000000034303ba0 <fip_file_read>:
    34303ba0:	a9bb7bfd 	stp	x29, x30, [sp, #-80]!
    34303ba4:	f0000166 	adrp	x6, 34332000 <__STACKS_START__+0x36c0>
    34303ba8:	f0000167 	adrp	x7, 34332000 <__STACKS_START__+0x36c0>
    34303bac:	910003fd 	mov	x29, sp
    34303bb0:	a90153f3 	stp	x19, x20, [sp, #16]
    34303bb4:	aa0003f3 	mov	x19, x0
    34303bb8:	f9463ce0 	ldr	x0, [x7, #3192]
    34303bbc:	f9001bf7 	str	x23, [sp, #48]
    34303bc0:	aa0103f7 	mov	x23, x1
    34303bc4:	a9025bf5 	stp	x21, x22, [sp, #32]
    34303bc8:	aa0203f5 	mov	x21, x2
    34303bcc:	f94640c1 	ldr	x1, [x6, #3200]
    34303bd0:	aa0303f6 	mov	x22, x3
    34303bd4:	910123e2 	add	x2, sp, #0x48
    34303bd8:	94000126 	bl	34304070 <io_open>
    34303bdc:	350003e0 	cbnz	w0, 34303c58 <fip_file_read+0xb8>
    34303be0:	f9400674 	ldr	x20, [x19, #8]
    34303be4:	52800021 	mov	w1, #0x1                   	// #1
    34303be8:	f94027e0 	ldr	x0, [sp, #72]
    34303bec:	b9400283 	ldr	w3, [x20]
    34303bf0:	f9400e82 	ldr	x2, [x20, #24]
    34303bf4:	8b020062 	add	x2, x3, x2
    34303bf8:	9400016a 	bl	343041a0 <io_seek>
    34303bfc:	34000140 	cbz	w0, 34303c24 <fip_file_read+0x84>
    34303c00:	12800033 	mov	w19, #0xfffffffe            	// #-2
    34303c04:	f94027e0 	ldr	x0, [sp, #72]
    34303c08:	9400017e 	bl	34304200 <io_close>
    34303c0c:	2a1303e0 	mov	w0, w19
    34303c10:	a94153f3 	ldp	x19, x20, [sp, #16]
    34303c14:	a9425bf5 	ldp	x21, x22, [sp, #32]
    34303c18:	f9401bf7 	ldr	x23, [sp, #48]
    34303c1c:	a8c57bfd 	ldp	x29, x30, [sp], #80
    34303c20:	d65f03c0 	ret
    34303c24:	f94027e0 	ldr	x0, [sp, #72]
    34303c28:	aa1503e2 	mov	x2, x21
    34303c2c:	aa1703e1 	mov	x1, x23
    34303c30:	910103e3 	add	x3, sp, #0x40
    34303c34:	9400016b 	bl	343041e0 <io_read>
    34303c38:	2a0003f3 	mov	w19, w0
    34303c3c:	35fffe20 	cbnz	w0, 34303c00 <fip_file_read+0x60>
    34303c40:	f94023e1 	ldr	x1, [sp, #64]
    34303c44:	b9400280 	ldr	w0, [x20]
    34303c48:	f90002c1 	str	x1, [x22]
    34303c4c:	0b010000 	add	w0, w0, w1
    34303c50:	b9000280 	str	w0, [x20]
    34303c54:	17ffffec 	b	34303c04 <fip_file_read+0x64>
    34303c58:	12800033 	mov	w19, #0xfffffffe            	// #-2
    34303c5c:	17ffffec 	b	34303c0c <fip_file_read+0x6c>

0000000034303c60 <fip_file_open>:
    34303c60:	a9bb7bfd 	stp	x29, x30, [sp, #-80]!
    34303c64:	910003fd 	mov	x29, sp
    34303c68:	a90363f7 	stp	x23, x24, [sp, #48]
    34303c6c:	f0000177 	adrp	x23, 34332000 <__STACKS_START__+0x36c0>
    34303c70:	913222f7 	add	x23, x23, #0xc88
    34303c74:	a90153f3 	stp	x19, x20, [sp, #16]
    34303c78:	f9400ee0 	ldr	x0, [x23, #24]
    34303c7c:	b50006a0 	cbnz	x0, 34303d50 <fip_file_open+0xf0>
    34303c80:	f0000160 	adrp	x0, 34332000 <__STACKS_START__+0x36c0>
    34303c84:	a9025bf5 	stp	x21, x22, [sp, #32]
    34303c88:	aa0103f5 	mov	x21, x1
    34303c8c:	f0000161 	adrp	x1, 34332000 <__STACKS_START__+0x36c0>
    34303c90:	aa0203f8 	mov	x24, x2
    34303c94:	f9463c00 	ldr	x0, [x0, #3192]
    34303c98:	910103e2 	add	x2, sp, #0x40
    34303c9c:	f9464021 	ldr	x1, [x1, #3200]
    34303ca0:	940000f4 	bl	34304070 <io_open>
    34303ca4:	350005a0 	cbnz	w0, 34303d58 <fip_file_open+0xf8>
    34303ca8:	f94023e0 	ldr	x0, [sp, #64]
    34303cac:	d2800202 	mov	x2, #0x10                  	// #16
    34303cb0:	52800021 	mov	w1, #0x1                   	// #1
    34303cb4:	12800033 	mov	w19, #0xfffffffe            	// #-2
    34303cb8:	9400013a 	bl	343041a0 <io_seek>
    34303cbc:	350002e0 	cbnz	w0, 34303d18 <fip_file_open+0xb8>
    34303cc0:	90000096 	adrp	x22, 34313000 <vprintf+0x520>
    34303cc4:	910022f4 	add	x20, x23, #0x8
    34303cc8:	912c42d6 	add	x22, x22, #0xb10
    34303ccc:	14000009 	b	34303cf0 <fip_file_open+0x90>
    34303cd0:	94003af0 	bl	34312890 <memcmp>
    34303cd4:	2a0003f3 	mov	w19, w0
    34303cd8:	34000360 	cbz	w0, 34303d44 <fip_file_open+0xe4>
    34303cdc:	aa1603e1 	mov	x1, x22
    34303ce0:	aa1403e0 	mov	x0, x20
    34303ce4:	d2800202 	mov	x2, #0x10                  	// #16
    34303ce8:	94003aea 	bl	34312890 <memcmp>
    34303cec:	34000260 	cbz	w0, 34303d38 <fip_file_open+0xd8>
    34303cf0:	f94023e0 	ldr	x0, [sp, #64]
    34303cf4:	aa1403e1 	mov	x1, x20
    34303cf8:	d2800502 	mov	x2, #0x28                  	// #40
    34303cfc:	910123e3 	add	x3, sp, #0x48
    34303d00:	94000138 	bl	343041e0 <io_read>
    34303d04:	2a0003f3 	mov	w19, w0
    34303d08:	aa1503e1 	mov	x1, x21
    34303d0c:	aa1403e0 	mov	x0, x20
    34303d10:	d2800202 	mov	x2, #0x10                  	// #16
    34303d14:	34fffdf3 	cbz	w19, 34303cd0 <fip_file_open+0x70>
    34303d18:	f94023e0 	ldr	x0, [sp, #64]
    34303d1c:	94000139 	bl	34304200 <io_close>
    34303d20:	a9425bf5 	ldp	x21, x22, [sp, #32]
    34303d24:	2a1303e0 	mov	w0, w19
    34303d28:	a94153f3 	ldp	x19, x20, [sp, #16]
    34303d2c:	a94363f7 	ldp	x23, x24, [sp, #48]
    34303d30:	a8c57bfd 	ldp	x29, x30, [sp], #80
    34303d34:	d65f03c0 	ret
    34303d38:	12800033 	mov	w19, #0xfffffffe            	// #-2
    34303d3c:	f9000eff 	str	xzr, [x23, #24]
    34303d40:	17fffff6 	b	34303d18 <fip_file_open+0xb8>
    34303d44:	b90002ff 	str	wzr, [x23]
    34303d48:	f9000717 	str	x23, [x24, #8]
    34303d4c:	17fffff3 	b	34303d18 <fip_file_open+0xb8>
    34303d50:	128002d3 	mov	w19, #0xffffffe9            	// #-23
    34303d54:	17fffff4 	b	34303d24 <fip_file_open+0xc4>
    34303d58:	12800033 	mov	w19, #0xfffffffe            	// #-2
    34303d5c:	a9425bf5 	ldp	x21, x22, [sp, #32]
    34303d60:	17fffff1 	b	34303d24 <fip_file_open+0xc4>
	...

0000000034303d70 <fip_dev_close>:
    34303d70:	f9400400 	ldr	x0, [x0, #8]
    34303d74:	f0000162 	adrp	x2, 34332000 <__STACKS_START__+0x36c0>
    34303d78:	f0000161 	adrp	x1, 34332000 <__STACKS_START__+0x36c0>
    34303d7c:	f0000163 	adrp	x3, 34332000 <__STACKS_START__+0x36c0>
    34303d80:	f906405f 	str	xzr, [x2, #3200]
    34303d84:	f9466421 	ldr	x1, [x1, #3272]
    34303d88:	f9063c7f 	str	xzr, [x3, #3192]
    34303d8c:	f9400002 	ldr	x2, [x0]
    34303d90:	eb01005f 	cmp	x2, x1
    34303d94:	54000181 	b.ne	34303dc4 <fip_dev_close+0x54>  // b.any
    34303d98:	a9bf7bfd 	stp	x29, x30, [sp, #-16]!
    34303d9c:	d2800201 	mov	x1, #0x10                  	// #16
    34303da0:	910003fd 	mov	x29, sp
    34303da4:	97fff994 	bl	343023f4 <zeromem>
    34303da8:	f0000182 	adrp	x2, 34336000 <mbr_sector+0xe0>
    34303dac:	52800000 	mov	w0, #0x0                   	// #0
    34303db0:	a8c17bfd 	ldp	x29, x30, [sp], #16
    34303db4:	b94f3441 	ldr	w1, [x2, #3892]
    34303db8:	51000421 	sub	w1, w1, #0x1
    34303dbc:	b90f3441 	str	w1, [x2, #3892]
    34303dc0:	d65f03c0 	ret
    34303dc4:	12800020 	mov	w0, #0xfffffffe            	// #-2
    34303dc8:	d65f03c0 	ret
    34303dcc:	00000000 	udf	#0

0000000034303dd0 <register_io_dev_fip>:
    34303dd0:	a9be7bfd 	stp	x29, x30, [sp, #-32]!
    34303dd4:	f0000161 	adrp	x1, 34332000 <__STACKS_START__+0x36c0>
    34303dd8:	910003fd 	mov	x29, sp
    34303ddc:	f9000bf3 	str	x19, [sp, #16]
    34303de0:	aa0003f3 	mov	x19, x0
    34303de4:	9132e020 	add	x0, x1, #0xcb8
    34303de8:	9400007e 	bl	34303fe0 <io_register_device>
    34303dec:	35000080 	cbnz	w0, 34303dfc <register_io_dev_fip+0x2c>
    34303df0:	90000081 	adrp	x1, 34313000 <vprintf+0x520>
    34303df4:	912b0021 	add	x1, x1, #0xac0
    34303df8:	f9000261 	str	x1, [x19]
    34303dfc:	f9400bf3 	ldr	x19, [sp, #16]
    34303e00:	a8c27bfd 	ldp	x29, x30, [sp], #32
    34303e04:	d65f03c0 	ret
	...

0000000034303e10 <device_type_memmap>:
    34303e10:	52800040 	mov	w0, #0x2                   	// #2
    34303e14:	d65f03c0 	ret
	...

0000000034303e20 <memmap_dev_open>:
    34303e20:	d00000a2 	adrp	x2, 34319000 <__RO_END__>
    34303e24:	52800000 	mov	w0, #0x0                   	// #0
    34303e28:	91100042 	add	x2, x2, #0x400
    34303e2c:	f9000022 	str	x2, [x1]
    34303e30:	d65f03c0 	ret
	...

0000000034303e40 <memmap_dev_close>:
    34303e40:	52800000 	mov	w0, #0x0                   	// #0
    34303e44:	d65f03c0 	ret
	...

0000000034303e50 <memmap_block_open>:
    34303e50:	f0000164 	adrp	x4, 34332000 <__STACKS_START__+0x36c0>
    34303e54:	91336083 	add	x3, x4, #0xcd8
    34303e58:	b94cd880 	ldr	w0, [x4, #3288]
    34303e5c:	35000100 	cbnz	w0, 34303e7c <memmap_block_open+0x2c>
    34303e60:	a9400425 	ldp	x5, x1, [x1]
    34303e64:	a900fc65 	stp	x5, xzr, [x3, #8]
    34303e68:	f9000c61 	str	x1, [x3, #24]
    34303e6c:	52800021 	mov	w1, #0x1                   	// #1
    34303e70:	b90cd881 	str	w1, [x4, #3288]
    34303e74:	f9000443 	str	x3, [x2, #8]
    34303e78:	d65f03c0 	ret
    34303e7c:	12800160 	mov	w0, #0xfffffff4            	// #-12
    34303e80:	d65f03c0 	ret
	...

0000000034303e90 <memmap_block_seek>:
    34303e90:	7100043f 	cmp	w1, #0x1
    34303e94:	540000a1 	b.ne	34303ea8 <memmap_block_seek+0x18>  // b.any
    34303e98:	f9400401 	ldr	x1, [x0, #8]
    34303e9c:	52800000 	mov	w0, #0x0                   	// #0
    34303ea0:	f9000822 	str	x2, [x1, #16]
    34303ea4:	d65f03c0 	ret
    34303ea8:	12800020 	mov	w0, #0xfffffffe            	// #-2
    34303eac:	d65f03c0 	ret

0000000034303eb0 <memmap_block_len>:
    34303eb0:	aa0003e2 	mov	x2, x0
    34303eb4:	52800000 	mov	w0, #0x0                   	// #0
    34303eb8:	f9400442 	ldr	x2, [x2, #8]
    34303ebc:	f9400c42 	ldr	x2, [x2, #24]
    34303ec0:	f9000022 	str	x2, [x1]
    34303ec4:	d65f03c0 	ret
	...

0000000034303ed0 <memmap_block_close>:
    34303ed0:	a9bf7bfd 	stp	x29, x30, [sp, #-16]!
    34303ed4:	aa0003e2 	mov	x2, x0
    34303ed8:	d2800401 	mov	x1, #0x20                  	// #32
    34303edc:	910003fd 	mov	x29, sp
    34303ee0:	f900045f 	str	xzr, [x2, #8]
    34303ee4:	f0000160 	adrp	x0, 34332000 <__STACKS_START__+0x36c0>
    34303ee8:	91336000 	add	x0, x0, #0xcd8
    34303eec:	97fff942 	bl	343023f4 <zeromem>
    34303ef0:	52800000 	mov	w0, #0x0                   	// #0
    34303ef4:	a8c17bfd 	ldp	x29, x30, [sp], #16
    34303ef8:	d65f03c0 	ret
    34303efc:	00000000 	udf	#0

0000000034303f00 <memmap_block_write>:
    34303f00:	a9bd7bfd 	stp	x29, x30, [sp, #-48]!
    34303f04:	910003fd 	mov	x29, sp
    34303f08:	a90153f3 	stp	x19, x20, [sp, #16]
    34303f0c:	aa0203f3 	mov	x19, x2
    34303f10:	f9400414 	ldr	x20, [x0, #8]
    34303f14:	a9025bf5 	stp	x21, x22, [sp, #32]
    34303f18:	aa0303f5 	mov	x21, x3
    34303f1c:	a9408283 	ldp	x3, x0, [x20, #8]
    34303f20:	8b020016 	add	x22, x0, x2
    34303f24:	8b030000 	add	x0, x0, x3
    34303f28:	94003a6a 	bl	343128d0 <memcpy>
    34303f2c:	f90002b3 	str	x19, [x21]
    34303f30:	f9000a96 	str	x22, [x20, #16]
    34303f34:	52800000 	mov	w0, #0x0                   	// #0
    34303f38:	a94153f3 	ldp	x19, x20, [sp, #16]
    34303f3c:	a9425bf5 	ldp	x21, x22, [sp, #32]
    34303f40:	a8c37bfd 	ldp	x29, x30, [sp], #48
    34303f44:	d65f03c0 	ret
	...

0000000034303f50 <memmap_block_read>:
    34303f50:	a9bd7bfd 	stp	x29, x30, [sp, #-48]!
    34303f54:	910003fd 	mov	x29, sp
    34303f58:	a90153f3 	stp	x19, x20, [sp, #16]
    34303f5c:	aa0203f3 	mov	x19, x2
    34303f60:	f9400414 	ldr	x20, [x0, #8]
    34303f64:	aa0103e0 	mov	x0, x1
    34303f68:	a9025bf5 	stp	x21, x22, [sp, #32]
    34303f6c:	aa0303f5 	mov	x21, x3
    34303f70:	a9408683 	ldp	x3, x1, [x20, #8]
    34303f74:	8b020036 	add	x22, x1, x2
    34303f78:	8b030021 	add	x1, x1, x3
    34303f7c:	94003a55 	bl	343128d0 <memcpy>
    34303f80:	f90002b3 	str	x19, [x21]
    34303f84:	f9000a96 	str	x22, [x20, #16]
    34303f88:	52800000 	mov	w0, #0x0                   	// #0
    34303f8c:	a94153f3 	ldp	x19, x20, [sp, #16]
    34303f90:	a9425bf5 	ldp	x21, x22, [sp, #32]
    34303f94:	a8c37bfd 	ldp	x29, x30, [sp], #48
    34303f98:	d65f03c0 	ret
    34303f9c:	00000000 	udf	#0

0000000034303fa0 <register_io_dev_memmap>:
    34303fa0:	a9be7bfd 	stp	x29, x30, [sp, #-32]!
    34303fa4:	d00000a1 	adrp	x1, 34319000 <__RO_END__>
    34303fa8:	910003fd 	mov	x29, sp
    34303fac:	f9000bf3 	str	x19, [sp, #16]
    34303fb0:	aa0003f3 	mov	x19, x0
    34303fb4:	91100020 	add	x0, x1, #0x400
    34303fb8:	9400000a 	bl	34303fe0 <io_register_device>
    34303fbc:	35000080 	cbnz	w0, 34303fcc <register_io_dev_memmap+0x2c>
    34303fc0:	90000081 	adrp	x1, 34313000 <vprintf+0x520>
    34303fc4:	912c8021 	add	x1, x1, #0xb20
    34303fc8:	f9000261 	str	x1, [x19]
    34303fcc:	f9400bf3 	ldr	x19, [sp, #16]
    34303fd0:	a8c27bfd 	ldp	x29, x30, [sp], #32
    34303fd4:	d65f03c0 	ret
	...

0000000034303fe0 <io_register_device>:
    34303fe0:	f0000182 	adrp	x2, 34336000 <mbr_sector+0xe0>
    34303fe4:	b94f3840 	ldr	w0, [x2, #3896]
    34303fe8:	7100081f 	cmp	w0, #0x2
    34303fec:	540000a8 	b.hi	34304000 <io_register_device+0x20>  // b.pmore
    34303ff0:	11000401 	add	w1, w0, #0x1
    34303ff4:	52800000 	mov	w0, #0x0                   	// #0
    34303ff8:	b90f3841 	str	w1, [x2, #3896]
    34303ffc:	d65f03c0 	ret
    34304000:	12800160 	mov	w0, #0xfffffff4            	// #-12
    34304004:	d65f03c0 	ret
	...

0000000034304010 <io_dev_open>:
    34304010:	aa0003e3 	mov	x3, x0
    34304014:	aa0103e0 	mov	x0, x1
    34304018:	aa0203e1 	mov	x1, x2
    3430401c:	f9400062 	ldr	x2, [x3]
    34304020:	aa0203f0 	mov	x16, x2
    34304024:	d61f0200 	br	x16
	...

0000000034304030 <io_dev_init>:
    34304030:	f9400002 	ldr	x2, [x0]
    34304034:	f9401c42 	ldr	x2, [x2, #56]
    34304038:	b4000062 	cbz	x2, 34304044 <io_dev_init+0x14>
    3430403c:	aa0203f0 	mov	x16, x2
    34304040:	d61f0200 	br	x16
    34304044:	52800000 	mov	w0, #0x0                   	// #0
    34304048:	d65f03c0 	ret
    3430404c:	00000000 	udf	#0

0000000034304050 <io_dev_close>:
    34304050:	f9400001 	ldr	x1, [x0]
    34304054:	f9402021 	ldr	x1, [x1, #64]
    34304058:	b4000061 	cbz	x1, 34304064 <io_dev_close+0x14>
    3430405c:	aa0103f0 	mov	x16, x1
    34304060:	d61f0200 	br	x16
    34304064:	52800000 	mov	w0, #0x0                   	// #0
    34304068:	d65f03c0 	ret
    3430406c:	00000000 	udf	#0

0000000034304070 <io_open>:
    34304070:	a9bb7bfd 	stp	x29, x30, [sp, #-80]!
    34304074:	910003fd 	mov	x29, sp
    34304078:	f90023f9 	str	x25, [sp, #64]
    3430407c:	d0000199 	adrp	x25, 34336000 <mbr_sector+0xe0>
    34304080:	b94f3f26 	ldr	w6, [x25, #3900]
    34304084:	71000cdf 	cmp	w6, #0x3
    34304088:	54000828 	b.hi	3430418c <io_open+0x11c>  // b.pmore
    3430408c:	a90153f3 	stp	x19, x20, [sp, #16]
    34304090:	d0000174 	adrp	x20, 34332000 <__STACKS_START__+0x36c0>
    34304094:	9133e294 	add	x20, x20, #0xcf8
    34304098:	a9025bf5 	stp	x21, x22, [sp, #32]
    3430409c:	aa0003f6 	mov	x22, x0
    343040a0:	d2800003 	mov	x3, #0x0                   	// #0
    343040a4:	a90363f7 	stp	x23, x24, [sp, #48]
    343040a8:	aa0203f7 	mov	x23, x2
    343040ac:	f8637a84 	ldr	x4, [x20, x3, lsl #3]
    343040b0:	b4000204 	cbz	x4, 343040f0 <io_open+0x80>
    343040b4:	91000463 	add	x3, x3, #0x1
    343040b8:	f100107f 	cmp	x3, #0x4
    343040bc:	54ffff81 	b.ne	343040ac <io_open+0x3c>  // b.any
    343040c0:	110004c6 	add	w6, w6, #0x1
    343040c4:	d0000161 	adrp	x1, 34332000 <__STACKS_START__+0x36c0>
    343040c8:	b90f3f26 	str	w6, [x25, #3900]
    343040cc:	91346021 	add	x1, x1, #0xd18
    343040d0:	12800020 	mov	w0, #0xfffffffe            	// #-2
    343040d4:	f9000281 	str	x1, [x20]
    343040d8:	a94153f3 	ldp	x19, x20, [sp, #16]
    343040dc:	a9425bf5 	ldp	x21, x22, [sp, #32]
    343040e0:	a94363f7 	ldp	x23, x24, [sp, #48]
    343040e4:	f94023f9 	ldr	x25, [sp, #64]
    343040e8:	a8c57bfd 	ldp	x29, x30, [sp], #80
    343040ec:	d65f03c0 	ret
    343040f0:	f94002c0 	ldr	x0, [x22]
    343040f4:	2a0303f5 	mov	w21, w3
    343040f8:	d0000178 	adrp	x24, 34332000 <__STACKS_START__+0x36c0>
    343040fc:	91346318 	add	x24, x24, #0xd18
    34304100:	8b031313 	add	x19, x24, x3, lsl #4
    34304104:	110004c6 	add	w6, w6, #0x1
    34304108:	f9400403 	ldr	x3, [x0, #8]
    3430410c:	f8357a93 	str	x19, [x20, x21, lsl #3]
    34304110:	aa1303e2 	mov	x2, x19
    34304114:	aa1603e0 	mov	x0, x22
    34304118:	b90f3f26 	str	w6, [x25, #3900]
    3430411c:	d63f0060 	blr	x3
    34304120:	d2800001 	mov	x1, #0x0                   	// #0
    34304124:	35000140 	cbnz	w0, 3430414c <io_open+0xdc>
    34304128:	d37ceea5 	lsl	x5, x21, #4
    3430412c:	f94023f9 	ldr	x25, [sp, #64]
    34304130:	f8256b16 	str	x22, [x24, x5]
    34304134:	a9425bf5 	ldp	x21, x22, [sp, #32]
    34304138:	f90002f3 	str	x19, [x23]
    3430413c:	a94153f3 	ldp	x19, x20, [sp, #16]
    34304140:	a94363f7 	ldp	x23, x24, [sp, #48]
    34304144:	a8c57bfd 	ldp	x29, x30, [sp], #80
    34304148:	d65f03c0 	ret
    3430414c:	f8617a82 	ldr	x2, [x20, x1, lsl #3]
    34304150:	2a0103e3 	mov	w3, w1
    34304154:	91000421 	add	x1, x1, #0x1
    34304158:	eb13005f 	cmp	x2, x19
    3430415c:	54000080 	b.eq	3430416c <io_open+0xfc>  // b.none
    34304160:	f100103f 	cmp	x1, #0x4
    34304164:	54ffff41 	b.ne	3430414c <io_open+0xdc>  // b.any
    34304168:	17ffffdc 	b	343040d8 <io_open+0x68>
    3430416c:	b94f3f21 	ldr	w1, [x25, #3900]
    34304170:	f8235a9f 	str	xzr, [x20, w3, uxtw #3]
    34304174:	51000421 	sub	w1, w1, #0x1
    34304178:	b90f3f21 	str	w1, [x25, #3900]
    3430417c:	a94153f3 	ldp	x19, x20, [sp, #16]
    34304180:	a9425bf5 	ldp	x21, x22, [sp, #32]
    34304184:	a94363f7 	ldp	x23, x24, [sp, #48]
    34304188:	17ffffd7 	b	343040e4 <io_open+0x74>
    3430418c:	12800160 	mov	w0, #0xfffffff4            	// #-12
    34304190:	17ffffd5 	b	343040e4 <io_open+0x74>
	...

00000000343041a0 <io_seek>:
    343041a0:	f9400003 	ldr	x3, [x0]
    343041a4:	f9400063 	ldr	x3, [x3]
    343041a8:	f9400863 	ldr	x3, [x3, #16]
    343041ac:	b4000063 	cbz	x3, 343041b8 <io_seek+0x18>
    343041b0:	aa0303f0 	mov	x16, x3
    343041b4:	d61f0200 	br	x16
    343041b8:	12800240 	mov	w0, #0xffffffed            	// #-19
    343041bc:	d65f03c0 	ret

00000000343041c0 <io_size>:
    343041c0:	f9400002 	ldr	x2, [x0]
    343041c4:	f9400042 	ldr	x2, [x2]
    343041c8:	f9400c42 	ldr	x2, [x2, #24]
    343041cc:	b4000062 	cbz	x2, 343041d8 <io_size+0x18>
    343041d0:	aa0203f0 	mov	x16, x2
    343041d4:	d61f0200 	br	x16
    343041d8:	12800240 	mov	w0, #0xffffffed            	// #-19
    343041dc:	d65f03c0 	ret

00000000343041e0 <io_read>:
    343041e0:	f9400004 	ldr	x4, [x0]
    343041e4:	f9400084 	ldr	x4, [x4]
    343041e8:	f9401084 	ldr	x4, [x4, #32]
    343041ec:	b4000064 	cbz	x4, 343041f8 <io_read+0x18>
    343041f0:	aa0403f0 	mov	x16, x4
    343041f4:	d61f0200 	br	x16
    343041f8:	12800240 	mov	w0, #0xffffffed            	// #-19
    343041fc:	d65f03c0 	ret

0000000034304200 <io_close>:
    34304200:	a9be7bfd 	stp	x29, x30, [sp, #-32]!
    34304204:	52800004 	mov	w4, #0x0                   	// #0
    34304208:	910003fd 	mov	x29, sp
    3430420c:	f9400001 	ldr	x1, [x0]
    34304210:	f9400021 	ldr	x1, [x1]
    34304214:	f9401821 	ldr	x1, [x1, #48]
    34304218:	f9000bf3 	str	x19, [sp, #16]
    3430421c:	aa0003f3 	mov	x19, x0
    34304220:	b4000061 	cbz	x1, 3430422c <io_close+0x2c>
    34304224:	d63f0020 	blr	x1
    34304228:	2a0003e4 	mov	w4, w0
    3430422c:	d0000163 	adrp	x3, 34332000 <__STACKS_START__+0x36c0>
    34304230:	9133e063 	add	x3, x3, #0xcf8
    34304234:	d2800001 	mov	x1, #0x0                   	// #0
    34304238:	f8617862 	ldr	x2, [x3, x1, lsl #3]
    3430423c:	2a0103e0 	mov	w0, w1
    34304240:	91000421 	add	x1, x1, #0x1
    34304244:	eb02027f 	cmp	x19, x2
    34304248:	540000e0 	b.eq	34304264 <io_close+0x64>  // b.none
    3430424c:	f100103f 	cmp	x1, #0x4
    34304250:	54ffff41 	b.ne	34304238 <io_close+0x38>  // b.any
    34304254:	2a0403e0 	mov	w0, w4
    34304258:	f9400bf3 	ldr	x19, [sp, #16]
    3430425c:	a8c27bfd 	ldp	x29, x30, [sp], #32
    34304260:	d65f03c0 	ret
    34304264:	d0000181 	adrp	x1, 34336000 <mbr_sector+0xe0>
    34304268:	f820587f 	str	xzr, [x3, w0, uxtw #3]
    3430426c:	f9400bf3 	ldr	x19, [sp, #16]
    34304270:	b94f3c20 	ldr	w0, [x1, #3900]
    34304274:	a8c27bfd 	ldp	x29, x30, [sp], #32
    34304278:	51000400 	sub	w0, w0, #0x1
    3430427c:	b90f3c20 	str	w0, [x1, #3900]
    34304280:	2a0403e0 	mov	w0, w4
    34304284:	d65f03c0 	ret
	...

0000000034304290 <mmc_send_cmd>:
    34304290:	a9bb7bfd 	stp	x29, x30, [sp, #-80]!
    34304294:	910003fd 	mov	x29, sp
    34304298:	a90153f3 	stp	x19, x20, [sp, #16]
    3430429c:	2a0203f4 	mov	w20, w2
    343042a0:	aa0303f3 	mov	x19, x3
    343042a4:	a9025bf5 	stp	x21, x22, [sp, #32]
    343042a8:	2a0003f6 	mov	w22, w0
    343042ac:	2a0103f5 	mov	w21, w1
    343042b0:	9100c3e0 	add	x0, sp, #0x30
    343042b4:	d2800381 	mov	x1, #0x1c                  	// #28
    343042b8:	97fff84f 	bl	343023f4 <zeromem>
    343042bc:	290657f6 	stp	w22, w21, [sp, #48]
    343042c0:	d0000161 	adrp	x1, 34332000 <__STACKS_START__+0x36c0>
    343042c4:	9100c3e0 	add	x0, sp, #0x30
    343042c8:	f946b821 	ldr	x1, [x1, #3440]
    343042cc:	f9400421 	ldr	x1, [x1, #8]
    343042d0:	b9003bf4 	str	w20, [sp, #56]
    343042d4:	d63f0020 	blr	x1
    343042d8:	7100001f 	cmp	w0, #0x0
    343042dc:	fa400a64 	ccmp	x19, #0x0, #0x4, eq  // eq = none
    343042e0:	540000a0 	b.eq	343042f4 <mmc_send_cmd+0x64>  // b.none
    343042e4:	29478fe4 	ldp	w4, w3, [sp, #60]
    343042e8:	29000e64 	stp	w4, w3, [x19]
    343042ec:	294887e2 	ldp	w2, w1, [sp, #68]
    343042f0:	29010662 	stp	w2, w1, [x19, #8]
    343042f4:	a94153f3 	ldp	x19, x20, [sp, #16]
    343042f8:	a9425bf5 	ldp	x21, x22, [sp, #32]
    343042fc:	a8c57bfd 	ldp	x29, x30, [sp], #80
    34304300:	d65f03c0 	ret
	...

0000000034304310 <mmc_device_state>:
    34304310:	a9bd7bfd 	stp	x29, x30, [sp, #-48]!
    34304314:	910003fd 	mov	x29, sp
    34304318:	a90153f3 	stp	x19, x20, [sp, #16]
    3430431c:	d0000194 	adrp	x20, 34336000 <mbr_sector+0xe0>
    34304320:	913d2294 	add	x20, x20, #0xf48
    34304324:	52800093 	mov	w19, #0x4                   	// #4
    34304328:	a9027fff 	stp	xzr, xzr, [sp, #32]
    3430432c:	b9400281 	ldr	w1, [x20]
    34304330:	528001a2 	mov	w2, #0xd                   	// #13
    34304334:	910083e3 	add	x3, sp, #0x20
    34304338:	2a0203e0 	mov	w0, w2
    3430433c:	53103c21 	lsl	w1, w1, #16
    34304340:	97ffffd4 	bl	34304290 <mmc_send_cmd>
    34304344:	350001e0 	cbnz	w0, 34304380 <mmc_device_state+0x70>
    34304348:	b94023e0 	ldr	w0, [sp, #32]
    3430434c:	37380280 	tbnz	w0, #7, 3430439c <mmc_device_state+0x8c>
    34304350:	51000673 	sub	w19, w19, #0x1
    34304354:	374001c0 	tbnz	w0, #8, 3430438c <mmc_device_state+0x7c>
    34304358:	3100067f 	cmn	w19, #0x1
    3430435c:	54fffe81 	b.ne	3430432c <mmc_device_state+0x1c>  // b.any
    34304360:	f0000060 	adrp	x0, 34313000 <vprintf+0x520>
    34304364:	528000a1 	mov	w1, #0x5                   	// #5
    34304368:	912dc000 	add	x0, x0, #0xb70
    3430436c:	97fffb91 	bl	343031b0 <tf_log>
    34304370:	12800080 	mov	w0, #0xfffffffb            	// #-5
    34304374:	a94153f3 	ldp	x19, x20, [sp, #16]
    34304378:	a8c37bfd 	ldp	x29, x30, [sp], #48
    3430437c:	d65f03c0 	ret
    34304380:	b94023e0 	ldr	w0, [sp, #32]
    34304384:	51000673 	sub	w19, w19, #0x1
    34304388:	3647fe80 	tbz	w0, #8, 34304358 <mmc_device_state+0x48>
    3430438c:	d3493000 	ubfx	x0, x0, #9, #4
    34304390:	a94153f3 	ldp	x19, x20, [sp, #16]
    34304394:	a8c37bfd 	ldp	x29, x30, [sp], #48
    34304398:	d65f03c0 	ret
    3430439c:	12800080 	mov	w0, #0xfffffffb            	// #-5
    343043a0:	17fffff5 	b	34304374 <mmc_device_state+0x64>
	...

00000000343043b0 <sd_switch.constprop.0>:
    343043b0:	a9bd7bfd 	stp	x29, x30, [sp, #-48]!
    343043b4:	d2800802 	mov	x2, #0x40                  	// #64
    343043b8:	910003fd 	mov	x29, sp
    343043bc:	f90013f5 	str	x21, [sp, #32]
    343043c0:	d0000175 	adrp	x21, 34332000 <__STACKS_START__+0x36c0>
    343043c4:	a90153f3 	stp	x19, x20, [sp, #16]
    343043c8:	d0000173 	adrp	x19, 34332000 <__STACKS_START__+0x36c0>
    343043cc:	9135e273 	add	x19, x19, #0xd78
    343043d0:	f946baa3 	ldr	x3, [x21, #3440]
    343043d4:	2a0003f4 	mov	w20, w0
    343043d8:	aa1303e1 	mov	x1, x19
    343043dc:	52800000 	mov	w0, #0x0                   	// #0
    343043e0:	f9400c63 	ldr	x3, [x3, #24]
    343043e4:	d63f0060 	blr	x3
    343043e8:	2a0003e2 	mov	w2, w0
    343043ec:	340000c0 	cbz	w0, 34304404 <sd_switch.constprop.0+0x54>
    343043f0:	2a0203e0 	mov	w0, w2
    343043f4:	a94153f3 	ldp	x19, x20, [sp, #16]
    343043f8:	f94013f5 	ldr	x21, [sp, #32]
    343043fc:	a8c37bfd 	ldp	x29, x30, [sp], #48
    34304400:	d65f03c0 	ret
    34304404:	528001a2 	mov	w2, #0xd                   	// #13
    34304408:	529ffe21 	mov	w1, #0xfff1                	// #65521
    3430440c:	72a01fe1 	movk	w1, #0xff, lsl #16
    34304410:	d2800003 	mov	x3, #0x0                   	// #0
    34304414:	2a010281 	orr	w1, w20, w1
    34304418:	528000c0 	mov	w0, #0x6                   	// #6
    3430441c:	97ffff9d 	bl	34304290 <mmc_send_cmd>
    34304420:	2a0003e2 	mov	w2, w0
    34304424:	35fffe60 	cbnz	w0, 343043f0 <sd_switch.constprop.0+0x40>
    34304428:	f946baa3 	ldr	x3, [x21, #3440]
    3430442c:	aa1303e1 	mov	x1, x19
    34304430:	a94153f3 	ldp	x19, x20, [sp, #16]
    34304434:	d2800802 	mov	x2, #0x40                  	// #64
    34304438:	f94013f5 	ldr	x21, [sp, #32]
    3430443c:	a8c37bfd 	ldp	x29, x30, [sp], #48
    34304440:	f9401063 	ldr	x3, [x3, #32]
    34304444:	aa0303f0 	mov	x16, x3
    34304448:	d61f0200 	br	x16
    3430444c:	00000000 	udf	#0

0000000034304450 <mmc_set_ios>:
    34304450:	a9bb7bfd 	stp	x29, x30, [sp, #-80]!
    34304454:	d0000162 	adrp	x2, 34332000 <__STACKS_START__+0x36c0>
    34304458:	910003fd 	mov	x29, sp
    3430445c:	a9025bf5 	stp	x21, x22, [sp, #32]
    34304460:	2a0003f5 	mov	w21, w0
    34304464:	f946b440 	ldr	x0, [x2, #3432]
    34304468:	a90153f3 	stp	x19, x20, [sp, #16]
    3430446c:	2a0103f4 	mov	w20, w1
    34304470:	b9401800 	ldr	w0, [x0, #24]
    34304474:	340002a0 	cbz	w0, 343044c8 <mmc_set_ios+0x78>
    34304478:	d0000176 	adrp	x22, 34332000 <__STACKS_START__+0x36c0>
    3430447c:	7100083f 	cmp	w1, #0x2
    34304480:	a90363f7 	stp	x23, x24, [sp, #48]
    34304484:	d0000178 	adrp	x24, 34332000 <__STACKS_START__+0x36c0>
    34304488:	91300317 	add	x23, x24, #0xc00
    3430448c:	f946bac3 	ldr	x3, [x22, #3440]
    34304490:	1a9f1434 	csinc	w20, w1, wzr, ne  // ne = any
    34304494:	d2800102 	mov	x2, #0x8                   	// #8
    34304498:	aa1703e1 	mov	x1, x23
    3430449c:	52800000 	mov	w0, #0x0                   	// #0
    343044a0:	f9400c63 	ldr	x3, [x3, #24]
    343044a4:	d63f0060 	blr	x3
    343044a8:	2a0003f3 	mov	w19, w0
    343044ac:	340002e0 	cbz	w0, 34304508 <mmc_set_ios+0xb8>
    343044b0:	a94363f7 	ldp	x23, x24, [sp, #48]
    343044b4:	2a1303e0 	mov	w0, w19
    343044b8:	a94153f3 	ldp	x19, x20, [sp, #16]
    343044bc:	a9425bf5 	ldp	x21, x22, [sp, #32]
    343044c0:	a8c57bfd 	ldp	x29, x30, [sp], #80
    343044c4:	d65f03c0 	ret
    343044c8:	d0000160 	adrp	x0, 34332000 <__STACKS_START__+0x36c0>
    343044cc:	52a20001 	mov	w1, #0x10000000            	// #268435456
    343044d0:	b94d6400 	ldr	w0, [x0, #3428]
    343044d4:	12060c00 	and	w0, w0, #0x3c000000
    343044d8:	6b01001f 	cmp	w0, w1
    343044dc:	54000640 	b.eq	343045a4 <mmc_set_ios+0x154>  // b.none
    343044e0:	d0000176 	adrp	x22, 34332000 <__STACKS_START__+0x36c0>
    343044e4:	f946bac2 	ldr	x2, [x22, #3440]
    343044e8:	2a1403e1 	mov	w1, w20
    343044ec:	2a1503e0 	mov	w0, w21
    343044f0:	a94153f3 	ldp	x19, x20, [sp, #16]
    343044f4:	a9425bf5 	ldp	x21, x22, [sp, #32]
    343044f8:	a8c57bfd 	ldp	x29, x30, [sp], #80
    343044fc:	f9400842 	ldr	x2, [x2, #16]
    34304500:	aa0203f0 	mov	x16, x2
    34304504:	d61f0200 	br	x16
    34304508:	a9046bf9 	stp	x25, x26, [sp, #64]
    3430450c:	d0000199 	adrp	x25, 34336000 <mbr_sector+0xe0>
    34304510:	d2800003 	mov	x3, #0x0                   	// #0
    34304514:	b94f4b21 	ldr	w1, [x25, #3912]
    34304518:	528001a2 	mov	w2, #0xd                   	// #13
    3430451c:	528006e0 	mov	w0, #0x37                  	// #55
    34304520:	53103c21 	lsl	w1, w1, #16
    34304524:	97ffff5b 	bl	34304290 <mmc_send_cmd>
    34304528:	2a0003f3 	mov	w19, w0
    3430452c:	35000800 	cbnz	w0, 3430462c <mmc_set_ios+0x1dc>
    34304530:	d2800003 	mov	x3, #0x0                   	// #0
    34304534:	528001a2 	mov	w2, #0xd                   	// #13
    34304538:	52800001 	mov	w1, #0x0                   	// #0
    3430453c:	52800660 	mov	w0, #0x33                  	// #51
    34304540:	97ffff54 	bl	34304290 <mmc_send_cmd>
    34304544:	7100001f 	cmp	w0, #0x0
    34304548:	1a9f07e4 	cset	w4, ne  // ne = any
    3430454c:	528000ba 	mov	w26, #0x5                   	// #5
    34304550:	5100075a 	sub	w26, w26, #0x1
    34304554:	d2800003 	mov	x3, #0x0                   	// #0
    34304558:	528001a2 	mov	w2, #0xd                   	// #13
    3430455c:	52800001 	mov	w1, #0x0                   	// #0
    34304560:	52800660 	mov	w0, #0x33                  	// #51
    34304564:	34000424 	cbz	w4, 343045e8 <mmc_set_ios+0x198>
    34304568:	97ffff4a 	bl	34304290 <mmc_send_cmd>
    3430456c:	7100001f 	cmp	w0, #0x0
    34304570:	1a9f07e4 	cset	w4, ne  // ne = any
    34304574:	7100035f 	cmp	w26, #0x0
    34304578:	2a0003f3 	mov	w19, w0
    3430457c:	7a400884 	ccmp	w4, #0x0, #0x4, eq  // eq = none
    34304580:	54fffe80 	b.eq	34304550 <mmc_set_ios+0x100>  // b.none
    34304584:	2a1303e2 	mov	w2, w19
    34304588:	f0000060 	adrp	x0, 34313000 <vprintf+0x520>
    3430458c:	528000a1 	mov	w1, #0x5                   	// #5
    34304590:	912e4000 	add	x0, x0, #0xb90
    34304594:	97fffb07 	bl	343031b0 <tf_log>
    34304598:	a94363f7 	ldp	x23, x24, [sp, #48]
    3430459c:	a9446bf9 	ldp	x25, x26, [sp, #64]
    343045a0:	17ffffc5 	b	343044b4 <mmc_set_ios+0x64>
    343045a4:	52800020 	mov	w0, #0x1                   	// #1
    343045a8:	53181e81 	ubfiz	w1, w20, #8, #8
    343045ac:	72a076e0 	movk	w0, #0x3b7, lsl #16
    343045b0:	d2800003 	mov	x3, #0x0                   	// #0
    343045b4:	2a000021 	orr	w1, w1, w0
    343045b8:	528003a2 	mov	w2, #0x1d                  	// #29
    343045bc:	528000c0 	mov	w0, #0x6                   	// #6
    343045c0:	97ffff34 	bl	34304290 <mmc_send_cmd>
    343045c4:	2a0003f3 	mov	w19, w0
    343045c8:	35fff760 	cbnz	w0, 343044b4 <mmc_set_ios+0x64>
    343045cc:	d503201f 	nop
    343045d0:	97ffff50 	bl	34304310 <mmc_device_state>
    343045d4:	2a0003f3 	mov	w19, w0
    343045d8:	37fff6e0 	tbnz	w0, #31, 343044b4 <mmc_set_ios+0x64>
    343045dc:	71001c1f 	cmp	w0, #0x7
    343045e0:	54ffff80 	b.eq	343045d0 <mmc_set_ios+0x180>  // b.none
    343045e4:	17ffffbf 	b	343044e0 <mmc_set_ios+0x90>
    343045e8:	f946bac3 	ldr	x3, [x22, #3440]
    343045ec:	aa1703e1 	mov	x1, x23
    343045f0:	d2800102 	mov	x2, #0x8                   	// #8
    343045f4:	52800000 	mov	w0, #0x0                   	// #0
    343045f8:	f9401063 	ldr	x3, [x3, #32]
    343045fc:	d63f0060 	blr	x3
    34304600:	2a0003f3 	mov	w19, w0
    34304604:	35000140 	cbnz	w0, 3430462c <mmc_set_ios+0x1dc>
    34304608:	b94f4b21 	ldr	w1, [x25, #3912]
    3430460c:	d2800003 	mov	x3, #0x0                   	// #0
    34304610:	b94c0317 	ldr	w23, [x24, #3072]
    34304614:	528001a2 	mov	w2, #0xd                   	// #13
    34304618:	528006e0 	mov	w0, #0x37                  	// #55
    3430461c:	53103c21 	lsl	w1, w1, #16
    34304620:	97ffff1c 	bl	34304290 <mmc_send_cmd>
    34304624:	2a0003f3 	mov	w19, w0
    34304628:	34000100 	cbz	w0, 34304648 <mmc_set_ios+0x1f8>
    3430462c:	2a1303e0 	mov	w0, w19
    34304630:	a94153f3 	ldp	x19, x20, [sp, #16]
    34304634:	a9425bf5 	ldp	x21, x22, [sp, #32]
    34304638:	a94363f7 	ldp	x23, x24, [sp, #48]
    3430463c:	a9446bf9 	ldp	x25, x26, [sp, #64]
    34304640:	a8c57bfd 	ldp	x29, x30, [sp], #80
    34304644:	d65f03c0 	ret
    34304648:	f27602ff 	tst	x23, #0x400
    3430464c:	d2800003 	mov	x3, #0x0                   	// #0
    34304650:	7a411a80 	ccmp	w20, #0x1, #0x0, ne  // ne = any
    34304654:	528001a2 	mov	w2, #0xd                   	// #13
    34304658:	1a9f17e1 	cset	w1, eq  // eq = none
    3430465c:	528000c0 	mov	w0, #0x6                   	// #6
    34304660:	531f7821 	lsl	w1, w1, #1
    34304664:	97ffff0b 	bl	34304290 <mmc_send_cmd>
    34304668:	2a0003f3 	mov	w19, w0
    3430466c:	34000080 	cbz	w0, 3430467c <mmc_set_ios+0x22c>
    34304670:	17ffffef 	b	3430462c <mmc_set_ios+0x1dc>
    34304674:	71001c1f 	cmp	w0, #0x7
    34304678:	540000a1 	b.ne	3430468c <mmc_set_ios+0x23c>  // b.any
    3430467c:	97ffff25 	bl	34304310 <mmc_device_state>
    34304680:	2a0003f3 	mov	w19, w0
    34304684:	36ffff80 	tbz	w0, #31, 34304674 <mmc_set_ios+0x224>
    34304688:	17ffffe9 	b	3430462c <mmc_set_ios+0x1dc>
    3430468c:	a94363f7 	ldp	x23, x24, [sp, #48]
    34304690:	a9446bf9 	ldp	x25, x26, [sp, #64]
    34304694:	17ffff94 	b	343044e4 <mmc_set_ios+0x94>
	...

00000000343046a0 <mmc_read_blocks>:
    343046a0:	a9bc7bfd 	stp	x29, x30, [sp, #-64]!
    343046a4:	910003fd 	mov	x29, sp
    343046a8:	f9001bf7 	str	x23, [sp, #48]
    343046ac:	d0000177 	adrp	x23, 34332000 <__STACKS_START__+0x36c0>
    343046b0:	a90153f3 	stp	x19, x20, [sp, #16]
    343046b4:	2a0003f4 	mov	w20, w0
    343046b8:	aa0203f3 	mov	x19, x2
    343046bc:	f946bae3 	ldr	x3, [x23, #3440]
    343046c0:	a9025bf5 	stp	x21, x22, [sp, #32]
    343046c4:	aa0103f5 	mov	x21, x1
    343046c8:	f9400c63 	ldr	x3, [x3, #24]
    343046cc:	d63f0060 	blr	x3
    343046d0:	35000460 	cbnz	w0, 3430475c <mmc_read_blocks+0xbc>
    343046d4:	d0000196 	adrp	x22, 34336000 <mbr_sector+0xe0>
    343046d8:	b94f42c0 	ldr	w0, [x22, #3904]
    343046dc:	370004c0 	tbnz	w0, #0, 34304774 <mmc_read_blocks+0xd4>
    343046e0:	f108027f 	cmp	x19, #0x200
    343046e4:	54000548 	b.hi	3430478c <mmc_read_blocks+0xec>  // b.pmore
    343046e8:	52800220 	mov	w0, #0x11                  	// #17
    343046ec:	d0000182 	adrp	x2, 34336000 <mbr_sector+0xe0>
    343046f0:	2a1403e1 	mov	w1, w20
    343046f4:	b94f4442 	ldr	w2, [x2, #3908]
    343046f8:	7203045f 	tst	w2, #0x60000000
    343046fc:	540000e1 	b.ne	34304718 <mmc_read_blocks+0x78>  // b.any
    34304700:	d0000162 	adrp	x2, 34332000 <__STACKS_START__+0x36c0>
    34304704:	53175a81 	lsl	w1, w20, #9
    34304708:	f946b442 	ldr	x2, [x2, #3432]
    3430470c:	b9401842 	ldr	w2, [x2, #24]
    34304710:	7100085f 	cmp	w2, #0x2
    34304714:	1a941021 	csel	w1, w1, w20, ne  // ne = any
    34304718:	d2800003 	mov	x3, #0x0                   	// #0
    3430471c:	528001a2 	mov	w2, #0xd                   	// #13
    34304720:	97fffedc 	bl	34304290 <mmc_send_cmd>
    34304724:	350001c0 	cbnz	w0, 3430475c <mmc_read_blocks+0xbc>
    34304728:	f946bae3 	ldr	x3, [x23, #3440]
    3430472c:	aa1503e1 	mov	x1, x21
    34304730:	2a1403e0 	mov	w0, w20
    34304734:	aa1303e2 	mov	x2, x19
    34304738:	f9401063 	ldr	x3, [x3, #32]
    3430473c:	d63f0060 	blr	x3
    34304740:	340000a0 	cbz	w0, 34304754 <mmc_read_blocks+0xb4>
    34304744:	14000006 	b	3430475c <mmc_read_blocks+0xbc>
    34304748:	51001000 	sub	w0, w0, #0x4
    3430474c:	7100041f 	cmp	w0, #0x1
    34304750:	54000229 	b.ls	34304794 <mmc_read_blocks+0xf4>  // b.plast
    34304754:	97fffeef 	bl	34304310 <mmc_device_state>
    34304758:	36ffff80 	tbz	w0, #31, 34304748 <mmc_read_blocks+0xa8>
    3430475c:	d2800000 	mov	x0, #0x0                   	// #0
    34304760:	a94153f3 	ldp	x19, x20, [sp, #16]
    34304764:	a9425bf5 	ldp	x21, x22, [sp, #32]
    34304768:	f9401bf7 	ldr	x23, [sp, #48]
    3430476c:	a8c47bfd 	ldp	x29, x30, [sp], #64
    34304770:	d65f03c0 	ret
    34304774:	d349a261 	ubfx	x1, x19, #9, #32
    34304778:	d2800003 	mov	x3, #0x0                   	// #0
    3430477c:	528001a2 	mov	w2, #0xd                   	// #13
    34304780:	528002e0 	mov	w0, #0x17                  	// #23
    34304784:	97fffec3 	bl	34304290 <mmc_send_cmd>
    34304788:	35fffea0 	cbnz	w0, 3430475c <mmc_read_blocks+0xbc>
    3430478c:	52800240 	mov	w0, #0x12                  	// #18
    34304790:	17ffffd7 	b	343046ec <mmc_read_blocks+0x4c>
    34304794:	f108027f 	cmp	x19, #0x200
    34304798:	b94f42c1 	ldr	w1, [x22, #3904]
    3430479c:	1a9f97e0 	cset	w0, hi  // hi = pmore
    343047a0:	6a21001f 	bics	wzr, w0, w1
    343047a4:	540000e1 	b.ne	343047c0 <mmc_read_blocks+0x120>  // b.any
    343047a8:	aa1303e0 	mov	x0, x19
    343047ac:	a94153f3 	ldp	x19, x20, [sp, #16]
    343047b0:	a9425bf5 	ldp	x21, x22, [sp, #32]
    343047b4:	f9401bf7 	ldr	x23, [sp, #48]
    343047b8:	a8c47bfd 	ldp	x29, x30, [sp], #64
    343047bc:	d65f03c0 	ret
    343047c0:	d2800003 	mov	x3, #0x0                   	// #0
    343047c4:	528003a2 	mov	w2, #0x1d                  	// #29
    343047c8:	52800001 	mov	w1, #0x0                   	// #0
    343047cc:	52800180 	mov	w0, #0xc                   	// #12
    343047d0:	97fffeb0 	bl	34304290 <mmc_send_cmd>
    343047d4:	35fffc40 	cbnz	w0, 3430475c <mmc_read_blocks+0xbc>
    343047d8:	aa1303e0 	mov	x0, x19
    343047dc:	17fffff4 	b	343047ac <mmc_read_blocks+0x10c>

00000000343047e0 <mmc_init>:
    343047e0:	a9b87bfd 	stp	x29, x30, [sp, #-128]!
    343047e4:	910003fd 	mov	x29, sp
    343047e8:	a90363f7 	stp	x23, x24, [sp, #48]
    343047ec:	2a0103f8 	mov	w24, w1
    343047f0:	f9400001 	ldr	x1, [x0]
    343047f4:	a90153f3 	stp	x19, x20, [sp, #16]
    343047f8:	a9025bf5 	stp	x21, x22, [sp, #32]
    343047fc:	d0000176 	adrp	x22, 34332000 <__STACKS_START__+0x36c0>
    34304800:	a9046bf9 	stp	x25, x26, [sp, #64]
    34304804:	d000019a 	adrp	x26, 34336000 <mbr_sector+0xe0>
    34304808:	2a0203f9 	mov	w25, w2
    3430480c:	a90573fb 	stp	x27, x28, [sp, #80]
    34304810:	d000017b 	adrp	x27, 34332000 <__STACKS_START__+0x36c0>
    34304814:	b90f4343 	str	w3, [x26, #3904]
    34304818:	f906b6c4 	str	x4, [x22, #3432]
    3430481c:	f906bb60 	str	x0, [x27, #3440]
    34304820:	d63f0020 	blr	x1
    34304824:	d2800003 	mov	x3, #0x0                   	// #0
    34304828:	52800002 	mov	w2, #0x0                   	// #0
    3430482c:	52800001 	mov	w1, #0x0                   	// #0
    34304830:	52800000 	mov	w0, #0x0                   	// #0
    34304834:	97fffe97 	bl	34304290 <mmc_send_cmd>
    34304838:	2a0003f3 	mov	w19, w0
    3430483c:	34000120 	cbz	w0, 34304860 <mmc_init+0x80>
    34304840:	2a1303e0 	mov	w0, w19
    34304844:	a94153f3 	ldp	x19, x20, [sp, #16]
    34304848:	a9425bf5 	ldp	x21, x22, [sp, #32]
    3430484c:	a94363f7 	ldp	x23, x24, [sp, #48]
    34304850:	a9446bf9 	ldp	x25, x26, [sp, #64]
    34304854:	a94573fb 	ldp	x27, x28, [sp, #80]
    34304858:	a8c87bfd 	ldp	x29, x30, [sp], #128
    3430485c:	d65f03c0 	ret
    34304860:	52800040 	mov	w0, #0x2                   	// #2
    34304864:	97fffb03 	bl	34303470 <mdelay>
    34304868:	f946b6c0 	ldr	x0, [x22, #3432]
    3430486c:	b9401801 	ldr	w1, [x0, #24]
    34304870:	350003e1 	cbnz	w1, 343048ec <mmc_init+0x10c>
    34304874:	b9401414 	ldr	w20, [x0, #20]
    34304878:	35000d74 	cbnz	w20, 34304a24 <mmc_init+0x244>
    3430487c:	52800c95 	mov	w21, #0x64                  	// #100
    34304880:	52800154 	mov	w20, #0xa                   	// #10
    34304884:	52901017 	mov	w23, #0x8080                	// #32896
    34304888:	72a81ff7 	movk	w23, #0x40ff, lsl #16
    3430488c:	14000006 	b	343048a4 <mmc_init+0xc4>
    34304890:	b94073e1 	ldr	w1, [sp, #112]
    34304894:	37f81021 	tbnz	w1, #31, 34304a98 <mmc_init+0x2b8>
    34304898:	97fffaf6 	bl	34303470 <mdelay>
    3430489c:	6b15027f 	cmp	w19, w21
    343048a0:	54000ca2 	b.cs	34304a34 <mmc_init+0x254>  // b.hs, b.nlast
    343048a4:	9101c3e3 	add	x3, sp, #0x70
    343048a8:	52800022 	mov	w2, #0x1                   	// #1
    343048ac:	2a1703e1 	mov	w1, w23
    343048b0:	2a0203e0 	mov	w0, w2
    343048b4:	97fffe77 	bl	34304290 <mmc_send_cmd>
    343048b8:	11000673 	add	w19, w19, #0x1
    343048bc:	2a0003e3 	mov	w3, w0
    343048c0:	2a1403e0 	mov	w0, w20
    343048c4:	34fffe63 	cbz	w3, 34304890 <mmc_init+0xb0>
    343048c8:	2a0303f3 	mov	w19, w3
    343048cc:	2a1303e0 	mov	w0, w19
    343048d0:	a94153f3 	ldp	x19, x20, [sp, #16]
    343048d4:	a9425bf5 	ldp	x21, x22, [sp, #32]
    343048d8:	a94363f7 	ldp	x23, x24, [sp, #48]
    343048dc:	a9446bf9 	ldp	x25, x26, [sp, #64]
    343048e0:	a94573fb 	ldp	x27, x28, [sp, #80]
    343048e4:	a8c87bfd 	ldp	x29, x30, [sp], #128
    343048e8:	d65f03c0 	ret
    343048ec:	910183e3 	add	x3, sp, #0x60
    343048f0:	528001a2 	mov	w2, #0xd                   	// #13
    343048f4:	52803541 	mov	w1, #0x1aa                 	// #426
    343048f8:	52800100 	mov	w0, #0x8                   	// #8
    343048fc:	97fffe65 	bl	34304290 <mmc_send_cmd>
    34304900:	2a0003f3 	mov	w19, w0
    34304904:	35fff9e0 	cbnz	w0, 34304840 <mmc_init+0x60>
    34304908:	394183e0 	ldrb	w0, [sp, #96]
    3430490c:	7102a81f 	cmp	w0, #0xaa
    34304910:	54000ca0 	b.eq	34304aa4 <mmc_init+0x2c4>  // b.none
    34304914:	d2800003 	mov	x3, #0x0                   	// #0
    34304918:	528000e2 	mov	w2, #0x7                   	// #7
    3430491c:	52800001 	mov	w1, #0x0                   	// #0
    34304920:	52800040 	mov	w0, #0x2                   	// #2
    34304924:	97fffe5b 	bl	34304290 <mmc_send_cmd>
    34304928:	2a0003f3 	mov	w19, w0
    3430492c:	35fff8a0 	cbnz	w0, 34304840 <mmc_init+0x60>
    34304930:	f946b6c0 	ldr	x0, [x22, #3432]
    34304934:	b9401800 	ldr	w0, [x0, #24]
    34304938:	35000980 	cbnz	w0, 34304a68 <mmc_init+0x288>
    3430493c:	d000019c 	adrp	x28, 34336000 <mbr_sector+0xe0>
    34304940:	528000c0 	mov	w0, #0x6                   	// #6
    34304944:	d2800003 	mov	x3, #0x0                   	// #0
    34304948:	528001a2 	mov	w2, #0xd                   	// #13
    3430494c:	b90f4b80 	str	w0, [x28, #3912]
    34304950:	52a000c1 	mov	w1, #0x60000               	// #393216
    34304954:	52800060 	mov	w0, #0x3                   	// #3
    34304958:	97fffe4e 	bl	34304290 <mmc_send_cmd>
    3430495c:	2a0003f3 	mov	w19, w0
    34304960:	35fff700 	cbnz	w0, 34304840 <mmc_init+0x60>
    34304964:	b94f4b81 	ldr	w1, [x28, #3912]
    34304968:	910183f4 	add	x20, sp, #0x60
    3430496c:	53103c21 	lsl	w1, w1, #16
    34304970:	aa1403e3 	mov	x3, x20
    34304974:	528000e2 	mov	w2, #0x7                   	// #7
    34304978:	52800120 	mov	w0, #0x9                   	// #9
    3430497c:	97fffe45 	bl	34304290 <mmc_send_cmd>
    34304980:	2a0003f3 	mov	w19, w0
    34304984:	35fff5e0 	cbnz	w0, 34304840 <mmc_init+0x60>
    34304988:	d0000177 	adrp	x23, 34332000 <__STACKS_START__+0x36c0>
    3430498c:	913562f5 	add	x21, x23, #0xd58
    34304990:	aa1403e1 	mov	x1, x20
    34304994:	d2800202 	mov	x2, #0x10                  	// #16
    34304998:	aa1503e0 	mov	x0, x21
    3430499c:	940037cd 	bl	343128d0 <memcpy>
    343049a0:	b94f4b81 	ldr	w1, [x28, #3912]
    343049a4:	d2800003 	mov	x3, #0x0                   	// #0
    343049a8:	528001a2 	mov	w2, #0xd                   	// #13
    343049ac:	528000e0 	mov	w0, #0x7                   	// #7
    343049b0:	53103c21 	lsl	w1, w1, #16
    343049b4:	97fffe37 	bl	34304290 <mmc_send_cmd>
    343049b8:	2a0003f3 	mov	w19, w0
    343049bc:	35fff420 	cbnz	w0, 34304840 <mmc_init+0x60>
    343049c0:	97fffe54 	bl	34304310 <mmc_device_state>
    343049c4:	2a0003f3 	mov	w19, w0
    343049c8:	37fff3c0 	tbnz	w0, #31, 34304840 <mmc_init+0x60>
    343049cc:	7100101f 	cmp	w0, #0x4
    343049d0:	54ffff81 	b.ne	343049c0 <mmc_init+0x1e0>  // b.any
    343049d4:	b94f4340 	ldr	w0, [x26, #3904]
    343049d8:	360800a0 	tbz	w0, #1, 343049ec <mmc_init+0x20c>
    343049dc:	f946b6c0 	ldr	x0, [x22, #3432]
    343049e0:	b9401800 	ldr	w0, [x0, #24]
    343049e4:	7100081f 	cmp	w0, #0x2
    343049e8:	54000c40 	b.eq	34304b70 <mmc_init+0x390>  // b.none
    343049ec:	2a1903e1 	mov	w1, w25
    343049f0:	2a1803e0 	mov	w0, w24
    343049f4:	97fffe97 	bl	34304450 <mmc_set_ios>
    343049f8:	2a0003f3 	mov	w19, w0
    343049fc:	35fff233 	cbnz	w19, 34304840 <mmc_init+0x60>
    34304a00:	f946b6c2 	ldr	x2, [x22, #3432]
    34304a04:	b9401843 	ldr	w3, [x2, #24]
    34304a08:	7100047f 	cmp	w3, #0x1
    34304a0c:	540017e0 	b.eq	34304d08 <mmc_init+0x528>  // b.none
    34304a10:	7100087f 	cmp	w3, #0x2
    34304a14:	540015c0 	b.eq	34304ccc <mmc_init+0x4ec>  // b.none
    34304a18:	34000b83 	cbz	w3, 34304b88 <mmc_init+0x3a8>
    34304a1c:	128002b3 	mov	w19, #0xffffffea            	// #-22
    34304a20:	17ffff88 	b	34304840 <mmc_init+0x60>
    34304a24:	52807d15 	mov	w21, #0x3e8                 	// #1000
    34304a28:	1ad40ab5 	udiv	w21, w21, w20
    34304a2c:	710fa29f 	cmp	w20, #0x3e8
    34304a30:	54fff2a9 	b.ls	34304884 <mmc_init+0xa4>  // b.plast
    34304a34:	2a1503e1 	mov	w1, w21
    34304a38:	12800093 	mov	w19, #0xfffffffb            	// #-5
    34304a3c:	f0000060 	adrp	x0, 34313000 <vprintf+0x520>
    34304a40:	912f0000 	add	x0, x0, #0xbc0
    34304a44:	97fff9db 	bl	343031b0 <tf_log>
    34304a48:	2a1303e0 	mov	w0, w19
    34304a4c:	a94153f3 	ldp	x19, x20, [sp, #16]
    34304a50:	a9425bf5 	ldp	x21, x22, [sp, #32]
    34304a54:	a94363f7 	ldp	x23, x24, [sp, #48]
    34304a58:	a9446bf9 	ldp	x25, x26, [sp, #64]
    34304a5c:	a94573fb 	ldp	x27, x28, [sp, #80]
    34304a60:	a8c87bfd 	ldp	x29, x30, [sp], #128
    34304a64:	d65f03c0 	ret
    34304a68:	910183f4 	add	x20, sp, #0x60
    34304a6c:	528001a2 	mov	w2, #0xd                   	// #13
    34304a70:	aa1403e3 	mov	x3, x20
    34304a74:	52800001 	mov	w1, #0x0                   	// #0
    34304a78:	52800060 	mov	w0, #0x3                   	// #3
    34304a7c:	97fffe05 	bl	34304290 <mmc_send_cmd>
    34304a80:	2a0003f3 	mov	w19, w0
    34304a84:	35ffede0 	cbnz	w0, 34304840 <mmc_init+0x60>
    34304a88:	d000019c 	adrp	x28, 34336000 <mbr_sector+0xe0>
    34304a8c:	7940c7e1 	ldrh	w1, [sp, #98]
    34304a90:	b90f4b81 	str	w1, [x28, #3912]
    34304a94:	17ffffb6 	b	3430496c <mmc_init+0x18c>
    34304a98:	d0000180 	adrp	x0, 34336000 <mbr_sector+0xe0>
    34304a9c:	b90f4401 	str	w1, [x0, #3908]
    34304aa0:	17ffff9d 	b	34304914 <mmc_init+0x134>
    34304aa4:	f946b6c0 	ldr	x0, [x22, #3432]
    34304aa8:	b9401414 	ldr	w20, [x0, #20]
    34304aac:	34000414 	cbz	w20, 34304b2c <mmc_init+0x34c>
    34304ab0:	52807d15 	mov	w21, #0x3e8                 	// #1000
    34304ab4:	1ad40ab5 	udiv	w21, w21, w20
    34304ab8:	710fa29f 	cmp	w20, #0x3e8
    34304abc:	540001e9 	b.ls	34304af8 <mmc_init+0x318>  // b.plast
    34304ac0:	1400001e 	b	34304b38 <mmc_init+0x358>
    34304ac4:	f946b6c1 	ldr	x1, [x22, #3432]
    34304ac8:	9135a2d7 	add	x23, x22, #0xd68
    34304acc:	b9401021 	ldr	w1, [x1, #16]
    34304ad0:	32020021 	orr	w1, w1, #0x40000000
    34304ad4:	97fffdef 	bl	34304290 <mmc_send_cmd>
    34304ad8:	2a0003e1 	mov	w1, w0
    34304adc:	2a1403e0 	mov	w0, w20
    34304ae0:	35000221 	cbnz	w1, 34304b24 <mmc_init+0x344>
    34304ae4:	b94073e1 	ldr	w1, [sp, #112]
    34304ae8:	37f80341 	tbnz	w1, #31, 34304b50 <mmc_init+0x370>
    34304aec:	97fffa61 	bl	34303470 <mdelay>
    34304af0:	6b15027f 	cmp	w19, w21
    34304af4:	54000222 	b.cs	34304b38 <mmc_init+0x358>  // b.hs, b.nlast
    34304af8:	d2800003 	mov	x3, #0x0                   	// #0
    34304afc:	528001a2 	mov	w2, #0xd                   	// #13
    34304b00:	52800001 	mov	w1, #0x0                   	// #0
    34304b04:	528006e0 	mov	w0, #0x37                  	// #55
    34304b08:	97fffde2 	bl	34304290 <mmc_send_cmd>
    34304b0c:	2a0003e1 	mov	w1, w0
    34304b10:	52800022 	mov	w2, #0x1                   	// #1
    34304b14:	9101c3e3 	add	x3, sp, #0x70
    34304b18:	0b020273 	add	w19, w19, w2
    34304b1c:	52800520 	mov	w0, #0x29                  	// #41
    34304b20:	34fffd21 	cbz	w1, 34304ac4 <mmc_init+0x2e4>
    34304b24:	2a0103f3 	mov	w19, w1
    34304b28:	17ffff46 	b	34304840 <mmc_init+0x60>
    34304b2c:	52800c95 	mov	w21, #0x64                  	// #100
    34304b30:	52800154 	mov	w20, #0xa                   	// #10
    34304b34:	17fffff1 	b	34304af8 <mmc_init+0x318>
    34304b38:	2a1503e1 	mov	w1, w21
    34304b3c:	f0000060 	adrp	x0, 34313000 <vprintf+0x520>
    34304b40:	12800093 	mov	w19, #0xfffffffb            	// #-5
    34304b44:	912f8000 	add	x0, x0, #0xbe0
    34304b48:	97fff99a 	bl	343031b0 <tf_log>
    34304b4c:	17ffff3d 	b	34304840 <mmc_init+0x60>
    34304b50:	f94002e2 	ldr	x2, [x23]
    34304b54:	d0000183 	adrp	x3, 34336000 <mbr_sector+0xe0>
    34304b58:	f262003f 	tst	x1, #0x40000000
    34304b5c:	52800040 	mov	w0, #0x2                   	// #2
    34304b60:	b90f4461 	str	w1, [x3, #3908]
    34304b64:	1a9f1400 	csinc	w0, w0, wzr, ne  // ne = any
    34304b68:	b9001840 	str	w0, [x2, #24]
    34304b6c:	17ffff6a 	b	34304914 <mmc_init+0x134>
    34304b70:	5285a000 	mov	w0, #0x2d00                	// #11520
    34304b74:	2a1903e1 	mov	w1, w25
    34304b78:	72a02620 	movk	w0, #0x131, lsl #16
    34304b7c:	97fffe35 	bl	34304450 <mmc_set_ios>
    34304b80:	2a0003f3 	mov	w19, w0
    34304b84:	17ffff9e 	b	343049fc <mmc_init+0x21c>
    34304b88:	f946bb60 	ldr	x0, [x27, #3440]
    34304b8c:	52804001 	mov	w1, #0x200                 	// #512
    34304b90:	d0000174 	adrp	x20, 34332000 <__STACKS_START__+0x36c0>
    34304b94:	91280294 	add	x20, x20, #0xa00
    34304b98:	f9400c03 	ldr	x3, [x0, #24]
    34304b9c:	b9000841 	str	w1, [x2, #8]
    34304ba0:	52800000 	mov	w0, #0x0                   	// #0
    34304ba4:	aa1403e1 	mov	x1, x20
    34304ba8:	d2804002 	mov	x2, #0x200                 	// #512
    34304bac:	d63f0060 	blr	x3
    34304bb0:	35000260 	cbnz	w0, 34304bfc <mmc_init+0x41c>
    34304bb4:	52800001 	mov	w1, #0x0                   	// #0
    34304bb8:	d2800003 	mov	x3, #0x0                   	// #0
    34304bbc:	528001a2 	mov	w2, #0xd                   	// #13
    34304bc0:	52800100 	mov	w0, #0x8                   	// #8
    34304bc4:	97fffdb3 	bl	34304290 <mmc_send_cmd>
    34304bc8:	2a0003e1 	mov	w1, w0
    34304bcc:	35fffac0 	cbnz	w0, 34304b24 <mmc_init+0x344>
    34304bd0:	f946bb63 	ldr	x3, [x27, #3440]
    34304bd4:	aa1403e1 	mov	x1, x20
    34304bd8:	d2804002 	mov	x2, #0x200                 	// #512
    34304bdc:	f9401063 	ldr	x3, [x3, #32]
    34304be0:	d63f0060 	blr	x3
    34304be4:	34000080 	cbz	w0, 34304bf4 <mmc_init+0x414>
    34304be8:	14000005 	b	34304bfc <mmc_init+0x41c>
    34304bec:	7100101f 	cmp	w0, #0x4
    34304bf0:	540000a0 	b.eq	34304c04 <mmc_init+0x424>  // b.none
    34304bf4:	97fffdc7 	bl	34304310 <mmc_device_state>
    34304bf8:	36ffffa0 	tbz	w0, #31, 34304bec <mmc_init+0x40c>
    34304bfc:	2a0003f3 	mov	w19, w0
    34304c00:	17ffff10 	b	34304840 <mmc_init+0x60>
    34304c04:	f946b6c2 	ldr	x2, [x22, #3432]
    34304c08:	b940d684 	ldr	w4, [x20, #212]
    34304c0c:	394032a1 	ldrb	w1, [x21, #12]
    34304c10:	b9400845 	ldr	w5, [x2, #8]
    34304c14:	b9401843 	ldr	w3, [x2, #24]
    34304c18:	d3431820 	ubfx	x0, x1, #3, #4
    34304c1c:	9ba57c84 	umull	x4, w4, w5
    34304c20:	f9000044 	str	x4, [x2]
    34304c24:	350006a3 	cbnz	w3, 34304cf8 <mmc_init+0x518>
    34304c28:	f0000064 	adrp	x4, 34313000 <vprintf+0x520>
    34304c2c:	91306084 	add	x4, x4, #0xc18
    34304c30:	38604880 	ldrb	w0, [x4, w0, uxtw]
    34304c34:	72000821 	ands	w1, w1, #0x7
    34304c38:	540000c0 	b.eq	34304c50 <mmc_init+0x470>  // b.none
    34304c3c:	d503201f 	nop
    34304c40:	0b000800 	add	w0, w0, w0, lsl #2
    34304c44:	71000421 	subs	w1, w1, #0x1
    34304c48:	531f7800 	lsl	w0, w0, #1
    34304c4c:	54ffffa1 	b.ne	34304c40 <mmc_init+0x460>  // b.any
    34304c50:	5284e204 	mov	w4, #0x2710                	// #10000
    34304c54:	b94f4341 	ldr	w1, [x26, #3904]
    34304c58:	1b047c00 	mul	w0, w0, w4
    34304c5c:	b9000c40 	str	w0, [x2, #12]
    34304c60:	360fdf01 	tbz	w1, #1, 34304840 <mmc_init+0x60>
    34304c64:	7100087f 	cmp	w3, #0x2
    34304c68:	54ffdec1 	b.ne	34304840 <mmc_init+0x60>  // b.any
    34304c6c:	52800000 	mov	w0, #0x0                   	// #0
    34304c70:	97fffdd0 	bl	343043b0 <sd_switch.constprop.0>
    34304c74:	35000660 	cbnz	w0, 34304d40 <mmc_init+0x560>
    34304c78:	d0000174 	adrp	x20, 34332000 <__STACKS_START__+0x36c0>
    34304c7c:	9135e294 	add	x20, x20, #0xd78
    34304c80:	79401a80 	ldrh	w0, [x20, #12]
    34304c84:	364805e0 	tbz	w0, #9, 34304d40 <mmc_init+0x560>
    34304c88:	52b00000 	mov	w0, #0x80000000            	// #-2147483648
    34304c8c:	97fffdc9 	bl	343043b0 <sd_switch.constprop.0>
    34304c90:	2a0003f3 	mov	w19, w0
    34304c94:	35ffdd60 	cbnz	w0, 34304840 <mmc_init+0x60>
    34304c98:	f946bb62 	ldr	x2, [x27, #3440]
    34304c9c:	39404281 	ldrb	w1, [x20, #16]
    34304ca0:	f946b6c0 	ldr	x0, [x22, #3432]
    34304ca4:	f9400842 	ldr	x2, [x2, #16]
    34304ca8:	360004c1 	tbz	w1, #0, 34304d40 <mmc_init+0x560>
    34304cac:	529e1001 	mov	w1, #0xf080                	// #61568
    34304cb0:	72a05f41 	movk	w1, #0x2fa, lsl #16
    34304cb4:	b9000c01 	str	w1, [x0, #12]
    34304cb8:	2a1903e1 	mov	w1, w25
    34304cbc:	2a1803e0 	mov	w0, w24
    34304cc0:	d63f0040 	blr	x2
    34304cc4:	2a0003f3 	mov	w19, w0
    34304cc8:	17fffede 	b	34304840 <mmc_init+0x60>
    34304ccc:	f94006a0 	ldr	x0, [x21, #8]
    34304cd0:	52804004 	mov	w4, #0x200                 	// #512
    34304cd4:	79400ea1 	ldrh	w1, [x21, #6]
    34304cd8:	b9000844 	str	w4, [x2, #8]
    34304cdc:	d3701400 	ubfiz	x0, x0, #16, #6
    34304ce0:	aa010000 	orr	x0, x0, x1
    34304ce4:	91000400 	add	x0, x0, #0x1
    34304ce8:	d36db000 	lsl	x0, x0, #19
    34304cec:	394032a1 	ldrb	w1, [x21, #12]
    34304cf0:	f9000040 	str	x0, [x2]
    34304cf4:	d3431820 	ubfx	x0, x1, #3, #4
    34304cf8:	f0000064 	adrp	x4, 34313000 <vprintf+0x520>
    34304cfc:	91302084 	add	x4, x4, #0xc08
    34304d00:	38604880 	ldrb	w0, [x4, w0, uxtw]
    34304d04:	17ffffcc 	b	34304c34 <mmc_init+0x454>
    34304d08:	f94006a0 	ldr	x0, [x21, #8]
    34304d0c:	f946aee4 	ldr	x4, [x23, #3416]
    34304d10:	aa0003e1 	mov	x1, x0
    34304d14:	d37e2400 	ubfiz	x0, x0, #2, #10
    34304d18:	d3504c21 	ubfx	x1, x1, #16, #4
    34304d1c:	aa44f800 	orr	x0, x0, x4, lsr #62
    34304d20:	d36fc484 	ubfx	x4, x4, #47, #3
    34304d24:	11000884 	add	w4, w4, #0x2
    34304d28:	91000400 	add	x0, x0, #0x1
    34304d2c:	9ac42000 	lsl	x0, x0, x4
    34304d30:	1ac12064 	lsl	w4, w3, w1
    34304d34:	b9000844 	str	w4, [x2, #8]
    34304d38:	9b047c00 	mul	x0, x0, x4
    34304d3c:	17ffffec 	b	34304cec <mmc_init+0x50c>
    34304d40:	f946bb62 	ldr	x2, [x27, #3440]
    34304d44:	2a1903e1 	mov	w1, w25
    34304d48:	f946b6c3 	ldr	x3, [x22, #3432]
    34304d4c:	2a1803e0 	mov	w0, w24
    34304d50:	f9400842 	ldr	x2, [x2, #16]
    34304d54:	b9000c78 	str	w24, [x3, #12]
    34304d58:	d63f0040 	blr	x2
    34304d5c:	2a0003f3 	mov	w19, w0
    34304d60:	17fffeb8 	b	34304840 <mmc_init+0x60>
	...

0000000034304d70 <get_clk_driver_by_name>:
    34304d70:	a9bb7bfd 	stp	x29, x30, [sp, #-80]!
    34304d74:	d2800201 	mov	x1, #0x10                  	// #16
    34304d78:	910003fd 	mov	x29, sp
    34304d7c:	a9025bf5 	stp	x21, x22, [sp, #32]
    34304d80:	aa0003f6 	mov	x22, x0
    34304d84:	94003acf 	bl	343138c0 <strnlen>
    34304d88:	b40004d6 	cbz	x22, 34304e20 <get_clk_driver_by_name+0xb0>
    34304d8c:	a90363f7 	stp	x23, x24, [sp, #48]
    34304d90:	b00000b7 	adrp	x23, 34319000 <__RO_END__>
    34304d94:	911042f7 	add	x23, x23, #0x410
    34304d98:	aa0003f5 	mov	x21, x0
    34304d9c:	91000400 	add	x0, x0, #0x1
    34304da0:	f1003c1f 	cmp	x0, #0xf
    34304da4:	f9400ee1 	ldr	x1, [x23, #24]
    34304da8:	9a8082b5 	csel	x21, x21, x0, hi  // hi = pmore
    34304dac:	b4000421 	cbz	x1, 34304e30 <get_clk_driver_by_name+0xc0>
    34304db0:	f90023f9 	str	x25, [sp, #64]
    34304db4:	d0000179 	adrp	x25, 34332000 <__STACKS_START__+0x36c0>
    34304db8:	91370339 	add	x25, x25, #0xdc0
    34304dbc:	a90153f3 	stp	x19, x20, [sp, #16]
    34304dc0:	91005338 	add	x24, x25, #0x14
    34304dc4:	d2800013 	mov	x19, #0x0                   	// #0
    34304dc8:	d2800014 	mov	x20, #0x0                   	// #0
    34304dcc:	14000005 	b	34304de0 <get_clk_driver_by_name+0x70>
    34304dd0:	f9400ee1 	ldr	x1, [x23, #24]
    34304dd4:	9100a273 	add	x19, x19, #0x28
    34304dd8:	eb14003f 	cmp	x1, x20
    34304ddc:	540001c9 	b.ls	34304e14 <get_clk_driver_by_name+0xa4>  // b.plast
    34304de0:	91000694 	add	x20, x20, #0x1
    34304de4:	aa1503e2 	mov	x2, x21
    34304de8:	8b130301 	add	x1, x24, x19
    34304dec:	aa1603e0 	mov	x0, x22
    34304df0:	940036a8 	bl	34312890 <memcmp>
    34304df4:	35fffee0 	cbnz	w0, 34304dd0 <get_clk_driver_by_name+0x60>
    34304df8:	8b130320 	add	x0, x25, x19
    34304dfc:	a94153f3 	ldp	x19, x20, [sp, #16]
    34304e00:	a9425bf5 	ldp	x21, x22, [sp, #32]
    34304e04:	a94363f7 	ldp	x23, x24, [sp, #48]
    34304e08:	f94023f9 	ldr	x25, [sp, #64]
    34304e0c:	a8c57bfd 	ldp	x29, x30, [sp], #80
    34304e10:	d65f03c0 	ret
    34304e14:	a94153f3 	ldp	x19, x20, [sp, #16]
    34304e18:	a94363f7 	ldp	x23, x24, [sp, #48]
    34304e1c:	f94023f9 	ldr	x25, [sp, #64]
    34304e20:	d2800000 	mov	x0, #0x0                   	// #0
    34304e24:	a9425bf5 	ldp	x21, x22, [sp, #32]
    34304e28:	a8c57bfd 	ldp	x29, x30, [sp], #80
    34304e2c:	d65f03c0 	ret
    34304e30:	a94363f7 	ldp	x23, x24, [sp, #48]
    34304e34:	17fffffb 	b	34304e20 <get_clk_driver_by_name+0xb0>
	...

0000000034304e40 <init_fake_plat_driver>:
    34304e40:	a9bd7bfd 	stp	x29, x30, [sp, #-48]!
    34304e44:	910003fd 	mov	x29, sp
    34304e48:	a9025bf5 	stp	x21, x22, [sp, #32]
    34304e4c:	d0000175 	adrp	x21, 34332000 <__STACKS_START__+0x36c0>
    34304e50:	a90153f3 	stp	x19, x20, [sp, #16]
    34304e54:	aa0003f4 	mov	x20, x0
    34304e58:	f946dea0 	ldr	x0, [x21, #3512]
    34304e5c:	b40000a0 	cbz	x0, 34304e70 <init_fake_plat_driver+0x30>
    34304e60:	a94153f3 	ldp	x19, x20, [sp, #16]
    34304e64:	a9425bf5 	ldp	x21, x22, [sp, #32]
    34304e68:	a8c37bfd 	ldp	x29, x30, [sp], #48
    34304e6c:	d65f03c0 	ret
    34304e70:	aa0103f3 	mov	x19, x1
    34304e74:	b00000a0 	adrp	x0, 34319000 <__RO_END__>
    34304e78:	91104000 	add	x0, x0, #0x410
    34304e7c:	940019f5 	bl	3430b650 <alloc_mem_pool_elem>
    34304e80:	aa0003f6 	mov	x22, x0
    34304e84:	f906dea0 	str	x0, [x21, #3512]
    34304e88:	d28001e1 	mov	x1, #0xf                   	// #15
    34304e8c:	aa1303e0 	mov	x0, x19
    34304e90:	f90006d4 	str	x20, [x22, #8]
    34304e94:	94003a8b 	bl	343138c0 <strnlen>
    34304e98:	8b0002c3 	add	x3, x22, x0
    34304e9c:	aa0003e2 	mov	x2, x0
    34304ea0:	aa1303e1 	mov	x1, x19
    34304ea4:	910052c0 	add	x0, x22, #0x14
    34304ea8:	3900507f 	strb	wzr, [x3, #20]
    34304eac:	a94153f3 	ldp	x19, x20, [sp, #16]
    34304eb0:	a9425bf5 	ldp	x21, x22, [sp, #32]
    34304eb4:	a8c37bfd 	ldp	x29, x30, [sp], #48
    34304eb8:	14003686 	b	343128d0 <memcpy>
    34304ebc:	00000000 	udf	#0

0000000034304ec0 <s32_set_ddr_clock_state.constprop.0>:
    34304ec0:	a9be7bfd 	stp	x29, x30, [sp, #-32]!
    34304ec4:	b00000a1 	adrp	x1, 34319000 <__RO_END__>
    34304ec8:	b00000a0 	adrp	x0, 34319000 <__RO_END__>
    34304ecc:	910003fd 	mov	x29, sp
    34304ed0:	91152021 	add	x1, x1, #0x548
    34304ed4:	91130000 	add	x0, x0, #0x4c0
    34304ed8:	940011e2 	bl	34309660 <s32gen1_set_parent>
    34304edc:	34000060 	cbz	w0, 34304ee8 <s32_set_ddr_clock_state.constprop.0+0x28>
    34304ee0:	a8c27bfd 	ldp	x29, x30, [sp], #32
    34304ee4:	d65f03c0 	ret
    34304ee8:	b00000a1 	adrp	x1, 34319000 <__RO_END__>
    34304eec:	b00000a0 	adrp	x0, 34319000 <__RO_END__>
    34304ef0:	91136021 	add	x1, x1, #0x4d8
    34304ef4:	9117c000 	add	x0, x0, #0x5f0
    34304ef8:	940011da 	bl	34309660 <s32gen1_set_parent>
    34304efc:	35ffff20 	cbnz	w0, 34304ee0 <s32_set_ddr_clock_state.constprop.0+0x20>
    34304f00:	a90153f3 	stp	x19, x20, [sp, #16]
    34304f04:	d2820013 	mov	x19, #0x1000                	// #4096
    34304f08:	f2abebd3 	movk	x19, #0x5f5e, lsl #16
    34304f0c:	b00000a0 	adrp	x0, 34319000 <__RO_END__>
    34304f10:	aa1303e1 	mov	x1, x19
    34304f14:	9113c000 	add	x0, x0, #0x4f0
    34304f18:	940011b2 	bl	343095e0 <s32gen1_set_rate>
    34304f1c:	eb13001f 	cmp	x0, x19
    34304f20:	540001e1 	b.ne	34304f5c <s32_set_ddr_clock_state.constprop.0+0x9c>  // b.any
    34304f24:	b00000b3 	adrp	x19, 34319000 <__RO_END__>
    34304f28:	d2810014 	mov	x20, #0x800                 	// #2048
    34304f2c:	9112a273 	add	x19, x19, #0x4a8
    34304f30:	f2a5f5f4 	movk	x20, #0x2faf, lsl #16
    34304f34:	aa1303e0 	mov	x0, x19
    34304f38:	aa1403e1 	mov	x1, x20
    34304f3c:	940011a9 	bl	343095e0 <s32gen1_set_rate>
    34304f40:	eb14001f 	cmp	x0, x20
    34304f44:	540000c1 	b.ne	34304f5c <s32_set_ddr_clock_state.constprop.0+0x9c>  // b.any
    34304f48:	aa1303e0 	mov	x0, x19
    34304f4c:	52800021 	mov	w1, #0x1                   	// #1
    34304f50:	a94153f3 	ldp	x19, x20, [sp, #16]
    34304f54:	a8c27bfd 	ldp	x29, x30, [sp], #32
    34304f58:	14000b2e 	b	34307c10 <s32gen1_enable>
    34304f5c:	128002a0 	mov	w0, #0xffffffea            	// #-22
    34304f60:	a94153f3 	ldp	x19, x20, [sp, #16]
    34304f64:	17ffffdf 	b	34304ee0 <s32_set_ddr_clock_state.constprop.0+0x20>
	...

0000000034304f70 <s32_a53_clock_setup>:
    34304f70:	a9bd7bfd 	stp	x29, x30, [sp, #-48]!
    34304f74:	b00000a0 	adrp	x0, 34319000 <__RO_END__>
    34304f78:	911a6000 	add	x0, x0, #0x698
    34304f7c:	910003fd 	mov	x29, sp
    34304f80:	94000ee8 	bl	34308b20 <mmap_clk_regions>
    34304f84:	34000060 	cbz	w0, 34304f90 <s32_a53_clock_setup+0x20>
    34304f88:	a8c37bfd 	ldp	x29, x30, [sp], #48
    34304f8c:	d65f03c0 	ret
    34304f90:	a90153f3 	stp	x19, x20, [sp, #16]
    34304f94:	f0000173 	adrp	x19, 34333000 <drivers+0x240>
    34304f98:	91060273 	add	x19, x19, #0x180
    34304f9c:	aa1303e0 	mov	x0, x19
    34304fa0:	94000ff8 	bl	34308f80 <s32gen1_get_early_clks_freqs>
    34304fa4:	35000100 	cbnz	w0, 34304fc4 <s32_a53_clock_setup+0x54>
    34304fa8:	b00000b4 	adrp	x20, 34319000 <__RO_END__>
    34304fac:	91152294 	add	x20, x20, #0x548
    34304fb0:	b00000a0 	adrp	x0, 34319000 <__RO_END__>
    34304fb4:	aa1403e1 	mov	x1, x20
    34304fb8:	91118000 	add	x0, x0, #0x460
    34304fbc:	940011a9 	bl	34309660 <s32gen1_set_parent>
    34304fc0:	34000080 	cbz	w0, 34304fd0 <s32_a53_clock_setup+0x60>
    34304fc4:	a94153f3 	ldp	x19, x20, [sp, #16]
    34304fc8:	a8c37bfd 	ldp	x29, x30, [sp], #48
    34304fcc:	d65f03c0 	ret
    34304fd0:	f90013f5 	str	x21, [sp, #32]
    34304fd4:	b00000b5 	adrp	x21, 34319000 <__RO_END__>
    34304fd8:	9111e2b5 	add	x21, x21, #0x478
    34304fdc:	b00000a0 	adrp	x0, 34319000 <__RO_END__>
    34304fe0:	aa1503e1 	mov	x1, x21
    34304fe4:	91176000 	add	x0, x0, #0x5d8
    34304fe8:	9400119e 	bl	34309660 <s32gen1_set_parent>
    34304fec:	350006a0 	cbnz	w0, 343050c0 <s32_a53_clock_setup+0x150>
    34304ff0:	aa1403e0 	mov	x0, x20
    34304ff4:	d28b4014 	mov	x20, #0x5a00                	// #23040
    34304ff8:	f2a04c54 	movk	x20, #0x262, lsl #16
    34304ffc:	aa1403e1 	mov	x1, x20
    34305000:	94001178 	bl	343095e0 <s32gen1_set_rate>
    34305004:	eb14001f 	cmp	x0, x20
    34305008:	54000621 	b.ne	343050cc <s32_a53_clock_setup+0x15c>  // b.any
    3430500c:	f9400a61 	ldr	x1, [x19, #16]
    34305010:	900000a0 	adrp	x0, 34319000 <__RO_END__>
    34305014:	91124000 	add	x0, x0, #0x490
    34305018:	94001172 	bl	343095e0 <s32gen1_set_rate>
    3430501c:	f9400a61 	ldr	x1, [x19, #16]
    34305020:	eb01001f 	cmp	x0, x1
    34305024:	54000541 	b.ne	343050cc <s32_a53_clock_setup+0x15c>  // b.any
    34305028:	f9400e61 	ldr	x1, [x19, #24]
    3430502c:	aa1503e0 	mov	x0, x21
    34305030:	9400116c 	bl	343095e0 <s32gen1_set_rate>
    34305034:	f9400e61 	ldr	x1, [x19, #24]
    34305038:	eb01001f 	cmp	x0, x1
    3430503c:	54000481 	b.ne	343050cc <s32_a53_clock_setup+0x15c>  // b.any
    34305040:	f9400661 	ldr	x1, [x19, #8]
    34305044:	900000b4 	adrp	x20, 34319000 <__RO_END__>
    34305048:	9110c294 	add	x20, x20, #0x430
    3430504c:	aa1403e0 	mov	x0, x20
    34305050:	94001164 	bl	343095e0 <s32gen1_set_rate>
    34305054:	f9400661 	ldr	x1, [x19, #8]
    34305058:	eb01001f 	cmp	x0, x1
    3430505c:	54000381 	b.ne	343050cc <s32_a53_clock_setup+0x15c>  // b.any
    34305060:	aa1403e0 	mov	x0, x20
    34305064:	52800021 	mov	w1, #0x1                   	// #1
    34305068:	94000aea 	bl	34307c10 <s32gen1_enable>
    3430506c:	350002a0 	cbnz	w0, 343050c0 <s32_a53_clock_setup+0x150>
    34305070:	900000a1 	adrp	x1, 34319000 <__RO_END__>
    34305074:	900000a0 	adrp	x0, 34319000 <__RO_END__>
    34305078:	91112021 	add	x1, x1, #0x448
    3430507c:	9115e000 	add	x0, x0, #0x578
    34305080:	94001178 	bl	34309660 <s32gen1_set_parent>
    34305084:	350001e0 	cbnz	w0, 343050c0 <s32_a53_clock_setup+0x150>
    34305088:	f9401261 	ldr	x1, [x19, #32]
    3430508c:	900000b4 	adrp	x20, 34319000 <__RO_END__>
    34305090:	911ca294 	add	x20, x20, #0x728
    34305094:	aa1403e0 	mov	x0, x20
    34305098:	94001152 	bl	343095e0 <s32gen1_set_rate>
    3430509c:	f9401261 	ldr	x1, [x19, #32]
    343050a0:	eb01001f 	cmp	x0, x1
    343050a4:	54000141 	b.ne	343050cc <s32_a53_clock_setup+0x15c>  // b.any
    343050a8:	aa1403e0 	mov	x0, x20
    343050ac:	52800021 	mov	w1, #0x1                   	// #1
    343050b0:	a94153f3 	ldp	x19, x20, [sp, #16]
    343050b4:	f94013f5 	ldr	x21, [sp, #32]
    343050b8:	a8c37bfd 	ldp	x29, x30, [sp], #48
    343050bc:	14000ad5 	b	34307c10 <s32gen1_enable>
    343050c0:	a94153f3 	ldp	x19, x20, [sp, #16]
    343050c4:	f94013f5 	ldr	x21, [sp, #32]
    343050c8:	17ffffb0 	b	34304f88 <s32_a53_clock_setup+0x18>
    343050cc:	128002a0 	mov	w0, #0xffffffea            	// #-22
    343050d0:	a94153f3 	ldp	x19, x20, [sp, #16]
    343050d4:	f94013f5 	ldr	x21, [sp, #32]
    343050d8:	17ffffac 	b	34304f88 <s32_a53_clock_setup+0x18>
    343050dc:	00000000 	udf	#0

00000000343050e0 <s32_reset_ddr_periph>:
    343050e0:	a9be7bfd 	stp	x29, x30, [sp, #-32]!
    343050e4:	52800002 	mov	w2, #0x0                   	// #0
    343050e8:	528000e1 	mov	w1, #0x7                   	// #7
    343050ec:	910003fd 	mov	x29, sp
    343050f0:	52800000 	mov	w0, #0x0                   	// #0
    343050f4:	f9000bf3 	str	x19, [sp, #16]
    343050f8:	9400291e 	bl	3430f570 <plat_scmi_rstd_set_state>
    343050fc:	2a0003f3 	mov	w19, w0
    34305100:	350000a0 	cbnz	w0, 34305114 <s32_reset_ddr_periph+0x34>
    34305104:	2a1303e0 	mov	w0, w19
    34305108:	f9400bf3 	ldr	x19, [sp, #16]
    3430510c:	a8c27bfd 	ldp	x29, x30, [sp], #32
    34305110:	d65f03c0 	ret
    34305114:	2a1303e1 	mov	w1, w19
    34305118:	d0000060 	adrp	x0, 34313000 <vprintf+0x520>
    3430511c:	9130a000 	add	x0, x0, #0xc28
    34305120:	97fff824 	bl	343031b0 <tf_log>
    34305124:	2a1303e0 	mov	w0, w19
    34305128:	f9400bf3 	ldr	x19, [sp, #16]
    3430512c:	a8c27bfd 	ldp	x29, x30, [sp], #32
    34305130:	d65f03c0 	ret
	...

0000000034305140 <s32_a53_clock_early_setup>:
    34305140:	a9be7bfd 	stp	x29, x30, [sp, #-32]!
    34305144:	d0000061 	adrp	x1, 34313000 <vprintf+0x520>
    34305148:	900000a0 	adrp	x0, 34319000 <__RO_END__>
    3430514c:	910003fd 	mov	x29, sp
    34305150:	91314021 	add	x1, x1, #0xc50
    34305154:	911a6000 	add	x0, x0, #0x698
    34305158:	97ffff3a 	bl	34304e40 <init_fake_plat_driver>
    3430515c:	900000a1 	adrp	x1, 34319000 <__RO_END__>
    34305160:	900000a0 	adrp	x0, 34319000 <__RO_END__>
    34305164:	9114c021 	add	x1, x1, #0x530
    34305168:	9115e000 	add	x0, x0, #0x578
    3430516c:	9400113d 	bl	34309660 <s32gen1_set_parent>
    34305170:	34000060 	cbz	w0, 3430517c <s32_a53_clock_early_setup+0x3c>
    34305174:	a8c27bfd 	ldp	x29, x30, [sp], #32
    34305178:	d65f03c0 	ret
    3430517c:	f9000bf3 	str	x19, [sp, #16]
    34305180:	900000b3 	adrp	x19, 34319000 <__RO_END__>
    34305184:	911ca273 	add	x19, x19, #0x728
    34305188:	52800021 	mov	w1, #0x1                   	// #1
    3430518c:	aa1303e0 	mov	x0, x19
    34305190:	94000aa0 	bl	34307c10 <s32gen1_enable>
    34305194:	34000080 	cbz	w0, 343051a4 <s32_a53_clock_early_setup+0x64>
    34305198:	f9400bf3 	ldr	x19, [sp, #16]
    3430519c:	a8c27bfd 	ldp	x29, x30, [sp], #32
    343051a0:	d65f03c0 	ret
    343051a4:	aa1303e0 	mov	x0, x19
    343051a8:	52800001 	mov	w1, #0x0                   	// #0
    343051ac:	94000a99 	bl	34307c10 <s32gen1_enable>
    343051b0:	f9400bf3 	ldr	x19, [sp, #16]
    343051b4:	35fffe00 	cbnz	w0, 34305174 <s32_a53_clock_early_setup+0x34>
    343051b8:	a8c27bfd 	ldp	x29, x30, [sp], #32
    343051bc:	17ffff6d 	b	34304f70 <s32_a53_clock_setup>

00000000343051c0 <s32_periph_clock_init>:
    343051c0:	a9bc7bfd 	stp	x29, x30, [sp, #-64]!
    343051c4:	900000a0 	adrp	x0, 34319000 <__RO_END__>
    343051c8:	911a6000 	add	x0, x0, #0x698
    343051cc:	910003fd 	mov	x29, sp
    343051d0:	94000e54 	bl	34308b20 <mmap_clk_regions>
    343051d4:	34000060 	cbz	w0, 343051e0 <s32_periph_clock_init+0x20>
    343051d8:	a8c47bfd 	ldp	x29, x30, [sp], #64
    343051dc:	d65f03c0 	ret
    343051e0:	a90153f3 	stp	x19, x20, [sp, #16]
    343051e4:	900000b4 	adrp	x20, 34319000 <__RO_END__>
    343051e8:	900000b3 	adrp	x19, 34319000 <__RO_END__>
    343051ec:	91152294 	add	x20, x20, #0x548
    343051f0:	9118e273 	add	x19, x19, #0x638
    343051f4:	aa1403e1 	mov	x1, x20
    343051f8:	aa1303e0 	mov	x0, x19
    343051fc:	94001119 	bl	34309660 <s32gen1_set_parent>
    34305200:	350000e0 	cbnz	w0, 3430521c <s32_periph_clock_init+0x5c>
    34305204:	900000a1 	adrp	x1, 34319000 <__RO_END__>
    34305208:	900000a0 	adrp	x0, 34319000 <__RO_END__>
    3430520c:	91194021 	add	x1, x1, #0x650
    34305210:	91170000 	add	x0, x0, #0x5c0
    34305214:	94001113 	bl	34309660 <s32gen1_set_parent>
    34305218:	34000080 	cbz	w0, 34305228 <s32_periph_clock_init+0x68>
    3430521c:	a94153f3 	ldp	x19, x20, [sp, #16]
    34305220:	a8c47bfd 	ldp	x29, x30, [sp], #64
    34305224:	d65f03c0 	ret
    34305228:	a9025bf5 	stp	x21, x22, [sp, #32]
    3430522c:	d2928016 	mov	x22, #0x9400                	// #37888
    34305230:	f2aee6b6 	movk	x22, #0x7735, lsl #16
    34305234:	a90363f7 	stp	x23, x24, [sp, #48]
    34305238:	900000b7 	adrp	x23, 34319000 <__RO_END__>
    3430523c:	9119a2f7 	add	x23, x23, #0x668
    34305240:	aa1703e0 	mov	x0, x23
    34305244:	aa1603e1 	mov	x1, x22
    34305248:	940010e6 	bl	343095e0 <s32gen1_set_rate>
    3430524c:	aa0003f5 	mov	x21, x0
    34305250:	eb16001f 	cmp	x0, x22
    34305254:	54000b21 	b.ne	343053b8 <s32_periph_clock_init+0x1f8>  // b.any
    34305258:	900000b6 	adrp	x22, 34319000 <__RO_END__>
    3430525c:	d28b2818 	mov	x24, #0x5940                	// #22848
    34305260:	911582d6 	add	x22, x22, #0x560
    34305264:	f2a0ee78 	movk	x24, #0x773, lsl #16
    34305268:	aa1603e0 	mov	x0, x22
    3430526c:	aa1803e1 	mov	x1, x24
    34305270:	940010dc 	bl	343095e0 <s32gen1_set_rate>
    34305274:	eb18001f 	cmp	x0, x24
    34305278:	54000a01 	b.ne	343053b8 <s32_periph_clock_init+0x1f8>  // b.any
    3430527c:	aa1603e0 	mov	x0, x22
    34305280:	52800021 	mov	w1, #0x1                   	// #1
    34305284:	94000a63 	bl	34307c10 <s32gen1_enable>
    34305288:	35000600 	cbnz	w0, 34305348 <s32_periph_clock_init+0x188>
    3430528c:	aa1403e1 	mov	x1, x20
    34305290:	aa1303e0 	mov	x0, x19
    34305294:	940010f3 	bl	34309660 <s32gen1_set_parent>
    34305298:	35000580 	cbnz	w0, 34305348 <s32_periph_clock_init+0x188>
    3430529c:	aa1703e0 	mov	x0, x23
    343052a0:	aa1503e1 	mov	x1, x21
    343052a4:	940010cf 	bl	343095e0 <s32gen1_set_rate>
    343052a8:	eb15001f 	cmp	x0, x21
    343052ac:	54000861 	b.ne	343053b8 <s32_periph_clock_init+0x1f8>  // b.any
    343052b0:	d0000080 	adrp	x0, 34317000 <reset_table+0x2d8>
    343052b4:	3974a400 	ldrb	w0, [x0, #3369]
    343052b8:	35000120 	cbnz	w0, 343052dc <s32_periph_clock_init+0x11c>
    343052bc:	d0000080 	adrp	x0, 34317000 <reset_table+0x2d8>
    343052c0:	3974a800 	ldrb	w0, [x0, #3370]
    343052c4:	350004c0 	cbnz	w0, 3430535c <s32_periph_clock_init+0x19c>
    343052c8:	a94153f3 	ldp	x19, x20, [sp, #16]
    343052cc:	a9425bf5 	ldp	x21, x22, [sp, #32]
    343052d0:	a94363f7 	ldp	x23, x24, [sp, #48]
    343052d4:	a8c47bfd 	ldp	x29, x30, [sp], #64
    343052d8:	17fffefa 	b	34304ec0 <s32_set_ddr_clock_state.constprop.0>
    343052dc:	940025a1 	bl	3430e960 <get_sdhc_clk_freq>
    343052e0:	900000b3 	adrp	x19, 34319000 <__RO_END__>
    343052e4:	d2810015 	mov	x21, #0x800                 	// #2048
    343052e8:	91188273 	add	x19, x19, #0x620
    343052ec:	f2a5f5f5 	movk	x21, #0x2faf, lsl #16
    343052f0:	aa0003f4 	mov	x20, x0
    343052f4:	aa1503e1 	mov	x1, x21
    343052f8:	aa1303e0 	mov	x0, x19
    343052fc:	940010b9 	bl	343095e0 <s32gen1_set_rate>
    34305300:	eb15001f 	cmp	x0, x21
    34305304:	540005a1 	b.ne	343053b8 <s32_periph_clock_init+0x1f8>  // b.any
    34305308:	900000a0 	adrp	x0, 34319000 <__RO_END__>
    3430530c:	aa1303e1 	mov	x1, x19
    34305310:	9116a000 	add	x0, x0, #0x5a8
    34305314:	940010d3 	bl	34309660 <s32gen1_set_parent>
    34305318:	35000180 	cbnz	w0, 34305348 <s32_periph_clock_init+0x188>
    3430531c:	900000b3 	adrp	x19, 34319000 <__RO_END__>
    34305320:	911c4273 	add	x19, x19, #0x710
    34305324:	aa1303e0 	mov	x0, x19
    34305328:	aa1403e1 	mov	x1, x20
    3430532c:	940010ad 	bl	343095e0 <s32gen1_set_rate>
    34305330:	eb00029f 	cmp	x20, x0
    34305334:	54000421 	b.ne	343053b8 <s32_periph_clock_init+0x1f8>  // b.any
    34305338:	aa1303e0 	mov	x0, x19
    3430533c:	52800021 	mov	w1, #0x1                   	// #1
    34305340:	94000a34 	bl	34307c10 <s32gen1_enable>
    34305344:	34fffc20 	cbz	w0, 343052c8 <s32_periph_clock_init+0x108>
    34305348:	a94153f3 	ldp	x19, x20, [sp, #16]
    3430534c:	a9425bf5 	ldp	x21, x22, [sp, #32]
    34305350:	a94363f7 	ldp	x23, x24, [sp, #48]
    34305354:	a8c47bfd 	ldp	x29, x30, [sp], #64
    34305358:	d65f03c0 	ret
    3430535c:	900000b3 	adrp	x19, 34319000 <__RO_END__>
    34305360:	d2810014 	mov	x20, #0x800                 	// #2048
    34305364:	91182273 	add	x19, x19, #0x608
    34305368:	f2a5f5f4 	movk	x20, #0x2faf, lsl #16
    3430536c:	aa1303e0 	mov	x0, x19
    34305370:	aa1403e1 	mov	x1, x20
    34305374:	9400109b 	bl	343095e0 <s32gen1_set_rate>
    34305378:	eb14001f 	cmp	x0, x20
    3430537c:	540001e1 	b.ne	343053b8 <s32_periph_clock_init+0x1f8>  // b.any
    34305380:	900000a0 	adrp	x0, 34319000 <__RO_END__>
    34305384:	aa1303e1 	mov	x1, x19
    34305388:	91164000 	add	x0, x0, #0x590
    3430538c:	940010b5 	bl	34309660 <s32gen1_set_parent>
    34305390:	35fffdc0 	cbnz	w0, 34305348 <s32_periph_clock_init+0x188>
    34305394:	900000b3 	adrp	x19, 34319000 <__RO_END__>
    34305398:	d2984014 	mov	x20, #0xc200                	// #49664
    3430539c:	911a0273 	add	x19, x19, #0x680
    343053a0:	f2a17d74 	movk	x20, #0xbeb, lsl #16
    343053a4:	aa1303e0 	mov	x0, x19
    343053a8:	aa1403e1 	mov	x1, x20
    343053ac:	9400108d 	bl	343095e0 <s32gen1_set_rate>
    343053b0:	eb14001f 	cmp	x0, x20
    343053b4:	54fffc20 	b.eq	34305338 <s32_periph_clock_init+0x178>  // b.none
    343053b8:	128002a0 	mov	w0, #0xffffffea            	// #-22
    343053bc:	a94153f3 	ldp	x19, x20, [sp, #16]
    343053c0:	a9425bf5 	ldp	x21, x22, [sp, #32]
    343053c4:	a94363f7 	ldp	x23, x24, [sp, #48]
    343053c8:	17ffff84 	b	343051d8 <s32_periph_clock_init+0x18>
    343053cc:	00000000 	udf	#0

00000000343053d0 <get_clk_parent>:
    343053d0:	aa0003e1 	mov	x1, x0
    343053d4:	f9400400 	ldr	x0, [x0, #8]
    343053d8:	b4000040 	cbz	x0, 343053e0 <get_clk_parent+0x10>
    343053dc:	d65f03c0 	ret
    343053e0:	f9400820 	ldr	x0, [x1, #16]
    343053e4:	d65f03c0 	ret
	...

00000000343053f0 <get_part_link_parent>:
    343053f0:	f9400400 	ldr	x0, [x0, #8]
    343053f4:	d65f03c0 	ret
	...

0000000034305400 <get_part_block_parent>:
    34305400:	f9400400 	ldr	x0, [x0, #8]
    34305404:	d65f03c0 	ret
	...

0000000034305410 <get_part_block_link_parent>:
    34305410:	f9400400 	ldr	x0, [x0, #8]
    34305414:	d65f03c0 	ret
	...

0000000034305420 <no_parent>:
    34305420:	d2800000 	mov	x0, #0x0                   	// #0
    34305424:	d65f03c0 	ret
	...

0000000034305430 <get_fixed_div_parent>:
    34305430:	f9400400 	ldr	x0, [x0, #8]
    34305434:	d65f03c0 	ret
	...

0000000034305440 <get_pll_div_parent>:
    34305440:	f9400400 	ldr	x0, [x0, #8]
    34305444:	d65f03c0 	ret
	...

0000000034305450 <no_enable>:
    34305450:	52800000 	mov	w0, #0x0                   	// #0
    34305454:	d65f03c0 	ret
	...

0000000034305460 <get_cgm_div_parent>:
    34305460:	a9be7bfd 	stp	x29, x30, [sp, #-32]!
    34305464:	910003fd 	mov	x29, sp
    34305468:	f9000bf3 	str	x19, [sp, #16]
    3430546c:	f9400413 	ldr	x19, [x0, #8]
    34305470:	b40000b3 	cbz	x19, 34305484 <get_cgm_div_parent+0x24>
    34305474:	aa1303e0 	mov	x0, x19
    34305478:	f9400bf3 	ldr	x19, [sp, #16]
    3430547c:	a8c27bfd 	ldp	x29, x30, [sp], #32
    34305480:	d65f03c0 	ret
    34305484:	d0000060 	adrp	x0, 34313000 <vprintf+0x520>
    34305488:	91318000 	add	x0, x0, #0xc60
    3430548c:	97fff749 	bl	343031b0 <tf_log>
    34305490:	17fffff9 	b	34305474 <get_cgm_div_parent+0x14>
	...

00000000343054a0 <get_dfs_div_parent>:
    343054a0:	a9be7bfd 	stp	x29, x30, [sp, #-32]!
    343054a4:	910003fd 	mov	x29, sp
    343054a8:	f9000bf3 	str	x19, [sp, #16]
    343054ac:	f9400413 	ldr	x19, [x0, #8]
    343054b0:	b40000b3 	cbz	x19, 343054c4 <get_dfs_div_parent+0x24>
    343054b4:	aa1303e0 	mov	x0, x19
    343054b8:	f9400bf3 	ldr	x19, [sp, #16]
    343054bc:	a8c27bfd 	ldp	x29, x30, [sp], #32
    343054c0:	d65f03c0 	ret
    343054c4:	d0000060 	adrp	x0, 34313000 <vprintf+0x520>
    343054c8:	91324000 	add	x0, x0, #0xc90
    343054cc:	97fff739 	bl	343031b0 <tf_log>
    343054d0:	17fffff9 	b	343054b4 <get_dfs_div_parent+0x14>
	...

00000000343054e0 <get_dfs_parent>:
    343054e0:	a9be7bfd 	stp	x29, x30, [sp, #-32]!
    343054e4:	910003fd 	mov	x29, sp
    343054e8:	f9000bf3 	str	x19, [sp, #16]
    343054ec:	f9400413 	ldr	x19, [x0, #8]
    343054f0:	b40000b3 	cbz	x19, 34305504 <get_dfs_parent+0x24>
    343054f4:	aa1303e0 	mov	x0, x19
    343054f8:	f9400bf3 	ldr	x19, [sp, #16]
    343054fc:	a8c27bfd 	ldp	x29, x30, [sp], #32
    34305500:	d65f03c0 	ret
    34305504:	d0000060 	adrp	x0, 34313000 <vprintf+0x520>
    34305508:	91330000 	add	x0, x0, #0xcc0
    3430550c:	97fff729 	bl	343031b0 <tf_log>
    34305510:	17fffff9 	b	343054f4 <get_dfs_parent+0x14>
	...

0000000034305520 <get_pll_parent>:
    34305520:	a9be7bfd 	stp	x29, x30, [sp, #-32]!
    34305524:	910003fd 	mov	x29, sp
    34305528:	f9000bf3 	str	x19, [sp, #16]
    3430552c:	f9400413 	ldr	x19, [x0, #8]
    34305530:	b40000b3 	cbz	x19, 34305544 <get_pll_parent+0x24>
    34305534:	aa1303e0 	mov	x0, x19
    34305538:	f9400bf3 	ldr	x19, [sp, #16]
    3430553c:	a8c27bfd 	ldp	x29, x30, [sp], #32
    34305540:	d65f03c0 	ret
    34305544:	d0000060 	adrp	x0, 34313000 <vprintf+0x520>
    34305548:	9133a000 	add	x0, x0, #0xce8
    3430554c:	97fff719 	bl	343031b0 <tf_log>
    34305550:	17fffff9 	b	34305534 <get_pll_parent+0x14>
	...

0000000034305560 <cgm_mux_clk_config>:
    34305560:	531a6427 	lsl	w7, w1, #6
    34305564:	1284e1e4 	mov	w4, #0xffffd8f0            	// #-10000
    34305568:	8b070007 	add	x7, x0, x7
    3430556c:	0b040042 	add	w2, w2, w4
    34305570:	12001c63 	and	w3, w3, #0xff
    34305574:	910c10e4 	add	x4, x7, #0x304
    34305578:	b94304e5 	ldr	w5, [x7, #772]
    3430557c:	d35874a6 	ubfx	x6, x5, #24, #6
    34305580:	6b0200df 	cmp	w6, w2
    34305584:	54000520 	b.eq	34305628 <cgm_mux_clk_config+0xc8>  // b.none
    34305588:	a9bf7bfd 	stp	x29, x30, [sp, #-16]!
    3430558c:	910003fd 	mov	x29, sp
    34305590:	b9400085 	ldr	w5, [x4]
    34305594:	3787ffe5 	tbnz	w5, #16, 34305590 <cgm_mux_clk_config+0x30>
    34305598:	b94300e5 	ldr	w5, [x7, #768]
    3430559c:	53081448 	ubfiz	w8, w2, #24, #6
    343055a0:	7100007f 	cmp	w3, #0x0
    343055a4:	910c00e6 	add	x6, x7, #0x300
    343055a8:	120264a5 	and	w5, w5, #0xc0ffffff
    343055ac:	2a050108 	orr	w8, w8, w5
    343055b0:	321d00a5 	orr	w5, w5, #0x8
    343055b4:	321e0108 	orr	w8, w8, #0x4
    343055b8:	1a8810a5 	csel	w5, w5, w8, ne  // ne = any
    343055bc:	b90300e5 	str	w5, [x7, #768]
    343055c0:	b94000c5 	ldr	w5, [x6]
    343055c4:	3717ffe5 	tbnz	w5, #2, 343055c0 <cgm_mux_clk_config+0x60>
    343055c8:	b9400085 	ldr	w5, [x4]
    343055cc:	3787ffe5 	tbnz	w5, #16, 343055c8 <cgm_mux_clk_config+0x68>
    343055d0:	b94304e4 	ldr	w4, [x7, #772]
    343055d4:	35000143 	cbnz	w3, 343055fc <cgm_mux_clk_config+0x9c>
    343055d8:	d3514c83 	ubfx	x3, x4, #17, #3
    343055dc:	7100047f 	cmp	w3, #0x1
    343055e0:	54000341 	b.ne	34305648 <cgm_mux_clk_config+0xe8>  // b.any
    343055e4:	d3587484 	ubfx	x4, x4, #24, #6
    343055e8:	6b02009f 	cmp	w4, w2
    343055ec:	540002e1 	b.ne	34305648 <cgm_mux_clk_config+0xe8>  // b.any
    343055f0:	52800000 	mov	w0, #0x0                   	// #0
    343055f4:	a8c17bfd 	ldp	x29, x30, [sp], #16
    343055f8:	d65f03c0 	ret
    343055fc:	53117c82 	lsr	w2, w4, #17
    34305600:	121f0442 	and	w2, w2, #0x6
    34305604:	7100105f 	cmp	w2, #0x4
    34305608:	54000041 	b.ne	34305610 <cgm_mux_clk_config+0xb0>  // b.any
    3430560c:	371fff24 	tbnz	w4, #3, 343055f0 <cgm_mux_clk_config+0x90>
    34305610:	aa0003e2 	mov	x2, x0
    34305614:	d0000060 	adrp	x0, 34313000 <vprintf+0x520>
    34305618:	91354000 	add	x0, x0, #0xd50
    3430561c:	97fff6e5 	bl	343031b0 <tf_log>
    34305620:	128002a0 	mov	w0, #0xffffffea            	// #-22
    34305624:	17fffff4 	b	343055f4 <cgm_mux_clk_config+0x94>
    34305628:	d3514ca6 	ubfx	x6, x5, #17, #3
    3430562c:	710004df 	cmp	w6, #0x1
    34305630:	54fffac1 	b.ne	34305588 <cgm_mux_clk_config+0x28>  // b.any
    34305634:	f27000bf 	tst	x5, #0x10000
    34305638:	7a400860 	ccmp	w3, #0x0, #0x0, eq  // eq = none
    3430563c:	54fffa61 	b.ne	34305588 <cgm_mux_clk_config+0x28>  // b.any
    34305640:	52800000 	mov	w0, #0x0                   	// #0
    34305644:	d65f03c0 	ret
    34305648:	aa0003e3 	mov	x3, x0
    3430564c:	d0000060 	adrp	x0, 34313000 <vprintf+0x520>
    34305650:	91344000 	add	x0, x0, #0xd10
    34305654:	97fff6d7 	bl	343031b0 <tf_log>
    34305658:	128002a0 	mov	w0, #0xffffffea            	// #-22
    3430565c:	17ffffe6 	b	343055f4 <cgm_mux_clk_config+0x94>

0000000034305660 <enable_part>:
    34305660:	b9400800 	ldr	w0, [x0, #8]
    34305664:	340000e2 	cbz	w2, 34305680 <enable_part+0x20>
    34305668:	a9bf7bfd 	stp	x29, x30, [sp, #-16]!
    3430566c:	910003fd 	mov	x29, sp
    34305670:	94002578 	bl	3430ec50 <mc_me_enable_partition>
    34305674:	52800000 	mov	w0, #0x0                   	// #0
    34305678:	a8c17bfd 	ldp	x29, x30, [sp], #16
    3430567c:	d65f03c0 	ret
    34305680:	140025d8 	b	3430ede0 <mc_me_disable_partition>
	...

0000000034305690 <enable_dfs>:
    34305690:	a9be7bfd 	stp	x29, x30, [sp, #-32]!
    34305694:	910003fd 	mov	x29, sp
    34305698:	f9000bf3 	str	x19, [sp, #16]
    3430569c:	52800013 	mov	w19, #0x0                   	// #0
    343056a0:	35000082 	cbnz	w2, 343056b0 <enable_dfs+0x20>
    343056a4:	b9400402 	ldr	w2, [x0, #4]
    343056a8:	52800013 	mov	w19, #0x0                   	// #0
    343056ac:	340000a2 	cbz	w2, 343056c0 <enable_dfs+0x30>
    343056b0:	2a1303e0 	mov	w0, w19
    343056b4:	f9400bf3 	ldr	x19, [sp, #16]
    343056b8:	a8c27bfd 	ldp	x29, x30, [sp], #32
    343056bc:	d65f03c0 	ret
    343056c0:	b9401000 	ldr	w0, [x0, #16]
    343056c4:	94000d8b 	bl	34308cf0 <get_base_addr>
    343056c8:	b40000e0 	cbz	x0, 343056e4 <enable_dfs+0x54>
    343056cc:	52800041 	mov	w1, #0x2                   	// #2
    343056d0:	b9001801 	str	w1, [x0, #24]
    343056d4:	2a1303e0 	mov	w0, w19
    343056d8:	f9400bf3 	ldr	x19, [sp, #16]
    343056dc:	a8c27bfd 	ldp	x29, x30, [sp], #32
    343056e0:	d65f03c0 	ret
    343056e4:	128002b3 	mov	w19, #0xffffffea            	// #-22
    343056e8:	17fffff2 	b	343056b0 <enable_dfs+0x20>
    343056ec:	00000000 	udf	#0

00000000343056f0 <exec_cb_with_refcount.part.0>:
    343056f0:	a9be7bfd 	stp	x29, x30, [sp, #-32]!
    343056f4:	aa0003e5 	mov	x5, x0
    343056f8:	910003fd 	mov	x29, sp
    343056fc:	f9000bf3 	str	x19, [sp, #16]
    34305700:	aa0103f3 	mov	x19, x1
    34305704:	aa0203e1 	mov	x1, x2
    34305708:	b9400664 	ldr	w4, [x19, #4]
    3430570c:	34000103 	cbz	w3, 3430572c <exec_cb_with_refcount.part.0+0x3c>
    34305710:	340002c4 	cbz	w4, 34305768 <exec_cb_with_refcount.part.0+0x78>
    34305714:	11000484 	add	w4, w4, #0x1
    34305718:	52800000 	mov	w0, #0x0                   	// #0
    3430571c:	b9000664 	str	w4, [x19, #4]
    34305720:	f9400bf3 	ldr	x19, [sp, #16]
    34305724:	a8c27bfd 	ldp	x29, x30, [sp], #32
    34305728:	d65f03c0 	ret
    3430572c:	340002a4 	cbz	w4, 34305780 <exec_cb_with_refcount.part.0+0x90>
    34305730:	51000484 	sub	w4, w4, #0x1
    34305734:	b9000664 	str	w4, [x19, #4]
    34305738:	52800000 	mov	w0, #0x0                   	// #0
    3430573c:	35ffff24 	cbnz	w4, 34305720 <exec_cb_with_refcount.part.0+0x30>
    34305740:	aa1303e0 	mov	x0, x19
    34305744:	52800002 	mov	w2, #0x0                   	// #0
    34305748:	d63f00a0 	blr	x5
    3430574c:	34fffea0 	cbz	w0, 34305720 <exec_cb_with_refcount.part.0+0x30>
    34305750:	b9400661 	ldr	w1, [x19, #4]
    34305754:	11000421 	add	w1, w1, #0x1
    34305758:	b9000661 	str	w1, [x19, #4]
    3430575c:	f9400bf3 	ldr	x19, [sp, #16]
    34305760:	a8c27bfd 	ldp	x29, x30, [sp], #32
    34305764:	d65f03c0 	ret
    34305768:	2a0303e2 	mov	w2, w3
    3430576c:	aa1303e0 	mov	x0, x19
    34305770:	d63f00a0 	blr	x5
    34305774:	35fffd60 	cbnz	w0, 34305720 <exec_cb_with_refcount.part.0+0x30>
    34305778:	b9400664 	ldr	w4, [x19, #4]
    3430577c:	17ffffe6 	b	34305714 <exec_cb_with_refcount.part.0+0x24>
    34305780:	b9400261 	ldr	w1, [x19]
    34305784:	d0000060 	adrp	x0, 34313000 <vprintf+0x520>
    34305788:	91362000 	add	x0, x0, #0xd88
    3430578c:	97fff689 	bl	343031b0 <tf_log>
    34305790:	128002a0 	mov	w0, #0xffffffea            	// #-22
    34305794:	17ffffe3 	b	34305720 <exec_cb_with_refcount.part.0+0x30>
	...

00000000343057a0 <get_mux_parent>:
    343057a0:	a9be7bfd 	stp	x29, x30, [sp, #-32]!
    343057a4:	910003fd 	mov	x29, sp
    343057a8:	a90153f3 	stp	x19, x20, [sp, #16]
    343057ac:	aa0003f4 	mov	x20, x0
    343057b0:	b9401000 	ldr	w0, [x0, #16]
    343057b4:	94000dd3 	bl	34308f00 <get_clock>
    343057b8:	aa0003f3 	mov	x19, x0
    343057bc:	b40000a0 	cbz	x0, 343057d0 <get_mux_parent+0x30>
    343057c0:	aa1303e0 	mov	x0, x19
    343057c4:	a94153f3 	ldp	x19, x20, [sp, #16]
    343057c8:	a8c27bfd 	ldp	x29, x30, [sp], #32
    343057cc:	d65f03c0 	ret
    343057d0:	39403282 	ldrb	w2, [x20, #12]
    343057d4:	d0000060 	adrp	x0, 34313000 <vprintf+0x520>
    343057d8:	b9401281 	ldr	w1, [x20, #16]
    343057dc:	91372000 	add	x0, x0, #0xdc8
    343057e0:	97fff674 	bl	343031b0 <tf_log>
    343057e4:	17fffff7 	b	343057c0 <get_mux_parent+0x20>
	...

00000000343057f0 <enable_part_block>:
    343057f0:	a9bd7bfd 	stp	x29, x30, [sp, #-48]!
    343057f4:	aa0003e4 	mov	x4, x0
    343057f8:	910003fd 	mov	x29, sp
    343057fc:	b9401005 	ldr	w5, [x0, #16]
    34305800:	f9400400 	ldr	x0, [x0, #8]
    34305804:	b9400800 	ldr	w0, [x0, #8]
    34305808:	71003cbf 	cmp	w5, #0xf
    3430580c:	540006a8 	b.hi	343058e0 <enable_part_block+0xf0>  // b.pmore
    34305810:	a90153f3 	stp	x19, x20, [sp, #16]
    34305814:	53175803 	lsl	w3, w0, #9
    34305818:	f9402833 	ldr	x19, [x1, #80]
    3430581c:	a9025bf5 	stp	x21, x22, [sp, #32]
    34305820:	d2800021 	mov	x1, #0x1                   	// #1
    34305824:	39405096 	ldrb	w22, [x4, #20]
    34305828:	53175815 	lsl	w21, w0, #9
    3430582c:	9ac52024 	lsl	x4, x1, x5
    34305830:	8b030263 	add	x3, x19, x3
    34305834:	2a0403f4 	mov	w20, w4
    34305838:	34000282 	cbz	w2, 34305888 <enable_part_block+0x98>
    3430583c:	b9413062 	ldr	w2, [x3, #304]
    34305840:	2a040042 	orr	w2, w2, w4
    34305844:	b9013062 	str	w2, [x3, #304]
    34305848:	b9410062 	ldr	w2, [x3, #256]
    3430584c:	32000042 	orr	w2, w2, #0x1
    34305850:	b9010062 	str	w2, [x3, #256]
    34305854:	940024cb 	bl	3430eb80 <mc_me_part_pupd_update_and_wait>
    34305858:	340000f6 	cbz	w22, 34305874 <enable_part_block+0x84>
    3430585c:	11044260 	add	w0, w19, #0x110
    34305860:	0b150000 	add	w0, w0, w21
    34305864:	d503201f 	nop
    34305868:	b9400001 	ldr	w1, [x0]
    3430586c:	6a14003f 	tst	w1, w20
    34305870:	54ffffc0 	b.eq	34305868 <enable_part_block+0x78>  // b.none
    34305874:	a94153f3 	ldp	x19, x20, [sp, #16]
    34305878:	52800000 	mov	w0, #0x0                   	// #0
    3430587c:	a9425bf5 	ldp	x21, x22, [sp, #32]
    34305880:	a8c37bfd 	ldp	x29, x30, [sp], #48
    34305884:	d65f03c0 	ret
    34305888:	b9413062 	ldr	w2, [x3, #304]
    3430588c:	6a04005f 	tst	w2, w4
    34305890:	540001c0 	b.eq	343058c8 <enable_part_block+0xd8>  // b.none
    34305894:	0a240044 	bic	w4, w2, w4
    34305898:	b9013064 	str	w4, [x3, #304]
    3430589c:	b9410062 	ldr	w2, [x3, #256]
    343058a0:	32000042 	orr	w2, w2, #0x1
    343058a4:	b9010062 	str	w2, [x3, #256]
    343058a8:	940024b6 	bl	3430eb80 <mc_me_part_pupd_update_and_wait>
    343058ac:	34fffe56 	cbz	w22, 34305874 <enable_part_block+0x84>
    343058b0:	11044273 	add	w19, w19, #0x110
    343058b4:	0b150273 	add	w19, w19, w21
    343058b8:	b9400260 	ldr	w0, [x19]
    343058bc:	6a14001f 	tst	w0, w20
    343058c0:	54ffffc1 	b.ne	343058b8 <enable_part_block+0xc8>  // b.any
    343058c4:	17ffffec 	b	34305874 <enable_part_block+0x84>
    343058c8:	2a0003e2 	mov	w2, w0
    343058cc:	2a0503e1 	mov	w1, w5
    343058d0:	d0000060 	adrp	x0, 34313000 <vprintf+0x520>
    343058d4:	9137c000 	add	x0, x0, #0xdf0
    343058d8:	97fff636 	bl	343031b0 <tf_log>
    343058dc:	17ffffe6 	b	34305874 <enable_part_block+0x84>
    343058e0:	2a0503e1 	mov	w1, w5
    343058e4:	d0000060 	adrp	x0, 34313000 <vprintf+0x520>
    343058e8:	9138a000 	add	x0, x0, #0xe28
    343058ec:	97fff631 	bl	343031b0 <tf_log>
    343058f0:	128002a0 	mov	w0, #0xffffffea            	// #-22
    343058f4:	17ffffe3 	b	34305880 <enable_part_block+0x90>
	...

0000000034305900 <enable_osc>:
    34305900:	aa0103e3 	mov	x3, x1
    34305904:	b9400801 	ldr	w1, [x0, #8]
    34305908:	7100283f 	cmp	w1, #0xa
    3430590c:	540001a0 	b.eq	34305940 <enable_osc+0x40>  // b.none
    34305910:	121d7822 	and	w2, w1, #0xfffffffb
    34305914:	52800000 	mov	w0, #0x0                   	// #0
    34305918:	7100245f 	cmp	w2, #0x9
    3430591c:	54000260 	b.eq	34305968 <enable_osc+0x68>  // b.none
    34305920:	a9bf7bfd 	stp	x29, x30, [sp, #-16]!
    34305924:	d0000060 	adrp	x0, 34313000 <vprintf+0x520>
    34305928:	91394000 	add	x0, x0, #0xe50
    3430592c:	910003fd 	mov	x29, sp
    34305930:	97fff620 	bl	343031b0 <tf_log>
    34305934:	128002a0 	mov	w0, #0xffffffea            	// #-22
    34305938:	a8c17bfd 	ldp	x29, x30, [sp], #16
    3430593c:	d65f03c0 	ret
    34305940:	f9402460 	ldr	x0, [x3, #72]
    34305944:	35000142 	cbnz	w2, 3430596c <enable_osc+0x6c>
    34305948:	aa0003e1 	mov	x1, x0
    3430594c:	b9400000 	ldr	w0, [x0]
    34305950:	121f7800 	and	w0, w0, #0xfffffffe
    34305954:	b8004420 	str	w0, [x1], #4
    34305958:	b9400020 	ldr	w0, [x1]
    3430595c:	37ffffe0 	tbnz	w0, #31, 34305958 <enable_osc+0x58>
    34305960:	52800000 	mov	w0, #0x0                   	// #0
    34305964:	d65f03c0 	ret
    34305968:	d65f03c0 	ret
    3430596c:	b9400001 	ldr	w1, [x0]
    34305970:	3707ff81 	tbnz	w1, #0, 34305960 <enable_osc+0x60>
    34305974:	52800e01 	mov	w1, #0x70                  	// #112
    34305978:	72a02021 	movk	w1, #0x101, lsl #16
    3430597c:	b9000001 	str	w1, [x0]
    34305980:	aa0003e1 	mov	x1, x0
    34305984:	b9400000 	ldr	w0, [x0]
    34305988:	32000000 	orr	w0, w0, #0x1
    3430598c:	b8004420 	str	w0, [x1], #4
    34305990:	b9400020 	ldr	w0, [x1]
    34305994:	36ffffe0 	tbz	w0, #31, 34305990 <enable_osc+0x90>
    34305998:	17fffff2 	b	34305960 <enable_osc+0x60>
    3430599c:	00000000 	udf	#0

00000000343059a0 <enable_cgm_div>:
    343059a0:	a9bc7bfd 	stp	x29, x30, [sp, #-64]!
    343059a4:	910003fd 	mov	x29, sp
    343059a8:	a90153f3 	stp	x19, x20, [sp, #16]
    343059ac:	aa0003f4 	mov	x20, x0
    343059b0:	f9400400 	ldr	x0, [x0, #8]
    343059b4:	b4001f60 	cbz	x0, 34305da0 <enable_cgm_div+0x400>
    343059b8:	a9025bf5 	stp	x21, x22, [sp, #32]
    343059bc:	2a0203f6 	mov	w22, w2
    343059c0:	f9400e82 	ldr	x2, [x20, #24]
    343059c4:	b4001d02 	cbz	x2, 34305d64 <enable_cgm_div+0x3c4>
    343059c8:	b9400002 	ldr	w2, [x0]
    343059cc:	71003c5f 	cmp	w2, #0xf
    343059d0:	540018c1 	b.ne	34305ce8 <enable_cgm_div+0x348>  // b.any
    343059d4:	f9400415 	ldr	x21, [x0, #8]
    343059d8:	b4001a75 	cbz	x21, 34305d24 <enable_cgm_div+0x384>
    343059dc:	b94002a0 	ldr	w0, [x21]
    343059e0:	f9001bf7 	str	x23, [sp, #48]
    343059e4:	51001000 	sub	w0, w0, #0x4
    343059e8:	7100081f 	cmp	w0, #0x2
    343059ec:	540018e8 	b.hi	34305d08 <enable_cgm_div+0x368>  // b.pmore
    343059f0:	b9400aa0 	ldr	w0, [x21, #8]
    343059f4:	aa0103f7 	mov	x23, x1
    343059f8:	94000cbe 	bl	34308cf0 <get_base_addr>
    343059fc:	aa0003f3 	mov	x19, x0
    34305a00:	b40016a0 	cbz	x0, 34305cd4 <enable_cgm_div+0x334>
    34305a04:	f9400680 	ldr	x0, [x20, #8]
    34305a08:	aa1703e1 	mov	x1, x23
    34305a0c:	94000971 	bl	34307fd0 <get_module_rate>
    34305a10:	394032a1 	ldrb	w1, [x21, #12]
    34305a14:	b4001b60 	cbz	x0, 34305d80 <enable_cgm_div+0x3e0>
    34305a18:	34001496 	cbz	w22, 34305ca8 <enable_cgm_div+0x308>
    34305a1c:	d29c2002 	mov	x2, #0xe100                	// #57600
    34305a20:	d2800045 	mov	x5, #0x2                   	// #2
    34305a24:	f9400e84 	ldr	x4, [x20, #24]
    34305a28:	f2a0bea2 	movk	x2, #0x5f5, lsl #16
    34305a2c:	9b027c09 	mul	x9, x0, x2
    34305a30:	9b027c82 	mul	x2, x4, x2
    34305a34:	aa0903ea 	mov	x10, x9
    34305a38:	9ac50946 	udiv	x6, x10, x5
    34305a3c:	9b05a8c3 	msub	x3, x6, x5, x10
    34305a40:	b40000e3 	cbz	x3, 34305a5c <enable_cgm_div+0xbc>
    34305a44:	14000009 	b	34305a68 <enable_cgm_div+0xc8>
    34305a48:	aa0603ea 	mov	x10, x6
    34305a4c:	aa0703e2 	mov	x2, x7
    34305a50:	9ac508c6 	udiv	x6, x6, x5
    34305a54:	9b05a8c3 	msub	x3, x6, x5, x10
    34305a58:	b5000083 	cbnz	x3, 34305a68 <enable_cgm_div+0xc8>
    34305a5c:	9ac50847 	udiv	x7, x2, x5
    34305a60:	9b0588e3 	msub	x3, x7, x5, x2
    34305a64:	b4ffff23 	cbz	x3, 34305a48 <enable_cgm_div+0xa8>
    34305a68:	910004a5 	add	x5, x5, #0x1
    34305a6c:	f10018bf 	cmp	x5, #0x6
    34305a70:	54fffe41 	b.ne	34305a38 <enable_cgm_div+0x98>  // b.any
    34305a74:	d29c2008 	mov	x8, #0xe100                	// #57600
    34305a78:	d2800045 	mov	x5, #0x2                   	// #2
    34305a7c:	f2a0bea8 	movk	x8, #0x5f5, lsl #16
    34305a80:	9ac50906 	udiv	x6, x8, x5
    34305a84:	9b05a0c3 	msub	x3, x6, x5, x8
    34305a88:	b40000e3 	cbz	x3, 34305aa4 <enable_cgm_div+0x104>
    34305a8c:	14000009 	b	34305ab0 <enable_cgm_div+0x110>
    34305a90:	aa0603e8 	mov	x8, x6
    34305a94:	aa0703e2 	mov	x2, x7
    34305a98:	9ac508c6 	udiv	x6, x6, x5
    34305a9c:	9b05a0c3 	msub	x3, x6, x5, x8
    34305aa0:	b5000083 	cbnz	x3, 34305ab0 <enable_cgm_div+0x110>
    34305aa4:	9ac50847 	udiv	x7, x2, x5
    34305aa8:	9b0588e3 	msub	x3, x7, x5, x2
    34305aac:	b4ffff23 	cbz	x3, 34305a90 <enable_cgm_div+0xf0>
    34305ab0:	910004a5 	add	x5, x5, #0x1
    34305ab4:	f10018bf 	cmp	x5, #0x6
    34305ab8:	54fffe41 	b.ne	34305a80 <enable_cgm_div+0xe0>  // b.any
    34305abc:	f100015f 	cmp	x10, #0x0
    34305ac0:	9b0a7d03 	mul	x3, x8, x10
    34305ac4:	fa401904 	ccmp	x8, #0x0, #0x4, ne  // ne = any
    34305ac8:	d2800027 	mov	x7, #0x1                   	// #1
    34305acc:	54000240 	b.eq	34305b14 <enable_cgm_div+0x174>  // b.none
    34305ad0:	9aca0865 	udiv	x5, x3, x10
    34305ad4:	eb05011f 	cmp	x8, x5
    34305ad8:	540001e0 	b.eq	34305b14 <enable_cgm_div+0x174>  // b.none
    34305adc:	aa0803e5 	mov	x5, x8
    34305ae0:	aa0a03e3 	mov	x3, x10
    34305ae4:	d503201f 	nop
    34305ae8:	d341fc63 	lsr	x3, x3, #1
    34305aec:	d341fca5 	lsr	x5, x5, #1
    34305af0:	d37ff8e7 	lsl	x7, x7, #1
    34305af4:	9b057c66 	mul	x6, x3, x5
    34305af8:	9ac308c6 	udiv	x6, x6, x3
    34305afc:	eb0500df 	cmp	x6, x5
    34305b00:	54ffff41 	b.ne	34305ae8 <enable_cgm_div+0x148>  // b.any
    34305b04:	9ac7094a 	udiv	x10, x10, x7
    34305b08:	9ac70908 	udiv	x8, x8, x7
    34305b0c:	9ac70842 	udiv	x2, x2, x7
    34305b10:	9b087d43 	mul	x3, x10, x8
    34305b14:	9ac20863 	udiv	x3, x3, x2
    34305b18:	d2884808 	mov	x8, #0x4240                	// #16960
    34305b1c:	f2a001e8 	movk	x8, #0xf, lsl #16
    34305b20:	d299dfa5 	mov	x5, #0xcefd                	// #52989
    34305b24:	f2b08c25 	movk	x5, #0x8461, lsl #16
    34305b28:	d29c2002 	mov	x2, #0xe100                	// #57600
    34305b2c:	f2cee225 	movk	x5, #0x7711, lsl #32
    34305b30:	f2a0bea2 	movk	x2, #0x5f5, lsl #16
    34305b34:	9b072063 	madd	x3, x3, x7, x8
    34305b38:	f2f57985 	movk	x5, #0xabcc, lsl #48
    34305b3c:	d2800046 	mov	x6, #0x2                   	// #2
    34305b40:	9bc57c63 	umulh	x3, x3, x5
    34305b44:	d35ae465 	ubfx	x5, x3, #26, #32
    34305b48:	d35afc6b 	lsr	x11, x3, #26
    34305b4c:	9b027ca2 	mul	x2, x5, x2
    34305b50:	9ac60927 	udiv	x7, x9, x6
    34305b54:	9b06a4e3 	msub	x3, x7, x6, x9
    34305b58:	b40000e3 	cbz	x3, 34305b74 <enable_cgm_div+0x1d4>
    34305b5c:	14000009 	b	34305b80 <enable_cgm_div+0x1e0>
    34305b60:	aa0703e9 	mov	x9, x7
    34305b64:	aa0803e2 	mov	x2, x8
    34305b68:	9ac608e7 	udiv	x7, x7, x6
    34305b6c:	9b06a4e3 	msub	x3, x7, x6, x9
    34305b70:	b5000083 	cbnz	x3, 34305b80 <enable_cgm_div+0x1e0>
    34305b74:	9ac60848 	udiv	x8, x2, x6
    34305b78:	9b068903 	msub	x3, x8, x6, x2
    34305b7c:	b4ffff23 	cbz	x3, 34305b60 <enable_cgm_div+0x1c0>
    34305b80:	910004c6 	add	x6, x6, #0x1
    34305b84:	f10018df 	cmp	x6, #0x6
    34305b88:	54fffe41 	b.ne	34305b50 <enable_cgm_div+0x1b0>  // b.any
