
/home/lc/work/s32g/s32g399a/arm-trusted-firmware/build/s32g399ardb3/release/bl31/bl31.elf:     file format elf64-littleaarch64
/home/lc/work/s32g/s32g399a/arm-trusted-firmware/build/s32g399ardb3/release/bl31/bl31.elf
architecture: aarch64, flags 0x00000112:
EXEC_P, HAS_SYMS, D_PAGED
start address 0x00000000ff600000

Program Header:
    LOAD off    0x0000000000001000 vaddr 0x00000000ff600000 paddr 0x00000000ff600000 align 2**12
         filesz 0x0000000000021185 memsz 0x0000000000063000 flags rwx
   STACK off    0x0000000000000000 vaddr 0x0000000000000000 paddr 0x0000000000000000 align 2**4
         filesz 0x0000000000000000 memsz 0x0000000000000000 flags rw-
private flags = 0x0:

Sections:
Idx Name          Size      VMA               LMA               File off  Algn
  0 .ro           0001d000  00000000ff600000  00000000ff600000  00001000  2**11
                  CONTENTS, ALLOC, LOAD, CODE
  1 .data         00004185  00000000ff61d000  00000000ff61d000  0001e000  2**3
                  CONTENTS, ALLOC, LOAD, DATA
  2 .stacks       00020000  00000000ff6211c0  00000000ff6211c0  00022185  2**6
                  ALLOC
  3 .bss          00005c00  00000000ff641200  00000000ff641200  00022185  2**9
                  ALLOC
  4 .xlat_table   0001c000  00000000ff647000  00000000ff647000  00022185  2**12
                  ALLOC
  5 .comment      00000033  0000000000000000  0000000000000000  00022185  2**0
                  CONTENTS, READONLY
  6 .debug_frame  00000df0  0000000000000000  0000000000000000  000221b8  2**3
                  CONTENTS, READONLY, DEBUGGING, OCTETS
SYMBOL TABLE:
00000000ff600000 l    d  .ro	0000000000000000 .ro
00000000ff61d000 l    d  .data	0000000000000000 .data
00000000ff6211c0 l    d  .stacks	0000000000000000 .stacks
00000000ff641200 l    d  .bss	0000000000000000 .bss
00000000ff647000 l    d  .xlat_table	0000000000000000 .xlat_table
0000000000000000 l    d  .comment	0000000000000000 .comment
0000000000000000 l    d  .debug_frame	0000000000000000 .debug_frame
0000000000000000 l    df *ABS*	0000000000000000 bl31_entrypoint.o
0000000000000000 l    df *ABS*	0000000000000000 bl31_context_mgmt.c
0000000000000000 l    df *ABS*	0000000000000000 bl31_main.c
00000000ff642800 l     O .bss	0000000000000008 bl32_init
00000000ff621170 l     O .data	0000000000000004 next_image_type
00000000ff616fd8 l     O .ro	0000000000000010 psci_args.0
0000000000000000 l    df *ABS*	0000000000000000 bl31_traps.c
0000000000000000 l    df *ABS*	0000000000000000 interrupt_mgmt.c
00000000ff642808 l     O .bss	0000000000000060 intr_type_descs
0000000000000000 l    df *ABS*	0000000000000000 bl_common.c
0000000000000000 l    df *ABS*	0000000000000000 fdt_wrappers.c
0000000000000000 l    df *ABS*	0000000000000000 runtime_svc.c
0000000000000000 l    df *ABS*	0000000000000000 tf_log.c
00000000ff621174 l     O .data	0000000000000004 max_log_level
0000000000000000 l    df *ABS*	0000000000000000 arm_gicv3_common.c
0000000000000000 l    df *ABS*	0000000000000000 gic-x00.c
0000000000000000 l    df *ABS*	0000000000000000 gicdv3_helpers.c
0000000000000000 l    df *ABS*	0000000000000000 gicrv3_helpers.c
0000000000000000 l    df *ABS*	0000000000000000 gicv3_helpers.c
0000000000000000 l    df *ABS*	0000000000000000 gicv3_main.c
00000000ff6428e8 l     O .bss	0000000000000004 gic_lock
0000000000000000 l    df *ABS*	0000000000000000 multi_console.c
00000000ff621184 l     O .data	0000000000000001 console_state
0000000000000000 l    df *ABS*	0000000000000000 delay_timer.c
00000000ff642900 l     O .bss	0000000000000008 timer_ops
0000000000000000 l    df *ABS*	0000000000000000 generic_delay_timer.c
00000000ff601e60 l     F .ro	000000000000000c get_timer_value
00000000ff642908 l     O .bss	0000000000000010 ops
0000000000000000 l    df *ABS*	0000000000000000 clk.c
00000000ff642918 l     O .bss	00000000000003c0 drivers
00000000ff61d000 l     O .data	0000000000000020 drv_pool
0000000000000000 l    df *ABS*	0000000000000000 early_clocks.c
00000000ff642cd8 l     O .bss	0000000000000028 early_freqs
00000000ff61d020 l     O .data	0000000000000018 a53_clk
00000000ff61d098 l     O .data	0000000000000028 fake_clk_dev
00000000ff61d038 l     O .data	0000000000000018 arm_dfs1
00000000ff61d050 l     O .data	0000000000000018 arm_pll_mux
00000000ff61d068 l     O .data	0000000000000018 arm_pll_phi0
00000000ff61d080 l     O .data	0000000000000018 arm_pll_vco
00000000ff61d108 l     O .data	0000000000000078 s32_priv
00000000ff61d0c0 l     O .data	0000000000000018 fxosc
00000000ff61d0d8 l     O .data	0000000000000018 mc_cgm0_mux0
00000000ff61d0f0 l     O .data	0000000000000018 mc_cgm1_mux0
00000000ff61d180 l     O .data	0000000000000018 xbar_2x
0000000000000000 l    df *ABS*	0000000000000000 enable_clk.c
00000000ff602580 l     F .ro	0000000000000018 get_clk_parent
00000000ff6025a0 l     F .ro	0000000000000008 get_part_link_parent
00000000ff6025b0 l     F .ro	0000000000000008 get_part_block_parent
00000000ff6025c0 l     F .ro	0000000000000008 get_part_block_link_parent
00000000ff6025d0 l     F .ro	0000000000000008 no_parent
00000000ff6025e0 l     F .ro	0000000000000008 get_fixed_div_parent
00000000ff6025f0 l     F .ro	0000000000000008 get_pll_div_parent
00000000ff602600 l     F .ro	0000000000000008 no_enable
00000000ff602610 l     F .ro	0000000000000034 get_cgm_div_parent
00000000ff602650 l     F .ro	0000000000000034 get_dfs_div_parent
00000000ff602690 l     F .ro	0000000000000034 get_dfs_parent
00000000ff6026d0 l     F .ro	0000000000000034 get_pll_parent
00000000ff602710 l     F .ro	0000000000000100 cgm_mux_clk_config
00000000ff602810 l     F .ro	0000000000000024 enable_part
00000000ff602840 l     F .ro	000000000000005c enable_dfs
00000000ff6028a0 l     F .ro	00000000000000a8 exec_cb_with_refcount.part.0
00000000ff602950 l     F .ro	0000000000000048 get_mux_parent
00000000ff6029a0 l     F .ro	0000000000000108 enable_part_block
00000000ff602ab0 l     F .ro	000000000000009c enable_osc
00000000ff602b50 l     F .ro	0000000000000438 enable_cgm_div
00000000ff602f90 l     F .ro	0000000000000804 enable_dfs_div
00000000ff6039e0 l     F .ro	000000000000041c enable_pll_div
00000000ff603e00 l     F .ro	00000000000000d0 enable_mux
00000000ff6042e0 l     F .ro	0000000000000724 enable_pll
00000000ff604ac0 l     F .ro	0000000000000198 enable_module
00000000ff604c60 l     F .ro	00000000000000a4 enable_part_block_link
00000000ff604d10 l     F .ro	00000000000000a4 enable_part_link
00000000ff617ba8 l     O .ro	0000000000000070 CSWTCH.145
00000000ff617c18 l     O .ro	0000000000000080 enable_clbs
00000000ff617c98 l     O .ro	0000000000000080 parents_clbs
0000000000000000 l    df *ABS*	0000000000000000 fixed_clk.c
00000000ff604f10 l     F .ro	0000000000000008 fixed_clk_request
00000000ff604f20 l     F .ro	0000000000000010 fixed_clk_get_rate
00000000ff642d00 l     O .bss	0000000000000170 fixed_drvs
00000000ff61d198 l     O .data	0000000000000020 pool
00000000ff617de8 l     O .ro	0000000000000028 fixed_clk_ops
0000000000000000 l    df *ABS*	0000000000000000 get_rate.c
00000000ff6050b0 l     F .ro	0000000000000270 compute_dfs_div_freq
00000000ff605320 l     F .ro	000000000000027c get_mfi_value
00000000ff6055a0 l     F .ro	0000000000000a84 populate_scaler_rates.isra.0
00000000ff618120 l     O .ro	000000000000000d __func__.0
0000000000000000 l    df *ABS*	0000000000000000 plat_clk.c
00000000ff607a30 l     F .ro	00000000000002b4 s32gen1_clk_probe.constprop.0
00000000ff642e70 l     O .bss	0000000000000080 clk_drv.0
00000000ff642ef0 l     O .bss	000000000000000f mappings.1
00000000ff6183b8 l     O .ro	0000000000000028 s32gen1_clk_ops
0000000000000000 l    df *ABS*	0000000000000000 s32g3_clk.c
00000000ff61d1b8 l     O .data	0000000000000024 cgm6_mux0
00000000ff61d1e0 l     O .data	0000000000000030 cgm6_mux0_clk
00000000ff61d210 l     O .data	000000000000002c cgm6_mux1
00000000ff61d240 l     O .data	0000000000000030 cgm6_mux1_clk
00000000ff61d270 l     O .data	0000000000000028 cgm6_mux2
00000000ff61d298 l     O .data	0000000000000030 cgm6_mux2_clk
00000000ff61d2c8 l     O .data	0000000000000020 cgm6_mux3
00000000ff61d2e8 l     O .data	0000000000000030 cgm6_mux3_clk
00000000ff61d318 l     O .data	0000000000000010 gmac0_ext_rx
00000000ff61d328 l     O .data	0000000000000030 gmac0_ext_rx_clk
00000000ff61d358 l     O .data	0000000000000010 gmac0_ext_tx
00000000ff61d368 l     O .data	0000000000000030 gmac0_ext_tx_clk
00000000ff61d398 l     O .data	0000000000000030 gmac0_ref_clk
00000000ff61d3c8 l     O .data	0000000000000020 gmac0_ref_div
00000000ff61d3e8 l     O .data	0000000000000010 gmac0_rmii_ref
00000000ff61d3f8 l     O .data	0000000000000030 gmac0_rmii_ref_clk
00000000ff61d428 l     O .data	0000000000000010 gmac_ext_ts
00000000ff61d438 l     O .data	0000000000000030 gmac_ext_ts_clk
00000000ff61d468 l     O .data	0000000000000030 gmac_rx_clk
00000000ff61d4c8 l     O .data	0000000000000020 gmac_ts_div
00000000ff61d4e8 l     O .data	0000000000000030 gmac_tx_clk
00000000ff61d518 l     O .data	0000000000000020 gmac_tx_div
00000000ff6183e0 l     O .ro	00000000000003b8 s32g3_cc_clocks
00000000ff618798 l     O .ro	00000000000000c0 s32g3_clocks
0000000000000000 l    df *ABS*	0000000000000000 s32g_clk.c
00000000ff61d538 l     O .data	0000000000000030 can_pe_clk
00000000ff61d568 l     O .data	0000000000000020 cgm2_mux0
00000000ff61d588 l     O .data	0000000000000030 cgm2_mux0_clk
00000000ff61d5b8 l     O .data	0000000000000020 cgm2_mux0_div
00000000ff61d5d8 l     O .data	000000000000002c cgm2_mux1
00000000ff61d608 l     O .data	0000000000000030 cgm2_mux1_clk
00000000ff61d638 l     O .data	0000000000000020 cgm2_mux1_div
00000000ff61d658 l     O .data	000000000000002c cgm2_mux2
00000000ff61d688 l     O .data	0000000000000030 cgm2_mux2_clk
00000000ff61d6b8 l     O .data	0000000000000020 cgm2_mux2_div
00000000ff61d6d8 l     O .data	000000000000002c cgm2_mux3
00000000ff61d708 l     O .data	0000000000000030 cgm2_mux3_clk
00000000ff61d738 l     O .data	0000000000000020 cgm2_mux3_div
00000000ff61d758 l     O .data	0000000000000028 cgm2_mux4
00000000ff61d780 l     O .data	0000000000000030 cgm2_mux4_clk
00000000ff61d7b0 l     O .data	0000000000000028 cgm2_mux5
00000000ff61d7d8 l     O .data	0000000000000030 cgm2_mux5_clk
00000000ff61d808 l     O .data	0000000000000028 cgm2_mux6
00000000ff61d830 l     O .data	0000000000000030 cgm2_mux6_clk
00000000ff61d860 l     O .data	0000000000000020 cgm2_mux7
00000000ff61d880 l     O .data	0000000000000030 cgm2_mux7_clk
00000000ff61d8b0 l     O .data	0000000000000020 cgm2_mux7_div
00000000ff61d8d0 l     O .data	0000000000000020 cgm2_mux8
00000000ff61d8f0 l     O .data	0000000000000030 cgm2_mux8_clk
00000000ff61d920 l     O .data	0000000000000020 cgm2_mux8_div
00000000ff61d940 l     O .data	0000000000000020 cgm2_mux9
00000000ff61d960 l     O .data	0000000000000030 cgm2_mux9_clk
00000000ff61d990 l     O .data	0000000000000020 cgm2_mux9_div
00000000ff61d9b0 l     O .data	0000000000000018 llce_part_link
00000000ff61da68 l     O .data	000000000000000c part3
00000000ff61d9c8 l     O .data	0000000000000030 llce_sys_clk
00000000ff61d9f8 l     O .data	000000000000000c part2
00000000ff61da08 l     O .data	0000000000000018 part2_block0
00000000ff61da20 l     O .data	0000000000000018 part2_block1
00000000ff61da38 l     O .data	0000000000000018 part2_block2
00000000ff61da50 l     O .data	0000000000000018 part2_block3
00000000ff61da78 l     O .data	0000000000000030 per_clk
00000000ff61daa8 l     O .data	0000000000000018 pfe0_ref_block_link
00000000ff61dac0 l     O .data	0000000000000018 pfe0_rx_block_link
00000000ff61dad8 l     O .data	0000000000000018 pfe0_tx_block_link
00000000ff61daf0 l     O .data	0000000000000018 pfe1_ref_block_link
00000000ff61db08 l     O .data	0000000000000018 pfe1_rx_block_link
00000000ff61db20 l     O .data	0000000000000018 pfe1_tx_block_link
00000000ff61db38 l     O .data	0000000000000018 pfe2_ref_block_link
00000000ff61db50 l     O .data	0000000000000018 pfe2_rx_block_link
00000000ff61db68 l     O .data	0000000000000018 pfe2_tx_block_link
00000000ff61db80 l     O .data	0000000000000010 pfe_mac0_ext_rx
00000000ff61db90 l     O .data	0000000000000030 pfe_mac0_ext_rx_clk
00000000ff61dbc0 l     O .data	0000000000000010 pfe_mac0_ext_tx
00000000ff61dbd0 l     O .data	0000000000000030 pfe_mac0_ext_tx_clk
00000000ff61dc00 l     O .data	0000000000000030 pfe_mac0_ref_div_clk
00000000ff61dc30 l     O .data	0000000000000010 pfe_mac0_rmii_ref
00000000ff61dc40 l     O .data	0000000000000030 pfe_mac0_rmii_ref_clk
00000000ff61dc70 l     O .data	0000000000000030 pfe_mac0_rx_clk
00000000ff61dca0 l     O .data	0000000000000030 pfe_mac0_tx_div_clk
00000000ff61dcd0 l     O .data	0000000000000010 pfe_mac1_ext_rx
00000000ff61dce0 l     O .data	0000000000000030 pfe_mac1_ext_rx_clk
00000000ff61dd10 l     O .data	0000000000000010 pfe_mac1_ext_tx
00000000ff61dd20 l     O .data	0000000000000030 pfe_mac1_ext_tx_clk
00000000ff61dd50 l     O .data	0000000000000030 pfe_mac1_ref_div_clk
00000000ff61dd80 l     O .data	0000000000000010 pfe_mac1_rmii_ref
00000000ff61dd90 l     O .data	0000000000000030 pfe_mac1_rmii_ref_clk
00000000ff61ddc0 l     O .data	0000000000000030 pfe_mac1_rx_clk
00000000ff61ddf0 l     O .data	0000000000000030 pfe_mac1_tx_clk
00000000ff61de20 l     O .data	0000000000000010 pfe_mac2_ext_rx
00000000ff61de30 l     O .data	0000000000000030 pfe_mac2_ext_rx_clk
00000000ff61de60 l     O .data	0000000000000010 pfe_mac2_ext_tx
00000000ff61de70 l     O .data	0000000000000030 pfe_mac2_ext_tx_clk
00000000ff61dea0 l     O .data	0000000000000030 pfe_mac2_ref_div_clk
00000000ff61ded0 l     O .data	0000000000000010 pfe_mac2_rmii_ref
00000000ff61dee0 l     O .data	0000000000000030 pfe_mac2_rmii_ref_clk
00000000ff61df10 l     O .data	0000000000000030 pfe_mac2_rx_clk
00000000ff61df40 l     O .data	0000000000000030 pfe_mac2_tx_clk
00000000ff61df70 l     O .data	0000000000000030 pfe_pe_clk
00000000ff61dfa0 l     O .data	0000000000000018 pfe_pe_part_link
00000000ff61dfb8 l     O .data	0000000000000030 pfe_sys_clk
00000000ff61dfe8 l     O .data	0000000000000028 pfe_sys_div
00000000ff61e010 l     O .data	0000000000000018 pfe_ts_block_link
00000000ff61e028 l     O .data	0000000000000030 pfe_ts_clk
00000000ff61e058 l     O .data	0000000000000010 serdes0_lane1_cdr
00000000ff61e068 l     O .data	0000000000000030 serdes0_lane1_cdr_clk
00000000ff61e098 l     O .data	0000000000000010 serdes0_lane1_tx
00000000ff61e0a8 l     O .data	0000000000000030 serdes0_lane1_tx_clk
00000000ff61e0d8 l     O .data	0000000000000010 serdes1_lane1_cdr
00000000ff61e118 l     O .data	0000000000000010 serdes1_lane1_tx
00000000ff618948 l     O .ro	00000000000002d0 s32g_cc_clocks
00000000ff618c18 l     O .ro	00000000000000a0 s32g_clocks
0000000000000000 l    df *ABS*	0000000000000000 s32g_scmi_ids.c
00000000ff608050 l     F .ro	0000000000000120 s32g_compound2clkid
00000000ff619080 l     O .ro	000000000000001e __func__.0
0000000000000000 l    df *ABS*	0000000000000000 s32gen1_clk.c
00000000ff61e398 l     O .data	0000000000000030 a53_core_clk
00000000ff61ebc0 l     O .data	0000000000000030 cgm1_mux0_clk
00000000ff61e3c8 l     O .data	0000000000000028 a53_core_div10
00000000ff61e3f0 l     O .data	0000000000000030 a53_core_div10_clk
00000000ff61e420 l     O .data	0000000000000028 a53_core_div2
00000000ff61e448 l     O .data	0000000000000030 a53_core_div2_clk
00000000ff61e478 l     O .data	0000000000000020 accel_pll_mux
00000000ff61e498 l     O .data	0000000000000030 accel_pll_mux_clk
00000000ff61e4f8 l     O .data	0000000000000028 accel_pll_phi0_div
00000000ff61e5a8 l     O .data	0000000000000030 accelpll
00000000ff61e550 l     O .data	0000000000000028 accel_pll_phi1_div
00000000ff61e578 l     O .data	0000000000000030 accel_pll_vco_clk
00000000ff61e5d8 l     O .data	0000000000000030 arm_dfs1_clk
00000000ff61e608 l     O .data	0000000000000020 arm_dfs1_div
00000000ff61e628 l     O .data	0000000000000030 arm_dfs2_clk
00000000ff61e658 l     O .data	0000000000000020 arm_dfs2_div
00000000ff61e678 l     O .data	0000000000000020 arm_pll_mux
00000000ff61e698 l     O .data	0000000000000030 arm_pll_mux_clk
00000000ff61e6c8 l     O .data	0000000000000030 arm_pll_phi0_clk
00000000ff61e6f8 l     O .data	0000000000000028 arm_pll_phi0_div
00000000ff61e770 l     O .data	0000000000000030 armpll
00000000ff61eb98 l     O .data	0000000000000024 cgm1_mux0
00000000ff61e720 l     O .data	0000000000000030 arm_pll_vco_clk
00000000ff61e7a0 l     O .data	0000000000000020 cgm0_mux0
00000000ff61e7f0 l     O .data	0000000000000028 cgm0_mux1
00000000ff61e818 l     O .data	0000000000000020 cgm0_mux12
00000000ff61e838 l     O .data	0000000000000030 cgm0_mux12_clk
00000000ff61e868 l     O .data	0000000000000020 cgm0_mux14
00000000ff61e888 l     O .data	0000000000000030 cgm0_mux14_clk
00000000ff61e8b8 l     O .data	0000000000000020 cgm0_mux16
00000000ff61e8d8 l     O .data	0000000000000030 cgm0_mux16_clk
00000000ff61e908 l     O .data	0000000000000030 cgm0_mux1_clk
00000000ff61e938 l     O .data	0000000000000028 cgm0_mux2
00000000ff61e960 l     O .data	0000000000000030 cgm0_mux2_clk
00000000ff61e990 l     O .data	0000000000000020 cgm0_mux3
00000000ff61e9b0 l     O .data	0000000000000030 cgm0_mux3_clk
00000000ff61e9e0 l     O .data	0000000000000024 cgm0_mux4
00000000ff61ea08 l     O .data	0000000000000030 cgm0_mux4_clk
00000000ff61ea38 l     O .data	0000000000000024 cgm0_mux5
00000000ff61ea60 l     O .data	0000000000000030 cgm0_mux5_clk
00000000ff61ea90 l     O .data	0000000000000024 cgm0_mux6
00000000ff61eab8 l     O .data	0000000000000030 cgm0_mux6_clk
00000000ff61eae8 l     O .data	0000000000000024 cgm0_mux7
00000000ff61eb40 l     O .data	0000000000000024 cgm0_mux8
00000000ff61eb68 l     O .data	0000000000000030 cgm0_mux8_clk
00000000ff61ebf0 l     O .data	0000000000000020 cgm5_mux0
00000000ff61ec10 l     O .data	0000000000000030 cgm5_mux0_clk
00000000ff61ec40 l     O .data	0000000000000030 clkout0_clk
00000000ff61ec70 l     O .data	0000000000000020 clkout0_div
00000000ff61ec90 l     O .data	0000000000000030 clkout1_clk
00000000ff61ecc0 l     O .data	0000000000000020 clkout1_div
00000000ff61ece0 l     O .data	0000000000000018 ddr_block_link
00000000ff61f0f0 l     O .data	0000000000000018 part0_block1
00000000ff61ecf8 l     O .data	0000000000000030 ddr_clk
00000000ff61ed28 l     O .data	0000000000000020 ddr_pll_mux
00000000ff61ed48 l     O .data	0000000000000030 ddr_pll_mux_clk
00000000ff61ed78 l     O .data	0000000000000030 ddr_pll_phi0_clk
00000000ff61eda8 l     O .data	0000000000000028 ddr_pll_phi0_div
00000000ff61ee00 l     O .data	0000000000000030 ddrpll
00000000ff61edd0 l     O .data	0000000000000030 ddr_pll_vco_clk
00000000ff61ee30 l     O .data	0000000000000020 firc
00000000ff61ee50 l     O .data	0000000000000030 firc_clk
00000000ff61ee80 l     O .data	0000000000000030 flexray_pe_clk
00000000ff61eeb0 l     O .data	0000000000000020 flexray_pe_div
00000000ff61eed0 l     O .data	0000000000000020 ftm0_div
00000000ff61eef0 l     O .data	0000000000000010 ftm0_ext
00000000ff61ef00 l     O .data	0000000000000030 ftm0_ext_clk
00000000ff61ef30 l     O .data	0000000000000030 ftm0_ref_clk
00000000ff61ef60 l     O .data	0000000000000020 ftm1_div
00000000ff61ef80 l     O .data	0000000000000010 ftm1_ext
00000000ff61ef90 l     O .data	0000000000000030 ftm1_ext_clk
00000000ff61efc0 l     O .data	0000000000000030 ftm1_ref_clk
00000000ff61eff0 l     O .data	0000000000000020 fxosc
00000000ff61f010 l     O .data	0000000000000030 fxosc_clk
00000000ff61f040 l     O .data	0000000000000030 lin_baud_clk
00000000ff61f070 l     O .data	0000000000000030 linflexd_clk
00000000ff61f0a0 l     O .data	0000000000000028 linflexd_div
00000000ff61f0d8 l     O .data	0000000000000018 part0_block0
00000000ff61f128 l     O .data	0000000000000030 periph_dfs1_clk
00000000ff61f158 l     O .data	0000000000000020 periph_dfs1_div
00000000ff61f550 l     O .data	0000000000000020 periphdfs
00000000ff61f178 l     O .data	0000000000000030 periph_dfs2_clk
00000000ff61f1a8 l     O .data	0000000000000020 periph_dfs2_div
00000000ff61f1c8 l     O .data	0000000000000030 periph_dfs3_clk
00000000ff61f1f8 l     O .data	0000000000000020 periph_dfs3_div
00000000ff61f218 l     O .data	0000000000000030 periph_dfs5_clk
00000000ff61f248 l     O .data	0000000000000020 periph_dfs5_div
00000000ff61f268 l     O .data	0000000000000020 periph_pll_mux
00000000ff61f288 l     O .data	0000000000000030 periph_pll_mux_clk
00000000ff61f2b8 l     O .data	0000000000000030 periph_pll_phi0_clk
00000000ff61f2e8 l     O .data	0000000000000028 periph_pll_phi0_div
00000000ff61f570 l     O .data	0000000000000030 periphpll
00000000ff61f310 l     O .data	0000000000000030 periph_pll_phi1_clk
00000000ff61f340 l     O .data	0000000000000028 periph_pll_phi1_div
00000000ff61f368 l     O .data	0000000000000030 periph_pll_phi2_clk
00000000ff61f398 l     O .data	0000000000000028 periph_pll_phi2_div
00000000ff61f3c0 l     O .data	0000000000000030 periph_pll_phi3_clk
00000000ff61f3f0 l     O .data	0000000000000028 periph_pll_phi3_div
00000000ff61f418 l     O .data	0000000000000030 periph_pll_phi4_clk
00000000ff61f448 l     O .data	0000000000000028 periph_pll_phi4_div
00000000ff61f470 l     O .data	0000000000000030 periph_pll_phi5_clk
00000000ff61f4a0 l     O .data	0000000000000028 periph_pll_phi5_div
00000000ff61f4c8 l     O .data	0000000000000030 periph_pll_phi7_clk
00000000ff61f4f8 l     O .data	0000000000000028 periph_pll_phi7_div
00000000ff61f520 l     O .data	0000000000000030 periph_pll_vco_clk
00000000ff61f5a0 l     O .data	0000000000000030 qspi_2x_clk
00000000ff61f600 l     O .data	0000000000000020 qspi_div
00000000ff61f5d0 l     O .data	0000000000000030 qspi_clk
00000000ff61f620 l     O .data	0000000000000028 qspi_div2
00000000ff61f648 l     O .data	0000000000000010 s32gen1_freq_div_mappings
00000000ff61f658 l     O .data	0000000000000018 sdhc_block_link
00000000ff61f6a0 l     O .data	0000000000000020 sdhc_div
00000000ff61f670 l     O .data	0000000000000030 sdhc_clk
00000000ff61f6c0 l     O .data	0000000000000010 serdes0_lane0_cdr
00000000ff61f6d0 l     O .data	0000000000000030 serdes0_lane0_cdr_clk
00000000ff61f700 l     O .data	0000000000000010 serdes0_lane0_tx
00000000ff61f710 l     O .data	0000000000000030 serdes0_lane0_tx_clk
00000000ff61f740 l     O .data	0000000000000010 serdes1_lane0_cdr
00000000ff61f780 l     O .data	0000000000000010 serdes1_lane0_tx
00000000ff61f7c0 l     O .data	0000000000000030 serdes_ref_clk
00000000ff61f7f0 l     O .data	0000000000000020 sirc
00000000ff61f810 l     O .data	0000000000000030 sirc_clk
00000000ff61f840 l     O .data	0000000000000030 spi_clk
00000000ff61f8c8 l     O .data	0000000000000028 xbar_div2
00000000ff61f8a0 l     O .data	0000000000000028 xbar_div12
00000000ff61f950 l     O .data	0000000000000028 xbar_div4
00000000ff61f9a8 l     O .data	0000000000000028 xbar_div6
00000000ff61f978 l     O .data	0000000000000030 xbar_div4_clk
00000000ff61fa00 l     O .data	0000000000000028 xbar_div8
00000000ff61f9d0 l     O .data	0000000000000030 xbar_div6_clk
00000000ff6190a0 l     O .ro	0000000000000398 plat_clocks
0000000000000000 l    df *ABS*	0000000000000000 s32gen1_scmi_clk.c
0000000000000000 l    df *ABS*	0000000000000000 s32gen1_scmi_ids.c
00000000ff608fd0 l     F .ro	0000000000000074 compound2clkid
00000000ff609050 l     F .ro	000000000000024c cc_compound_clk_set_parents
0000000000000000 l    df *ABS*	0000000000000000 set_par_rate.c
00000000ff6097d0 l     F .ro	00000000000005a0 set_module_rate
00000000ff619da0 l     O .ro	000000000000000d __func__.0
0000000000000000 l    df *ABS*	0000000000000000 s32_i2c.c
00000000ff60a020 l     F .ro	0000000000000080 s32_i2c_stop.isra.0
00000000ff60a0a0 l     F .ro	0000000000000094 s32_i2c_write_byte
00000000ff60a140 l     F .ro	0000000000000180 s32_i2c_start.part.0
00000000ff619e50 l     O .ro	000000000000000d __func__.0
00000000ff619e60 l     O .ro	000000000000000e __func__.1
00000000ff619e70 l     O .ro	000000000000000d __func__.2
00000000ff619e80 l     O .ro	0000000000000080 s32_clk_div
0000000000000000 l    df *ABS*	0000000000000000 memory_pool.c
0000000000000000 l    df *ABS*	0000000000000000 ocotp.c
00000000ff642f00 l     O .bss	0000000000000020 gocotp
0000000000000000 l    df *ABS*	0000000000000000 s32gen1_scmi_perf.c
00000000ff642f20 l     O .bss	00000000000000a0 opps
00000000ff642fc0 l     O .bss	0000000000000004 opps_lock
0000000000000000 l    df *ABS*	0000000000000000 vr5510.c
00000000ff642fc8 l     O .bss	0000000000000008 fill_level
00000000ff642fd0 l     O .bss	00000000000000a0 instances
0000000000000000 l    df *ABS*	0000000000000000 s32gen1_rst.c
00000000ff643070 l     O .bss	0000000000000008 drv.0
0000000000000000 l    df *ABS*	0000000000000000 s32g_wkpu.c
00000000ff643078 l     O .bss	0000000000000040 gwkpu
0000000000000000 l    df *ABS*	0000000000000000 base.c
00000000ff60b7e0 l     F .ro	0000000000000038 discover_implementation_version
00000000ff60b820 l     F .ro	0000000000000070 report_message_attributes
00000000ff60b890 l     F .ro	000000000000003c report_version
00000000ff60b8d0 l     F .ro	00000000000000ec discover_list_protocols
00000000ff60b9c0 l     F .ro	0000000000000068 discover_sub_vendor
00000000ff60ba30 l     F .ro	0000000000000068 discover_vendor
00000000ff60baa0 l     F .ro	0000000000000058 report_attributes
00000000ff60bb00 l     F .ro	0000000000000068 reset_agent_config
00000000ff61a1f8 l     O .ro	0000000000000060 scmi_base_handler_table
0000000000000000 l    df *ABS*	0000000000000000 clock.c
00000000ff60bba0 l     F .ro	0000000000000070 report_message_attributes
00000000ff60bc10 l     F .ro	000000000000003c report_version
00000000ff60bc50 l     F .ro	0000000000000058 report_attributes
00000000ff60bcb0 l     F .ro	00000000000001c0 scmi_clock_describe_rates
00000000ff60be70 l     F .ro	000000000000009c scmi_clock_rate_get
00000000ff60bf10 l     F .ro	0000000000000090 scmi_clock_rate_set
00000000ff60bfa0 l     F .ro	00000000000000cc scmi_clock_attributes
00000000ff60c070 l     F .ro	0000000000000090 scmi_clock_config_set
00000000ff61a258 l     O .ro	0000000000000040 scmi_clock_handler_table
0000000000000000 l    df *ABS*	0000000000000000 entry.c
0000000000000000 l    df *ABS*	0000000000000000 perf.c
00000000ff60c290 l     F .ro	0000000000000070 report_message_attributes
00000000ff60c300 l     F .ro	000000000000003c report_version
00000000ff60c360 l     F .ro	0000000000000098 report_attributes
00000000ff60c400 l     F .ro	00000000000000f8 scmi_performance_domain_attributes
00000000ff60c500 l     F .ro	0000000000000114 scmi_performance_describe_levels
00000000ff60c620 l     F .ro	00000000000000a0 scmi_performance_limits_set
00000000ff60c6c0 l     F .ro	00000000000000c0 scmi_performance_limits_get
00000000ff60c780 l     F .ro	0000000000000094 scmi_performance_level_set
00000000ff60c820 l     F .ro	00000000000000b8 scmi_performance_level_get
00000000ff61a2d0 l     O .ro	0000000000000048 scmi_perf_handler_table
0000000000000000 l    df *ABS*	0000000000000000 reset_domain.c
00000000ff60c910 l     F .ro	0000000000000070 report_message_attributes
00000000ff60c980 l     F .ro	000000000000003c report_version
00000000ff60c9c0 l     F .ro	0000000000000058 report_attributes
00000000ff60ca20 l     F .ro	00000000000000c0 reset_domain_attributes
00000000ff60cae0 l     F .ro	00000000000000fc reset_request
00000000ff61a318 l     O .ro	0000000000000028 scmi_rstd_handler_table
0000000000000000 l    df *ABS*	0000000000000000 errata_report.c
0000000000000000 l    df *ABS*	0000000000000000 context_mgmt.c
00000000ff6468ac l     O .bss	0000000000000001 has_secure_perworld_init
0000000000000000 l    df *ABS*	0000000000000000 mpam.c
0000000000000000 l    df *ABS*	0000000000000000 pmuv3.c
0000000000000000 l    df *ABS*	0000000000000000 spe.c
00000000ff60d0b0 l     F .ro	0000000000000024 spe_drain_buffers_hook
0000000000000000 l    df *ABS*	0000000000000000 sve.c
0000000000000000 l    df *ABS*	0000000000000000 bakery_lock_normal.c
0000000000000000 l    df *ABS*	0000000000000000 psci_common.c
00000000ff643190 l     O .bss	0000000000000010 psci_req_local_pwr_states
0000000000000000 l    df *ABS*	0000000000000000 psci_main.c
0000000000000000 l    df *ABS*	0000000000000000 psci_mem_protect.c
0000000000000000 l    df *ABS*	0000000000000000 psci_off.c
0000000000000000 l    df *ABS*	0000000000000000 psci_on.c
0000000000000000 l    df *ABS*	0000000000000000 psci_setup.c
00000000ff641600 l     O .bss	0000000000001200 psci_ns_context
0000000000000000 l    df *ABS*	0000000000000000 psci_suspend.c
0000000000000000 l    df *ABS*	0000000000000000 psci_system_off.c
0000000000000000 l    df *ABS*	0000000000000000 crc8.c
0000000000000000 l    df *ABS*	0000000000000000 xlat_tables_arch.c
0000000000000000 l    df *ABS*	0000000000000000 xlat_tables_context.c
00000000ff646c00 l     O .bss	0000000000000200 tf_base_xlat_table
00000000ff6431c0 l     O .bss	0000000000000070 tf_mapped_regions
00000000ff643230 l     O .bss	0000000000000848 tf_mmap
00000000ff620008 l     O .data	0000000000000070 tf_xlat_ctx
00000000ff647000 l     O .xlat_table	000000000001c000 tf_xlat_tables
0000000000000000 l    df *ABS*	0000000000000000 xlat_tables_core.c
00000000ff60f3e0 l     F .ro	0000000000000144 mmap_add_region_check
00000000ff60f530 l     F .ro	0000000000000294 xlat_tables_unmap_region
00000000ff60f8e0 l     F .ro	0000000000000308 xlat_tables_map_region
0000000000000000 l    df *ABS*	0000000000000000 xlat_tables_utils.c
00000000ff610190 l     F .ro	00000000000000b0 find_xlat_table_entry
00000000ff610240 l     F .ro	0000000000000100 xlat_get_mem_attributes_internal
0000000000000000 l    df *ABS*	0000000000000000 plat_bl_common.c
0000000000000000 l    df *ABS*	0000000000000000 plat_gicv3.c
00000000ff61a440 l     O .ro	0000000000000010 CSWTCH.13
0000000000000000 l    df *ABS*	0000000000000000 plat_log_common.c
00000000ff61a4a0 l     O .ro	0000000000000028 plat_prefix_str
0000000000000000 l    df *ABS*	0000000000000000 plat_psci_common.c
0000000000000000 l    df *ABS*	0000000000000000 s32_bl31.c
00000000ff6105f0 l     F .ro	0000000000000004 plat_s32_mpidr_to_core_pos
00000000ff643b28 l     O .bss	0000000000002720 dist_ctx
00000000ff643a78 l     O .bss	0000000000000058 bl32_image_ep_info
00000000ff643ad0 l     O .bss	0000000000000058 bl33_image_ep_info
00000000ff646248 l     O .bss	000000000000000c interrupt_props
00000000ff646258 l     O .bss	00000000000002c0 rdisif_ctxs
00000000ff646518 l     O .bss	0000000000000040 rdistif_base_addrs
00000000ff646578 l     O .bss	0000000000000008 timer_ctx
00000000ff620078 l     O .data	0000000000000030 s32_gic_data
00000000ff61a510 l     O .ro	00000000000001b8 dyn_regions
00000000ff61a6c8 l     O .ro	0000000000000050 s32_mmap
0000000000000000 l    df *ABS*	0000000000000000 s32_bl_common.c
0000000000000000 l    df *ABS*	0000000000000000 s32_dt.c
00000000ff6468a8 l     O .bss	0000000000000004 fdt_checked
0000000000000000 l    df *ABS*	0000000000000000 s32_mc_me.c
0000000000000000 l    df *ABS*	0000000000000000 s32_mc_rgm.c
0000000000000000 l    df *ABS*	0000000000000000 s32_ncore.c
00000000ff611b40 l     F .ro	00000000000000e4 set_caiu
0000000000000000 l    df *ABS*	0000000000000000 s32_pinctrl.c
00000000ff6200a8 l     O .data	0000000000000030 siul2_mmaps.0
0000000000000000 l    df *ABS*	0000000000000000 s32_psci.c
00000000ff611f70 l     F .ro	0000000000000008 s32_migrate_info
00000000ff611f80 l     F .ro	0000000000000040 s32g_get_sys_suspend_power_state
00000000ff611fc0 l     F .ro	0000000000000014 s32g_pwr_domain_suspend
00000000ff611fe0 l     F .ro	0000000000000014 s32g_pwr_domain_suspend_pwrdown_early
00000000ff612000 l     F .ro	0000000000000014 s32_pwr_domain_off
00000000ff612020 l     F .ro	0000000000000024 s32_system_reset
00000000ff612050 l     F .ro	0000000000000010 s32_system_off
00000000ff612060 l     F .ro	0000000000000154 s32_pwr_domain_pwr_down_wfi
00000000ff6121c0 l     F .ro	0000000000000050 s32g_pwr_domain_suspend_finish
00000000ff612210 l     F .ro	000000000000007c s32_pwr_domain_on_finish
00000000ff612290 l     F .ro	0000000000000138 s32_pwr_domain_on
00000000ff61a898 l     O .ro	0000000000000012 __func__.0
00000000ff61a8b0 l     O .ro	0000000000000013 __func__.1
00000000ff61a8c8 l     O .ro	0000000000000026 __func__.2
00000000ff61a8f0 l     O .ro	0000000000000018 __func__.3
00000000ff61a908 l     O .ro	0000000000000019 __func__.4
00000000ff61a928 l     O .ro	000000000000001f __func__.5
00000000ff61a948 l     O .ro	000000000000001c __func__.6
00000000ff61a968 l     O .ro	0000000000000011 __func__.7
00000000ff61a980 l     O .ro	0000000000000021 __func__.8
00000000ff61a9a8 l     O .ro	0000000000000004 s32_power_domain_tree_desc
0000000000000000 l    df *ABS*	0000000000000000 s32_scmi_clk.c
00000000ff612420 l     F .ro	0000000000000134 plat_scmi_clock_set_state.part.0
00000000ff612560 l     F .ro	0000000000000118 plat_scmi_clock_agent_reset.part.0
00000000ff646630 l     O .bss	00000000000000fe clk_states
0000000000000000 l    df *ABS*	0000000000000000 s32_scmi_perf.c
00000000ff6200d8 l     O .data	0000000000000018 domains
0000000000000000 l    df *ABS*	0000000000000000 s32_scmi_rst.c
00000000ff61acc0 l     O .ro	0000000000000228 reset_table
0000000000000000 l    df *ABS*	0000000000000000 s32_scp_scmi.c
00000000ff646730 l     O .bss	0000000000000170 scp_dt
0000000000000000 l    df *ABS*	0000000000000000 s32_sramc.c
0000000000000000 l    df *ABS*	0000000000000000 s32_svc.c
00000000ff6131a0 l     F .ro	0000000000000014 s32_svc_smc_setup
00000000ff61af08 l     O .ro	0000000000000007 s32_protocols
00000000ff61b9c8 l     O .ro	0000000000000020 __svc_desc_s32_svc
0000000000000000 l    df *ABS*	0000000000000000 s32g3_mc_me.c
00000000ff61af10 l     O .ro	0000000000000040 haddr_map
00000000ff61af50 l     O .ro	0000000000000008 mc_me_a53_core_id.1
00000000ff61af58 l     O .ro	0000000000000004 mc_me_m7_core_id.0
0000000000000000 l    df *ABS*	0000000000000000 s32g3_mc_rgm.c
00000000ff61af60 l     O .ro	0000000000000008 periph_rgm_coresp.1
00000000ff61af68 l     O .ro	0000000000000004 periph_rgm_mcoresp.0
0000000000000000 l    df *ABS*	0000000000000000 s32g3_sramc.c
00000000ff6133c0 l     F .ro	0000000000000034 a53_to_sramc_offset
00000000ff6210f0 l     O .data	0000000000000080 controllers.0
0000000000000000 l    df *ABS*	0000000000000000 s32g3_vr5510.c
0000000000000000 l    df *ABS*	0000000000000000 s32g_bl31.c
0000000000000000 l    df *ABS*	0000000000000000 s32g_bl_common.c
0000000000000000 l    df *ABS*	0000000000000000 s32g_clocks.c
00000000ff61b078 l     O .ro	0000000000000020 CSWTCH.5
0000000000000000 l    df *ABS*	0000000000000000 s32g_pinctrl.c
00000000ff61b198 l     O .ro	0000000000000010 i2c0_periph
00000000ff61b1a8 l     O .ro	0000000000000060 i2c0_pinconfs
00000000ff61b2e8 l     O .ro	0000000000000010 i2c_cfgs
00000000ff61b208 l     O .ro	0000000000000010 i2c1_periph
00000000ff61b218 l     O .ro	0000000000000060 i2c1_pinconfs
00000000ff61b278 l     O .ro	0000000000000010 i2c4_periph
00000000ff61b288 l     O .ro	0000000000000060 i2c4_pinconfs
00000000ff61b2f8 l     O .ro	0000000000000004 wkpu_cfgs.0
00000000ff61b300 l     O .ro	000000000000002e wkpu_gpio
0000000000000000 l    df *ABS*	0000000000000000 s32g_plat_funcs.c
0000000000000000 l    df *ABS*	0000000000000000 s32g_resume.c
0000000000000000 l    df *ABS*	0000000000000000 s32g_vr5510.c
00000000ff613b80 l     F .ro	00000000000000c0 watchdog_refresh
0000000000000000 l    df *ABS*	0000000000000000 arm_arch_svc_setup.c
00000000ff613ff0 l     F .ro	0000000000000178 arm_arch_svc_smc_handler
00000000ff61b9e8 l     O .ro	0000000000000020 __svc_desc_arm_arch_svc
0000000000000000 l    df *ABS*	0000000000000000 std_svc_setup.c
00000000ff614170 l     F .ro	00000000000000e8 std_svc_smc_handler
00000000ff614260 l     F .ro	0000000000000024 std_svc_setup
00000000ff61ba08 l     O .ro	0000000000000020 __svc_desc_std_svc
0000000000000000 l    df *ABS*	0000000000000000 fdt.c
0000000000000000 l    df *ABS*	0000000000000000 fdt_addresses.c
0000000000000000 l    df *ABS*	0000000000000000 fdt_ro.c
00000000ff614a50 l     F .ro	000000000000007c fdt_get_property_by_offset_
00000000ff614c60 l     F .ro	0000000000000194 fdt_get_property_namelen_
0000000000000000 l    df *ABS*	0000000000000000 memchr.c
0000000000000000 l    df *ABS*	0000000000000000 memcmp.c
0000000000000000 l    df *ABS*	0000000000000000 memcpy.c
0000000000000000 l    df *ABS*	0000000000000000 memmove.c
0000000000000000 l    df *ABS*	0000000000000000 memset.c
0000000000000000 l    df *ABS*	0000000000000000 printf.c
00000000ff615550 l     F .ro	00000000000000fc unsigned_num_print.part.0
0000000000000000 l    df *ABS*	0000000000000000 strlcpy.c
0000000000000000 l    df *ABS*	0000000000000000 strlen.c
0000000000000000 l    df *ABS*	0000000000000000 strncmp.c
0000000000000000 l    df *ABS*	0000000000000000 strnlen.c
0000000000000000 l    df *ABS*	0000000000000000 strrchr.c
0000000000000000 l    df *ABS*	0000000000000000 s32_lowlevel_bl31.o
00000000ff616d90 l     F .ro	000000000000003c wait_ncore_caiu_online
00000000ff616da8 l       .ro	0000000000000000 caiu0
00000000ff616dac l       .ro	0000000000000000 csadse0_addr
00000000ff616db8 l       .ro	0000000000000000 caiu_loop
0000000000000000 l    df *ABS*	0000000000000000 crash_reporting.o
00000000ff61b6c0 l       .ro	0000000000000000 print_spacer
00000000ff61b6d2 l       .ro	0000000000000000 gp_regs
00000000ff61b741 l       .ro	0000000000000000 el3_sys_regs
00000000ff61b79e l       .ro	0000000000000000 non_el3_sys_regs
00000000ff61b8ea l       .ro	0000000000000000 aarch32_regs
00000000ff61b901 l       .ro	0000000000000000 panic_msg
00000000ff61b913 l       .ro	0000000000000000 excpt_msg
00000000ff61b933 l       .ro	0000000000000000 intr_excpt_msg
00000000ff61b959 l       .ro	0000000000000000 x30_msg
00000000ff61b95d l       .ro	0000000000000000 excpt_msg_el
00000000ff615d20 l     F .ro	000000000000004c size_controlled_print
00000000ff615d28 l       .ro	0000000000000000 test_size_list
00000000ff615d64 l       .ro	0000000000000000 exit_size_print
00000000ff615d6c l     F .ro	000000000000000c print_alignment
00000000ff615d78 l     F .ro	0000000000000018 str_in_crash_buf_print
00000000ff615eb0 l       .ro	0000000000000000 do_crash_reporting
00000000ff615df4 l       .ro	0000000000000000 print_next
00000000ff615e20 l       .ro	0000000000000000 print_x30
00000000ff615e7c l       .ro	0000000000000000 from_el1
00000000ff615e44 l       .ro	0000000000000000 test_pauth
00000000ff615e64 l       .ro	0000000000000000 no_pauth
00000000ff615f28 l       .ro	0000000000000000 print_el3_sys_regs
00000000ff61601c l     F .ro	0000000000000004 crash_panic
0000000000000000 l    df *ABS*	0000000000000000 runtime_exceptions.o
00000000ff6161a0 l     F .ro	0000000000000080 reflect_pending_async_ea_to_lower_el
00000000ff616020 l       .ro	0000000000000000 smc_handler32
00000000ff616024 l       .ro	0000000000000000 sync_handler64
00000000ff616168 l     F .ro	0000000000000038 imp_def_el3_handler
00000000ff616114 l     F .ro	0000000000000054 handle_interrupt_exception
00000000ff616020 l     F .ro	00000000000000f4 sync_exception_handler
00000000ff6160e8 l       .ro	0000000000000000 smc_prohibited
00000000ff6160ac l       .ro	0000000000000000 sysreg_handler64
00000000ff6160dc l       .ro	0000000000000000 smc_unknown
00000000ff616164 l       .ro	0000000000000000 interrupt_exit
00000000ff61618c l       .ro	0000000000000000 el3_handler_exit
00000000ff6161c0 l       .ro	0000000000000000 check_loop_ctr
00000000ff6161d4 l       .ro	0000000000000000 skip_loop_ctr
00000000ff616208 l       .ro	0000000000000000 skip_smc_check
00000000ff616204 l       .ro	0000000000000000 subtract_elr_el3
0000000000000000 l    df *ABS*	0000000000000000 debug.o
00000000ff61b981 l       .ro	0000000000000000 panic_msg
00000000ff61627c l       .ro	0000000000000000 panic_common
00000000ff6162a4 l       .ro	0000000000000000 _panic_handler
0000000000000000 l    df *ABS*	0000000000000000 linflex_console.o
00000000ff6162ac l     F .ro	0000000000000020 get_ldiv_mult
00000000ff6162cc l     F .ro	0000000000000034 linflex_set_brg
00000000ff616310 l       .ro	0000000000000000 wait_init_entry
00000000ff616374 l       .ro	0000000000000000 exit_flush
00000000ff616364 l       .ro	0000000000000000 tfc_loop
00000000ff6163e8 l       .ro	0000000000000000 putc_error
00000000ff61639c l       .ro	0000000000000000 print_char
00000000ff6163c4 l       .ro	0000000000000000 buffer_mode
00000000ff6163ac l       .ro	0000000000000000 fifo_mode
00000000ff6163e0 l       .ro	0000000000000000 no_error
00000000ff6163c8 l       .ro	0000000000000000 buffer_loop
0000000000000000 l    df *ABS*	0000000000000000 cache_helpers.o
00000000ff616424 l       .ro	0000000000000000 exit_loop_civac
00000000ff616410 l       .ro	0000000000000000 loop_civac
00000000ff61645c l       .ro	0000000000000000 exit_loop_cvac
00000000ff616448 l       .ro	0000000000000000 loop_cvac
00000000ff616494 l       .ro	0000000000000000 exit_loop_ivac
00000000ff616480 l       .ro	0000000000000000 loop_ivac
00000000ff616498 l     F .ro	000000000000009c do_dcsw_op
00000000ff616530 l       .ro	0000000000000000 exit
00000000ff616534 l       .ro	0000000000000000 dcsw_loop_table
00000000ff6164b4 l       .ro	0000000000000000 loop1
00000000ff616518 l       .ro	0000000000000000 level_done
00000000ff616534 l       .ro	0000000000000000 loop2_isw
00000000ff616538 l       .ro	0000000000000000 loop3_isw
00000000ff616554 l       .ro	0000000000000000 loop2_cisw
00000000ff616558 l       .ro	0000000000000000 loop3_cisw
00000000ff616574 l       .ro	0000000000000000 loop2_csw
00000000ff616578 l       .ro	0000000000000000 loop3_csw
0000000000000000 l    df *ABS*	0000000000000000 misc_helpers.o
00000000ff6165bc l     F .ro	00000000000000e8 zeromem_dczva
0000000000000000 l    df *ABS*	0000000000000000 cortex_a53.o
00000000ff6166a4 l     F .ro	0000000000000014 cortex_a53_disable_dcache
00000000ff6166b8 l     F .ro	0000000000000018 cortex_a53_disable_smp
00000000ff6166d0 l     F .ro	0000000000000008 check_erratum_cortex_a53_819472
00000000ff61b568 l       .ro	0000000000000000 cortex_a53_errata_list_start
00000000ff6166d8 l     F .ro	0000000000000008 check_erratum_cortex_a53_824069
00000000ff6166e0 l     F .ro	0000000000000008 check_erratum_cortex_a53_826319
00000000ff6166e8 l     F .ro	0000000000000008 check_erratum_cortex_a53_827319
00000000ff6166f0 l     F .ro	0000000000000024 check_erratum_cortex_a53_835769
00000000ff61670c l       .ro	0000000000000000 errata_not_applies
00000000ff616710 l       .ro	0000000000000000 exit_check_errata_835769
00000000ff616714 l     F .ro	0000000000000020 erratum_cortex_a53_836870_wa
00000000ff616734 l     F .ro	0000000000000008 check_erratum_cortex_a53_836870
00000000ff616730 l       .ro	0000000000000000 erratum_cortex_a53_836870_skip
00000000ff61673c l     F .ro	0000000000000024 check_erratum_cortex_a53_843419
00000000ff61675c l       .ro	0000000000000000 exit_check_errata_843419
00000000ff616760 l     F .ro	0000000000000020 erratum_cortex_a53_855873_wa
00000000ff616780 l     F .ro	0000000000000008 check_erratum_cortex_a53_855873
00000000ff61677c l       .ro	0000000000000000 erratum_cortex_a53_855873_skip
00000000ff616788 l     F .ro	0000000000000008 check_erratum_cortex_a53_1530924
00000000ff616790 l     F .ro	0000000000000008 check_erratum_cortex_a53_50481
00000000ff616798 l     F .ro	0000000000000008 check_erratum_cortex_a53_50543
00000000ff6167a0 l     F .ro	0000000000000058 cortex_a53_reset_func
00000000ff61b670 l       .ro	0000000000000000 cortex_a53_errata_list_end
00000000ff6167bc l       .ro	0000000000000000 errata_begin
00000000ff6167e4 l       .ro	0000000000000000 errata_end
00000000ff616810 l     F .ro	0000000000000024 cortex_a53_cluster_pwr_dwn
00000000ff61b992 l       .ro	0000000000000000 cortex_a53_regs
00000000ff616834 l     F .ro	0000000000000018 cortex_a53_cpu_reg_dump
0000000000000000 l    df *ABS*	0000000000000000 cpu_helpers.o
00000000ff61690c l       .ro	0000000000000000 search_def_ptr
0000000000000000 l    df *ABS*	0000000000000000 context.o
00000000ff616b38 l       .ro	0000000000000000 realm_state
00000000ff616b3c l       .ro	0000000000000000 end
00000000ff616b6c l       .ro	0000000000000000 sve_not_enabled
00000000ff616b94 l       .ro	0000000000000000 no_mpam
0000000000000000 l    df *ABS*	0000000000000000 cpu_data.o
0000000000000000 l    df *ABS*	0000000000000000 spinlock.o
00000000ff616c10 l       .ro	0000000000000000 l1
00000000ff616c14 l       .ro	0000000000000000 l2
0000000000000000 l    df *ABS*	0000000000000000 psci_helpers.o
0000000000000000 l    df *ABS*	0000000000000000 enable_mmu.o
0000000000000000 l    df *ABS*	0000000000000000 platform_helpers.o
0000000000000000 l    df *ABS*	0000000000000000 platform_mp_stack.o
00000000ff6211c0 l       .stacks	0000000000000000 platform_normal_stacks
0000000000000006 l       *ABS*	0000000000000000 TZ_COUNT
0000000000000000 l    df *ABS*	0000000000000000 s32_linflexuart_crash.o
0000000000000000 l    df *ABS*	0000000000000000 s32_lowlevel_common.o
0000000000000000 l    df *ABS*	0000000000000000 <stdin>
0000000000000000 l    df *ABS*	0000000000000000 boot_info.c
0000000000000000 l    df *ABS*	0000000000000000 bl31_sram.c
0000000000000000 l    df *ABS*	0000000000000000 bl31_sram_code_reg.c
00000000ff600980 g     F .ro	0000000000000010 gicd_read_nsacr
00000000ff601d50 g     F .ro	0000000000000028 putchar
00000000ff607f40 g     F .ro	000000000000006c cc_compound_clk_get_pid
00000000ff600c00 g     F .ro	000000000000001c gicv3_get_spi_limit
00000000ff60cfc0 g     F .ro	0000000000000068 cm_prepare_el3_exit
00000000ff600f70 g     F .ro	0000000000000018 gicv3_get_component_prodid_rev
00000000ff614970 g     F .ro	0000000000000070 fdt_address_cells
00000000ff6093c0 g     F .ro	00000000000000e4 cc_compound_clk_set_rate
00000000ff610520  w    F .ro	0000000000000008 plat_is_smccc_feature_available
00000000ff6037b0 g     F .ro	0000000000000054 s32gen1_cgm_mux_to_safe
00000000ff6117d0 g     F .ro	00000000000000a4 s32_reset_core
00000000ff6145b0 g     F .ro	00000000000000d4 fdt_offset_ptr
00000000ff646ac0 g       .bss	0000000000000000 __PMF_TIMESTAMP_START__
00000000ff613f20 g     F .ro	00000000000000c4 pmic_system_off
00000000ff610530  w    F .ro	0000000000000030 plat_ic_get_pending_interrupt_type
00000000ff6008f0 g     F .ro	0000000000000010 gicd_write_igrpmodr
00000000ff602150 g     F .ro	00000000000002c0 dt_clk_apply_defaults
00000000ff607de0 g     F .ro	00000000000000dc dt_init_plat_clk
00000000ff60cef0 g     F .ro	00000000000000c8 cm_el1_sysregs_context_restore
00000000ff62117c g     O .data	0000000000000004 bl31sram_ro_end
00000000ff60f0f0 g     F .ro	0000000000000068 crc8poly
00000000ff608870 g     F .ro	000000000000002c plat_scmi_clk_get_name
00000000ff663000 g       .xlat_table	0000000000000000 __BL31_END__
00000000ff60dce0 g     F .ro	000000000000011c psci_cpu_suspend
00000000ff600830 g     F .ro	0000000000000018 gicd_set_icenabler
00000000ff61684c g     F .ro	0000000000000020 reset_handler
00000000ff607860 g     F .ro	00000000000001c8 mmap_clk_regions
00000000ff61c600 g     F .ro	0000000000000000 sync_exception_aarch32
00000000ff6165b4 g     F .ro	0000000000000008 zeromem
00000000ff616f50 g     O .ro	0000000000000026 version_string
00000000ff616268 g     F .ro	0000000000000008 asm_print_newline
00000000ff61ba80 g       .ro	0000000000000000 __pubsub_psci_suspend_pwrdown_finish_end
00000000ff60d9c0 g     F .ro	000000000000010c psci_validate_entry_point
00000000ff610750 g     F .ro	000000000000007c is_last_core
00000000ff60fd70 g     F .ro	0000000000000044 mmap_add_ctx
00000000ff600390 g     F .ro	0000000000000004 print_entry_point_info
00000000ff6111d0 g     F .ro	0000000000000188 mc_me_enable_partition
00000000ff612b50 g     F .ro	0000000000000044 plat_scmi_clock_set_state
00000000ff600160 g     F .ro	0000000000000014 cm_get_context
00000000ff607ec0 g     F .ro	0000000000000034 s32g_get_plat_cc_clock
00000000ff60fdc0 g     F .ro	0000000000000290 mmap_add_dynamic_region_ctx
00000000ff6431a8 g     O .bss	0000000000000018 mmu_cfg_params
00000000ff610350 g     F .ro	0000000000000004 xlat_tables_print
00000000ff60d950 g     F .ro	0000000000000064 psci_release_pwr_domain_locks
00000000ff610df0 g     F .ro	0000000000000038 plat_core_pos_by_mpidr
00000000ff60d310 g     F .ro	0000000000000028 psci_validate_power_state
00000000ff600b40 g     F .ro	0000000000000008 gicv3_get_multichip_base
00000000ff6131c0 g     F .ro	00000000000000a8 s32_svc_smc_handler
00000000ff61d000 g       .ro	0000000000000000 __RW_START__
00000000ff60a2c0 g     F .ro	0000000000000230 s32_i2c_read
00000000ff611650 g     F .ro	000000000000017c s32_kick_secondary_ca53_core
00000000ff606030 g     F .ro	0000000000000b44 get_module_rate
00000000ff613380 g     F .ro	0000000000000018 get_rgm_a53_bit
00000000ff60ef10 g     F .ro	00000000000000c0 psci_cpu_suspend_finish
00000000ff647000 g       .xlat_table	0000000000000000 __XLAT_TABLE_START__
00000000ff614ef0 g     F .ro	0000000000000080 fdt_getprop_namelen
00000000ff613b60 g     F .ro	0000000000000014 s32g_resume_entrypoint
00000000ff60f2f0 g     F .ro	000000000000003c mmap_add_dynamic_region
00000000ff616ae0 g     F .ro	0000000000000034 save_and_update_ptw_el1_sys_regs
00000000ff6108f0 g     F .ro	000000000000001c bl31_plat_get_next_image_ep_info
00000000ff616594 g     F .ro	0000000000000010 dcsw_op_level1
00000000ff646580 g     O .bss	00000000000000a0 i2c_drivers
00000000ff60afc0 g     F .ro	0000000000000150 vr5510_register_instance
00000000ff603ed0 g     F .ro	0000000000000410 get_pll_mfi_mfn
00000000ff61f790 g     O .data	0000000000000030 serdes1_lane0_tx_clk
00000000ff601f10 g     F .ro	000000000000000c allocate_clk_driver
00000000ff61f0c8 g     O .data	000000000000000c part0
00000000ff600760 g     F .ro	000000000000001c gicv3_check_erratas_applies
00000000ff615460 g     F .ro	0000000000000050 memmove
00000000ff615160 g     F .ro	0000000000000060 fdt_parent_offset
00000000ff608170 g     F .ro	0000000000000060 plat_scmi_id2clk
00000000ff642868 g     O .bss	0000000000000080 rt_svc_descs_indices
00000000ff600950 g     F .ro	0000000000000010 gicd_write_isenabler
00000000ff6123d0 g     F .ro	0000000000000034 plat_setup_psci_ops
00000000ff61c200 g     F .ro	0000000000000000 sync_exception_sp_elx
00000000ff600970 g     F .ro	0000000000000010 gicd_write_ispendr
00000000ff60f200 g     F .ro	00000000000000a0 setup_mmu_cfg
00000000ff60d030 g     F .ro	0000000000000008 cm_prepare_el3_exit_ns
00000000ff61c000 g     F .ro	0000000000000000 sync_exception_sp_el0
00000000ff616ca0 g     F .ro	000000000000000c psci_power_down_wfi
00000000ff611360 g     F .ro	0000000000000180 mc_me_disable_partition
00000000ff610a70 g     F .ro	0000000000000050 plat_gic_restore
00000000ff6011c0 g     F .ro	0000000000000040 gicv3_cpuif_disable
00000000ff61aa60 g     O .ro	0000000000000048 s32_svc_pm
00000000ff616c6c g     F .ro	0000000000000034 psci_do_pwrup_cache_maintenance
00000000ff60de80 g     F .ro	000000000000005c psci_affinity_info
00000000ff610580  w    F .ro	000000000000003c plat_log_get_prefix
00000000ff60dee0 g     F .ro	000000000000009c psci_migrate
00000000ff610560 g     F .ro	000000000000000c plat_ic_has_interrupt_type
00000000ff616de8 g     F .ro	0000000000000014 s32_core_pos_by_mpidr
00000000ff600b90 g     F .ro	000000000000006c gicv3_rdistif_base_addrs_probe
00000000ff6087b0 g     F .ro	00000000000000a4 plat_compound_clk_get_rate
00000000ff60a5e0 g     F .ro	000000000000011c s32_i2c_init
00000000ff618858 g     O .ro	00000000000000f0 siul2_clk_freq_map
00000000ff616f30 g     O .ro	000000000000001e build_message
00000000ff61e188 g     O .data	0000000000000210 s32g_scmi_clk
00000000ff616b14 g     F .ro	00000000000000c8 el3_exit
00000000ff60e940 g     F .ro	00000000000003a8 psci_setup
00000000ff60f330 g     F .ro	0000000000000038 init_xlat_tables
00000000ff609690 g     F .ro	0000000000000004 cc_get_nclocks
00000000ff610ca0 g     F .ro	0000000000000018 bl31_plat_runtime_setup
00000000ff61d000 g       .data	0000000000000000 __DATA_START__
00000000ff6127b0 g     F .ro	00000000000000a8 plat_scmi_clock_rates_array
00000000ff6468c0 g     O .bss	0000000000000006 psci_locks
00000000ff614ad0 g     F .ro	0000000000000190 fdt_get_string
00000000ff646558 g     O .bss	0000000000000020 s32_core_release_var
00000000ff6128f0 g     F .ro	00000000000001e4 plat_scmi_clock_set_rate
00000000ff616d08  w    F .ro	0000000000000004 plat_disable_acp
00000000ff60d890 g     F .ro	0000000000000034 psci_find_target_suspend_lvl
00000000ff60f190 g     F .ro	0000000000000014 xlat_arch_regime_get_xn_desc
00000000ff610600 g     F .ro	0000000000000084 update_core_state
00000000ff600870 g     F .ro	0000000000000018 gicd_set_isenabler
00000000ff601f60 g     F .ro	00000000000000c8 get_clk_driver_by_name
00000000ff60ecf0 g     F .ro	0000000000000020 psci_arch_setup
00000000ff612df0 g     F .ro	00000000000000c8 plat_scmi_perf_set_limits
00000000ff616948 g     F .ro	0000000000000020 check_wa_cve_2017_5715
00000000ff611aa0 g     F .ro	0000000000000098 s32_mc_rgm_periph_reset
00000000ff615300 g     F .ro	00000000000000bc fdt_node_offset_by_compatible
00000000ff613720 g     F .ro	0000000000000048 s32g_disable_dfs
00000000ff604a50 g     F .ro	0000000000000064 get_module_parent
00000000ff60f010 g     F .ro	0000000000000038 psci_system_reset
00000000ff607cf0 g     F .ro	00000000000000e4 get_base_addr
00000000ff600890 g     F .ro	0000000000000010 gicd_set_ipriorityr
00000000ff621178 g     O .data	0000000000000004 bl31sram_len
00000000ff615440 g     F .ro	0000000000000020 memcpy
00000000ff6200f0 g     O .data	0000000000001000 bl31sram
00000000ff60d070 g     F .ro	0000000000000040 pmuv3_init_el3
00000000ff608000 g     F .ro	0000000000000044 get_plat_clock
00000000ff60de00 g     F .ro	0000000000000080 psci_system_suspend
00000000ff61c380 g     F .ro	0000000000000000 serror_sp_elx
00000000ff60ce90 g     F .ro	0000000000000030 cm_init_context_by_index
00000000ff612cc0 g     F .ro	0000000000000038 plat_scmi_perf_describe_levels
00000000ff608f20 g     F .ro	00000000000000a8 s32gen1_scmi_clk_set_rate
00000000ff60abd0 g     F .ro	00000000000000c0 s32gen1_scmi_get_max_level
00000000ff601010 g     F .ro	000000000000008c gicv3_distif_init
00000000ff60ad50 g     F .ro	00000000000000f0 vr5510_read
00000000ff61c080 g     F .ro	0000000000000000 irq_sp_el0
00000000ff6165bc g     F .ro	00000000000000e8 zero_normalmem
00000000ff60d5b0 g     F .ro	0000000000000048 psci_get_parent_pwr_domain_nodes
00000000ff600f90 g     F .ro	0000000000000078 gicv3_driver_init
00000000ff6132a0 g     F .ro	0000000000000004 plat_scmi_reset_agent
00000000ff61ba80 g     O .ro	0000000000000008 __cb_func_spe_drain_buffers_hookcm_entering_secure_world
00000000ff60b4f0 g     F .ro	000000000000008c s32gen1_wkpu_enable_irqs
00000000ff616dfc g     F .ro	0000000000000130 reset_registers_for_lockstep
00000000ff60efd0 g     F .ro	0000000000000038 psci_system_off
00000000ff60b110 g     F .ro	00000000000001b4 s32gen1_assert_rgm
00000000ff61ba88 g       .ro	0000000000000000 __pubsub_cm_exited_secure_world_end
00000000ff60a880 g     F .ro	00000000000001e4 s32gen1_scmi_get_perf_levels
00000000ff60f2e0 g     F .ro	0000000000000010 mmap_add
00000000ff613770 g     F .ro	000000000000009c sw_mux_clk_config
00000000ff6000e0 g     F .ro	0000000000000074 bl31_warm_entrypoint
00000000ff610ce0 g     F .ro	000000000000000c plat_get_syscnt_freq2
00000000ff610cf0 g     F .ro	0000000000000100 s32_add_i2c_module
00000000ff613610 g     F .ro	0000000000000058 dt_init_ocotp
00000000ff616dcc g     F .ro	0000000000000008 plat_panic_handler
00000000ff61b9c8 g       .ro	0000000000000000 __RT_SVC_DESCS_START__
00000000ff60d100 g     F .ro	000000000000001c sve_enable_per_world
00000000ff608cc0 g     F .ro	0000000000000034 s32gen1_scmi_set_parent
00000000ff6411c0 g       .stacks	0000000000000000 __STACKS_END__
00000000ff600b70 g     F .ro	000000000000001c gicv3_rdistif_mark_core_asleep
00000000ff61ba80 g       .ro	0000000000000000 __pubsub_psci_suspend_pwrdown_start_end
00000000ff616968 g     F .ro	0000000000000020 check_smccc_arch_wa3_applies
00000000ff646900 g       .bss	0000000000000000 __PERCPU_BAKERY_LOCK_END__
00000000ff616428 g     F .ro	0000000000000038 clean_dcache_range
00000000ff6134d0 g     F .ro	0000000000000134 dt_init_pmic
00000000ff61686c g     F .ro	0000000000000024 prepare_cpu_pwr_dwn
00000000ff6107d0 g     F .ro	0000000000000084 is_cluster0_off
00000000ff61f750 g     O .data	0000000000000030 serdes1_lane0_cdr_clk
00000000ff6110d0 g     F .ro	0000000000000098 dt_fill_device_info
00000000ff616354 g     F .ro	0000000000000028 console_linflex_core_flush
00000000ff60ae40 g     F .ro	00000000000000cc vr5510_write
00000000ff646620 g     O .bss	0000000000000008 i2c_fill_level
00000000ff60aa70 g     F .ro	00000000000000a0 s32gen1_scmi_get_level
00000000ff610ae0 g     F .ro	0000000000000014 init_cntvoff_el2
00000000ff616a90 g     F .ro	0000000000000050 restore_gp_pmcr_pauth_regs
00000000ff600740 g     F .ro	0000000000000004 gicv3_distif_post_restore
00000000ff60dad0 g     F .ro	0000000000000178 psci_warmboot_entrypoint
00000000ff604f30 g     F .ro	0000000000000174 dt_init_fixed_clk
00000000ff60d120 g     F .ro	0000000000000018 sve_disable_per_world
00000000ff6096a0 g     F .ro	0000000000000028 cc_scmi_clk_get_name
00000000ff600b50 g     F .ro	000000000000001c gicv3_rdistif_mark_core_awake
00000000ff61ba88 g       .ro	0000000000000000 __pubsub_cm_exited_normal_world_start
00000000ff616d30  w    F .ro	0000000000000010 plat_set_my_stack
00000000ff6001b0 g     F .ro	0000000000000030 cm_set_context_by_index
00000000ff61ba28 g       .ro	0000000000000000 __RT_SVC_DESCS_END__
00000000ff613810 g     F .ro	00000000000000b8 s32g_sw_clks2firc
00000000ff6147f0 g     F .ro	0000000000000040 fdt_check_node_offset_
00000000ff6037a0 g     F .ro	000000000000000c s32gen1_platclk2mux
00000000ff609e90 g     F .ro	0000000000000188 s32gen1_set_parent
00000000ff616238 g     F .ro	0000000000000030 asm_print_hex
00000000ff610b00 g     F .ro	0000000000000198 bl31_plat_arch_setup
00000000ff600290 g     F .ro	0000000000000074 bl31_main
00000000ff612bb0 g     F .ro	0000000000000018 plat_scmi_perf_get_name
00000000ff612720 g     F .ro	000000000000003c plat_scmi_clock_count
00000000ff61b6bc g     O .ro	0000000000000004 dtb_size
00000000ff6430d8 g     O .bss	0000000000000080 psci_cpu_pd_nodes
00000000ff612bd0 g     F .ro	0000000000000018 plat_scmi_perf_get_attributes
00000000ff60dcd0 g     F .ro	0000000000000004 psci_pwrdown_cpu
00000000ff616220 g     F .ro	0000000000000018 asm_print_str
00000000ff606cd0 g     F .ro	0000000000000b88 s32gen1_get_rates
00000000ff616d0c  w    F .ro	0000000000000004 bl31_plat_enable_mmu
00000000ff608c10 g     F .ro	00000000000000a8 s32gen1_scmi_set_rate
00000000ff60ac90 g     F .ro	00000000000000c0 s32gen1_scmi_get_min_level
00000000ff60cc20 g     F .ro	0000000000000004 cm_init
00000000ff611a70 g     F .ro	0000000000000028 s32_mc_rgm_read
00000000ff616d6c g     F .ro	0000000000000010 plat_crash_console_flush
00000000ff61c000 g       .ro	0000000000000000 runtime_exceptions
00000000ff600990 g     F .ro	0000000000000010 gicd_write_nsacr
00000000ff613940 g     F .ro	0000000000000088 i2c_config_pinctrl
00000000ff6009a0 g     F .ro	0000000000000014 gicr_write_ipriorityr
00000000ff615ca0 g     F .ro	0000000000000030 strnlen
00000000ff61ba88 g       .ro	0000000000000000 __pubsub_cm_exited_secure_world_start
00000000ff60dc90 g     F .ro	0000000000000024 psci_spd_migrate_info
00000000ff614f70 g     F .ro	000000000000004c fdt_getprop
00000000ff616bf0 g     F .ro	0000000000000018 _cpu_data_by_index
00000000ff613310 g     F .ro	0000000000000050 s32_turn_off_mcores
00000000ff611a20 g     F .ro	0000000000000044 s32_destructive_reset
00000000ff611db0 g     F .ro	00000000000001b4 s32_configure_peripheral_pinctrl
00000000ff60ab10 g     F .ro	00000000000000b8 s32gen1_scmi_set_level
00000000ff60dcc0 g     F .ro	0000000000000004 psci_print_power_domain_map
00000000ff61c800 g       .ro	0000000000000000 __RO_END_UNALIGNED__
00000000ff600000 g       .ro	0000000000000000 RAM_REGION_START
00000000ff6105c0 g     F .ro	000000000000002c plat_get_target_pwr_state
00000000ff601c90 g     F .ro	00000000000000b8 console_putc
00000000ff609370 g     F .ro	0000000000000044 cc_compound_clk_get
00000000ff615cf8 g     F .ro	000000000000001c plat_secondary_cold_boot_setup
00000000ff600b00 g     F .ro	0000000000000034 gicr_set_icfgr
00000000ff601470 g     F .ro	0000000000000208 gicv3_distif_save
00000000ff6136d0 g     F .ro	0000000000000048 s32g_disable_pll
00000000ff6008b0 g     F .ro	0000000000000010 gicd_write_icfgr
00000000ff616d10  w    F .ro	0000000000000004 plat_handle_el3_ea
00000000ff615cd0 g     F .ro	0000000000000028 strrchr
00000000ff60d360 g     F .ro	0000000000000084 psci_is_last_on_cpu
00000000ff61e7c0 g     O .data	0000000000000030 cgm0_mux0_clk
00000000ff616d40 g     F .ro	000000000000001c plat_crash_console_init
00000000ff61c680 g     F .ro	0000000000000000 irq_aarch32
00000000ff6133a0 g     F .ro	0000000000000014 get_rgm_m7_bit
00000000ff6163f0 g     F .ro	0000000000000038 flush_dcache_range
00000000ff613290 g     F .ro	000000000000000c plat_scmi_protocol_list
00000000ff608db0 g     F .ro	0000000000000004 s32gen1_scmi_nclocks
00000000ff61e128 g     O .data	0000000000000030 serdes1_lane1_tx_clk
00000000ff606bf0 g     F .ro	0000000000000064 s32gen1_get_maxrate
00000000ff601e50 g     F .ro	000000000000000c timer_init
00000000ff6151c0 g     F .ro	00000000000000b4 fdt_stringlist_contains
00000000ff610910 g     F .ro	0000000000000040 bl31_early_platform_setup2
00000000ff612db0 g     F .ro	0000000000000040 plat_scmi_perf_get_limits
00000000ff61ba28 g       .ro	0000000000000000 __PMF_SVC_DESCS_END__
00000000ff621188 g       .data	0000000000000000 __RELA_END__
00000000ff61f870 g     O .data	0000000000000030 xbar_clk
00000000ff621188 g       .data	0000000000000000 __RELA_START__
00000000ff663000 g       .xlat_table	0000000000000000 RAM_REGION_END
00000000ff61a9b0 g     O .ro	00000000000000b0 s32_psci_pm_ops
00000000ff601330 g     F .ro	0000000000000140 gicv3_rdistif_init_restore
00000000ff600850 g     F .ro	0000000000000018 gicd_set_icpendr
00000000ff616300 g     F .ro	0000000000000054 console_linflex_core_init
00000000ff61e750 g     O .data	0000000000000020 armdfs
00000000ff60bb70 g     F .ro	000000000000002c scmi_msg_get_base_handler
00000000ff61c180 g     F .ro	0000000000000000 serror_sp_el0
00000000ff6019f0 g     F .ro	00000000000001a4 gicv3_set_interrupt_group
00000000ff612ed0 g     F .ro	0000000000000028 plat_scmi_rstd_get_name
00000000ff608220 g     F .ro	0000000000000334 plat_compound_clk_set_parents
00000000ff615650 g     F .ro	0000000000000564 vprintf
00000000ff612870 g     F .ro	0000000000000078 plat_scmi_clock_get_rate
00000000ff612d50 g     F .ro	0000000000000058 plat_scmi_perf_set_level
00000000ff616d7c g     F .ro	0000000000000014 s32_smp_fixup
00000000ff60f180 g     F .ro	000000000000000c is_dcache_enabled
00000000ff60a7b0 g     F .ro	0000000000000034 alloc_mem_pool_elem
00000000ff615d90 g     F .ro	0000000000000028 report_unhandled_exception
00000000ff60e840 g     F .ro	00000000000000f8 psci_cpu_on_finish
00000000ff612bf0 g     F .ro	000000000000005c plat_scmi_perf_get_sustained_freq
00000000ff607f00 g     F .ro	0000000000000034 s32g_get_plat_clock
00000000ff6092a0 g     F .ro	000000000000005c cc_set_mux_parent
00000000ff616d04  w    F .ro	0000000000000004 plat_reset_handler
00000000ff616cac g     F .ro	0000000000000058 enable_mmu_direct_el3
00000000ff6010a0 g     F .ro	0000000000000088 gicv3_rdistif_init
00000000ff608690 g     F .ro	0000000000000118 plat_compound_clk_set_rate
00000000ff61ba88 g       .ro	0000000000000000 __pubsub_cm_entering_normal_world_end
00000000ff6168d0 g     F .ro	0000000000000040 get_cpu_ops_ptr
00000000ff600000 g     F .ro	00000000000000e0 bl31_entrypoint
00000000ff600180 g     F .ro	000000000000002c cm_get_context_by_index
00000000ff6009c0 g     F .ro	0000000000000014 gicr_set_ipriorityr
00000000ff6009e0 g     F .ro	0000000000000024 gicr_set_igroupr
00000000ff60cec0 g     F .ro	0000000000000030 cm_init_my_context
00000000ff61c580 g     F .ro	0000000000000000 serror_aarch64
00000000ff608a00 g     F .ro	00000000000000bc s32gen1_get_early_clks_freqs
00000000ff6153c0 g     F .ro	0000000000000034 memchr
00000000ff600a10 g     F .ro	0000000000000024 gicr_clr_igroupr
00000000ff603810 g     F .ro	00000000000001cc s32gen1_enable_cgm_mux
00000000ff616bdc g     F .ro	0000000000000014 init_cpu_data_ptr
00000000ff609d70 g     F .ro	0000000000000098 add_clk_rate
00000000ff6149e0 g     F .ro	0000000000000064 fdt_size_cells
00000000ff60c340  w    F .ro	0000000000000008 plat_scmi_perf_is_power_mw
00000000ff60f1f0 g     F .ro	000000000000000c xlat_arch_current_el
00000000ff60cbe0 g     F .ro	000000000000002c scmi_msg_get_rstd_handler
00000000ff608dd0 g     F .ro	00000000000000ac s32gen1_scmi_clk_get_rates
00000000ff600cd0 g     F .ro	0000000000000110 gicv3_secure_spis_config_props
00000000ff615090 g     F .ro	00000000000000d0 fdt_supernode_atdepth_offset
0000000000000040 g       *ABS*	0000000000000000 __PERCPU_BAKERY_LOCK_SIZE__
00000000ff60c100 g     F .ro	000000000000002c scmi_msg_get_clock_handler
00000000ff600ac0 g     F .ro	000000000000001c gicr_set_icenabler
00000000ff6008a0 g     F .ro	0000000000000010 gicd_read_icfgr
00000000ff60f160 g     F .ro	0000000000000014 xlat_arch_get_pas
00000000ff600900 g     F .ro	0000000000000010 gicd_read_ipriorityr
00000000ff608d00 g     F .ro	00000000000000a8 s32gen1_scmi_enable
00000000ff60e4c0 g     F .ro	00000000000001f0 psci_do_cpu_off
00000000ff6468a4 g     O .bss	0000000000000004 psci_caps
00000000ff613270 g     F .ro	000000000000000c plat_scmi_vendor_name
00000000ff600310 g     F .ro	0000000000000008 handle_sysreg_trap
00000000ff6168b0 g     F .ro	0000000000000020 do_cpu_reg_dump
00000000ff60cc30 g     F .ro	0000000000000210 cm_setup_context
00000000ff600000 g       .ro	0000000000000000 __BL31_START__
00000000ff61c280 g     F .ro	0000000000000000 irq_sp_elx
00000000ff646ac0 g       .bss	0000000000000000 __PMF_PERCPU_TIMESTAMP_END__
00000000ff615bc0 g     F .ro	0000000000000064 strlcpy
00000000ff61c100 g     F .ro	0000000000000000 fiq_sp_el0
00000000ff615c60 g     F .ro	000000000000003c strncmp
00000000ff60c180 g     F .ro	000000000000002c scmi_write_response
00000000ff621185 g       .data	0000000000000000 __DATA_END__
00000000ff61f108 g     O .data	0000000000000020 per_div
00000000ff61623c g       .ro	0000000000000000 asm_print_hex_bits
00000000ff646ac0 g       .bss	0000000000000000 __BASE_XLAT_TABLE_START__
00000000ff6007f0 g     F .ro	0000000000000020 gicd_set_igrpmodr
00000000ff61ba28 g       .ro	0000000000000000 __CPU_OPS_START__
00000000ff612760 g     F .ro	0000000000000044 plat_scmi_clock_get_name
00000000ff608dc0 g     F .ro	0000000000000004 s32gen1_scmi_clk_get_name
00000000ff601de0 g     F .ro	000000000000006c udelay
00000000ff614830 g     F .ro	0000000000000040 fdt_check_prop_offset_
00000000ff600de0 g     F .ro	0000000000000074 gicv3_ppi_sgi_config_defaults
00000000ff616460 g     F .ro	0000000000000038 inv_dcache_range
00000000ff6132e0 g     F .ro	0000000000000030 mc_me_core2prtn_core_id
00000000ff611880 g     F .ro	0000000000000120 s32_turn_off_core
00000000ff6468c8 g     O .bss	0000000000000002 s32_core_state_lock
00000000ff608860 g     F .ro	0000000000000008 plat_get_nclocks
00000000ff60dff0 g     F .ro	0000000000000404 psci_smc_handler
00000000ff610950 g     F .ro	000000000000004c s32_gic_setup
00000000ff601e70 g     F .ro	0000000000000094 generic_delay_timer_init
00000000ff60ed10 g     F .ro	00000000000001f8 psci_cpu_suspend_start
00000000ff60d3f0 g     F .ro	0000000000000050 psci_init_req_local_pwr_states
00000000ff61ba88 g       .ro	0000000000000000 __pubsub_cm_entering_secure_world_end
00000000ff61e158 g     O .data	0000000000000030 xbar_2x_clk
00000000ff646ac0 g       .bss	0000000000000000 __BAKERY_LOCK_END__
00000000ff610ac0 g     F .ro	0000000000000018 plat_generic_timer_save
00000000ff60d510 g     F .ro	00000000000000a0 psci_set_target_local_pwr_states
00000000ff615400 g     F .ro	0000000000000038 memcmp
00000000ff616910 g     F .ro	0000000000000010 cpu_get_rev_var
00000000ff611570 g     F .ro	0000000000000040 is_a53_core_in_reset
00000000ff60e6b0 g     F .ro	0000000000000188 psci_cpu_on_start
00000000ff60d850 g     F .ro	000000000000003c psci_find_max_off_lvl
00000000ff60f7d0 g     F .ro	0000000000000108 xlat_desc
00000000ff600780 g     F .ro	0000000000000030 gicd_set_icfgr
00000000ff643158 g     O .bss	0000000000000030 psci_non_cpu_pd_nodes
00000000ff616270 g     F .ro	0000000000000008 elx_panic
00000000ff646e00 g       .bss	0000000000000000 __BSS_END__
00000000ff61ba80 g       .ro	0000000000000000 __CPU_OPS_END__
00000000ff612ae0 g     F .ro	0000000000000064 plat_scmi_clock_get_state
00000000ff613400 g     F .ro	0000000000000018 s32_get_sramc
00000000ff6126f0 g     F .ro	0000000000000028 update_a53_clk_state
00000000ff616c30 g     F .ro	000000000000003c psci_do_pwrdown_cache_maintenance
00000000ff6008e0 g     F .ro	0000000000000010 gicd_read_igrpmodr
00000000ff613c40 g     F .ro	00000000000002d4 pmic_prepare_for_suspend
00000000ff61ba80 g       .ro	0000000000000000 __pubsub_cm_entering_secure_world_start
00000000ff600940 g     F .ro	0000000000000010 gicd_read_isenabler
00000000ff612ba0 g     F .ro	0000000000000008 plat_scmi_perf_domain_count
00000000ff61d498 g     O .data	0000000000000030 gmac_ts_clk
00000000ff610e30 g     F .ro	0000000000000044 dt_open_and_check
00000000ff6007b0 g     F .ro	0000000000000020 gicd_set_igroupr
00000000ff600210 g     F .ro	0000000000000074 bl31_prepare_next_image_entry
00000000ff60ce70 g     F .ro	0000000000000020 manage_extensions_nonsecure_per_world
00000000ff609300 g     F .ro	0000000000000064 cc_scmi_id2clk
00000000ff6468a0 g     O .bss	0000000000000004 psci_plat_core_count
00000000ff60df80 g     F .ro	000000000000006c psci_features
00000000ff609e10 g     F .ro	0000000000000074 s32gen1_set_rate
00000000ff61ba80 g       .ro	0000000000000000 __GOT_END__
00000000ff6154b0 g     F .ro	0000000000000094 memset
00000000ff61ba28 g       .ro	0000000000000000 __PARSER_LIB_DESCS_END__
00000000ff6468c0 g       .bss	0000000000000000 __BAKERY_LOCK_START__
00000000ff60d440 g     F .ro	00000000000000c4 psci_get_target_local_pwr_states
00000000ff61ba88 g       .ro	0000000000000000 __pubsub_cm_exited_normal_world_end
00000000ff611c40 g     F .ro	0000000000000008 ncore_caiu_offline
00000000ff6139d0 g     F .ro	0000000000000190 s32_plat_suspend
00000000ff643188 g     O .bss	0000000000000008 psci_plat_pm_ops
00000000ff610510  w    F .ro	0000000000000008 plat_get_soc_revision
00000000ff60c8e0 g     F .ro	000000000000002c scmi_msg_get_perf_handler
00000000ff612860 g     F .ro	0000000000000008 plat_scmi_clock_rates_by_step
00000000ff6001f0 g     F .ro	0000000000000014 bl31_setup
00000000ff60c140 g     F .ro	0000000000000038 scmi_status_response
00000000ff611170 g     F .ro	000000000000005c mc_me_part_pupd_update_and_wait
00000000ff6088a0 g     F .ro	00000000000000e0 plat_scmi_clk_get_rates
00000000ff61ba80 g       .ro	0000000000000000 __pubsub_psci_suspend_pwrdown_start_start
00000000ff6167f8 g     F .ro	0000000000000018 cortex_a53_core_pwr_dwn
00000000ff6114e0 g     F .ro	000000000000008c is_core_in_reset
00000000ff61eb10 g     O .data	0000000000000030 cgm0_mux7_clk
00000000ff61ba80 g       .ro	0000000000000000 __GOT_START__
00000000ff614fc0 g     F .ro	00000000000000d0 fdt_get_phandle
00000000ff600a70 g     F .ro	0000000000000024 gicr_clr_igrpmodr
00000000ff6115b0 g     F .ro	0000000000000094 s32_set_core_entrypoint
00000000ff6001e0 g     F .ro	000000000000000c get_arm_std_svc_args
00000000ff61ba88 g       .ro	0000000000000000 __pubsub_cm_entering_normal_world_start
00000000ff6003a0 g     F .ro	000000000000011c fdt_get_reg_props_by_index
0000000000000000 g       *ABS*	0000000000000000 __PERCPU_TIMESTAMP_SIZE__
00000000ff60d140 g     F .ro	0000000000000148 bakery_lock_get
00000000ff61fa28 g     O .data	00000000000005e0 cc_scmi_clk
00000000ff61f920 g     O .data	0000000000000030 xbar_div3_clk
00000000ff60a7f0 g     F .ro	0000000000000090 s32gen1_ocotp_init
00000000ff60e400 g     F .ro	0000000000000064 psci_mem_protect
00000000ff61ba28 g       .ro	0000000000000000 __FCONF_POPULATOR_END__
00000000ff612f00 g     F .ro	0000000000000008 plat_scmi_rstd_autonomous
00000000ff611c70 g     F .ro	0000000000000098 get_siul2_midr2_freq
00000000ff60d290 g     F .ro	0000000000000078 bakery_lock_release
00000000ff6119a0 g     F .ro	0000000000000078 s32_disable_cofb_clk
00000000ff61637c g     F .ro	0000000000000074 console_linflex_core_putc
00000000ff600350 g     F .ro	0000000000000040 get_interrupt_type_handler
00000000ff612fa0 g     F .ro	00000000000001fc s32_sram_clear
00000000ff612410 g     F .ro	000000000000000c plat_get_power_domain_tree_desc
00000000ff60b4c0 g     F .ro	0000000000000024 s32gen1_wkpu_reset
00000000ff600910 g     F .ro	0000000000000010 gicd_write_ipriorityr
00000000ff6020b0 g     F .ro	00000000000000a0 get_clk
00000000ff601f20 g     F .ro	0000000000000040 set_clk_driver_name
00000000ff612680 g     F .ro	0000000000000030 plat_scmi_clock_agent_reset
00000000ff606c60 g     F .ro	0000000000000064 s32gen1_get_minrate
00000000ff610360 g     F .ro	0000000000000198 xlat_change_mem_attributes_ctx
00000000ff60ce40 g     F .ro	0000000000000024 cm_manage_extensions_el3
00000000ff646e00 g       .bss	0000000000000000 __BASE_XLAT_TABLE_END__
00000000ff6138d0 g     F .ro	0000000000000064 wkpu_config_pinctrl
00000000ff6143a0 g     F .ro	0000000000000208 fdt_check_header
00000000ff60a700 g     F .ro	00000000000000a4 s32_i2c_get_setup_from_fdt
00000000ff600930 g     F .ro	0000000000000010 gicd_write_isactiver
00000000ff6165a4 g     F .ro	0000000000000010 dcsw_op_level2
00000000ff616890 g     F .ro	0000000000000020 init_cpu_ops
00000000ff601d80 g     F .ro	0000000000000054 console_flush
00000000ff608560 g     F .ro	000000000000012c plat_compound_clk_enable
00000000ff61c300 g     F .ro	0000000000000000 fiq_sp_elx
00000000ff60f370 g     F .ro	000000000000001c xlat_change_mem_attributes
00000000ff60f1e0 g     F .ro	000000000000000c xlat_arch_tlbi_va_sync
00000000ff61d000 g       .ro	0000000000000000 __RO_END__
00000000ff614e00 g     F .ro	00000000000000e8 fdt_get_name
00000000ff61c400 g     F .ro	0000000000000000 sync_exception_aarch64
00000000ff61c500 g     F .ro	0000000000000000 fiq_aarch64
00000000ff6008c0 g     F .ro	0000000000000010 gicd_read_igroupr
00000000ff60cc10 g     F .ro	0000000000000004 print_errata_status
00000000ff616c28 g     F .ro	0000000000000008 spin_unlock
00000000ff616a28 g     F .ro	0000000000000068 prepare_el3_entry
00000000ff612f10 g     F .ro	000000000000007c plat_scmi_rstd_set_state
00000000ff641200 g       .bss	0000000000000000 __BSS_START__
00000000ff610cc0 g     F .ro	0000000000000014 is_lockstep_enabled
00000000ff601c10 g     F .ro	0000000000000080 gicv3_clear_interrupt_pending
00000000ff600000 g       .ro	0000000000000000 __RO_START__
00000000ff60fbf0 g     F .ro	0000000000000178 mmap_add_region_ctx
00000000ff61ba28 g       .ro	0000000000000000 __PMF_SVC_DESCS_START__
00000000ff616d5c g     F .ro	0000000000000010 plat_crash_console_putc
00000000ff641200 g     O .bss	0000000000000400 percpu_data
00000000ff611c30 g     F .ro	0000000000000008 ncore_caiu_online
00000000ff60dc50 g     F .ro	000000000000003c psci_register_spd_pm_hook
00000000ff602410 g     F .ro	000000000000016c s32_a53_clock_setup
00000000ff6132b0 g     F .ro	0000000000000008 plat_scmi_protocol_count
00000000ff61e0e8 g     O .data	0000000000000030 serdes1_lane1_cdr_clk
00000000ff616934 g     F .ro	0000000000000014 cpu_rev_var_hs
00000000ff614870 g     F .ro	00000000000000f8 fdt_next_node
00000000ff60c130  w    F .ro	0000000000000008 scmi_msg_get_pd_handler
00000000ff600750 g     F .ro	0000000000000004 gicv3_rdistif_on
00000000ff60b2d0 g     F .ro	00000000000001b8 s32gen1_reset_periph
00000000ff60af10 g     F .ro	00000000000000ac vr5510_get_inst
00000000ff610e80 g     F .ro	0000000000000048 fdt_get_address
00000000ff60b490 g     F .ro	0000000000000024 s32gen1_reset_partition
00000000ff6096d0 g     F .ro	00000000000000f8 cc_scmi_clk_get_rates
00000000ff601200 g     F .ro	0000000000000024 gicv3_get_pending_interrupt_id
00000000ff616c08 g     F .ro	0000000000000020 spin_lock
00000000ff621180 g     O .data	0000000000000004 bl31sram_ro_start
00000000ff601230 g     F .ro	000000000000000c gicv3_get_pending_interrupt_type
00000000ff600aa0 g     F .ro	000000000000001c gicr_set_isenabler
00000000ff6430b8 g     O .bss	0000000000000020 per_world_context
00000000ff6109a0 g     F .ro	00000000000000c4 plat_gic_save
00000000ff60d340 g     F .ro	0000000000000014 psci_query_sys_suspend_pwrstate
00000000ff6094b0 g     F .ro	000000000000012c cc_compound_clk_enable
00000000ff604dc0 g     F .ro	0000000000000148 s32gen1_enable
00000000ff600620 g     F .ro	00000000000000a0 tf_log
00000000ff600a40 g     F .ro	0000000000000024 gicr_set_igrpmodr
00000000ff607fb0 g     F .ro	0000000000000048 get_plat_cc_clock
00000000ff61ba80 g       .ro	0000000000000000 __pubsub_psci_cpu_on_finish_start
00000000ff612f90 g     F .ro	000000000000000c scp_get_rx_plat_irq
00000000ff608980 g     F .ro	0000000000000074 get_clock
00000000ff602030 g     F .ro	000000000000007c dt_clk_init
00000000ff61ba28 g       .ro	0000000000000000 __FCONF_POPULATOR_START__
00000000001fffff g       *ABS*	0000000000000000 RAM_REGION_LENGTH
00000000ff611c50 g     F .ro	000000000000001c ncore_is_caiu_online
00000000ff616920 g     F .ro	0000000000000014 cpu_rev_var_ls
00000000ff610690 g     F .ro	0000000000000060 get_core_state
00000000ff600320 g     F .ro	0000000000000028 get_scr_el3_from_routing_model
00000000ff610860 g     F .ro	0000000000000084 is_cluster1_off
00000000ff663000 g       .xlat_table	0000000000000000 __RW_END__
00000000ff601940 g     F .ro	00000000000000b0 gicv3_disable_interrupt
00000000ff60c350  w    F .ro	0000000000000008 plat_scmi_perf_statistics
00000000ff646628 g     O .bss	0000000000000008 s32_warmboot_entry
00000000ff610ed0 g     F .ro	0000000000000068 fdt_get_status
00000000ff60d040 g     F .ro	0000000000000014 mpam_enable
00000000ff613430 g     F .ro	000000000000003c bl31_platform_setup
00000000ff615e88 g     F .ro	0000000000000194 report_el3_panic
00000000ff6211c0 g       .stacks	0000000000000000 __STACKS_START__
00000000ff601680 g     F .ro	0000000000000238 gicv3_distif_init_restore
00000000ff6018c0 g     F .ro	0000000000000074 gicv3_enable_interrupt
00000000ff60d6f0 g     F .ro	0000000000000158 psci_do_state_coordination
00000000ff60f050 g     F .ro	000000000000009c psci_system_reset2
00000000ff60d0e0 g     F .ro	000000000000001c spe_init_el3
00000000ff60f390 g     F .ro	0000000000000048 enable_mmu_el3
00000000ff6081d0 g     F .ro	0000000000000050 plat_compound_clk_get
00000000ff61f8f0 g     O .data	0000000000000030 xbar_div2_clk
00000000ff614690 g     F .ro	0000000000000158 fdt_next_tag
00000000ff61c780 g     F .ro	0000000000000000 serror_aarch32
00000000ff60d060 g     F .ro	0000000000000004 pmuv3_enable
00000000ff646ac0 g       .bss	0000000000000000 __PMF_TIMESTAMP_END__
00000000ff601ba0 g     F .ro	0000000000000070 gicv3_raise_sgi
00000000ff610050 g     F .ro	0000000000000134 init_xlat_tables_ctx
00000000ff61e520 g     O .data	0000000000000030 accel_pll_phi1_clk
00000000ff6006c0 g     F .ro	000000000000002c arm_gicv3_distif_pre_save
00000000ff61ba80 g       .ro	0000000000000000 __pubsub_psci_suspend_pwrdown_finish_start
00000000ff600c20 g     F .ro	00000000000000a4 gicv3_spis_config_defaults
00000000ff600810 g     F .ro	0000000000000020 gicd_clr_igrpmodr
00000000ff663000 g       .xlat_table	0000000000000000 __XLAT_TABLE_END__
00000000ff616dd4 g     F .ro	0000000000000014 plat_my_core_pos
00000000ff606b80 g     F .ro	0000000000000068 s32gen1_get_rate
00000000ff600e60 g     F .ro	0000000000000108 gicv3_secure_ppi_sgi_config_props
00000000ff6004c0 g     F .ro	0000000000000158 runtime_svc_init
00000000ff600960 g     F .ro	0000000000000010 gicd_read_ispendr
00000000ff60c1b0 g     F .ro	00000000000000e0 scmi_process_message
00000000ff615c30 g     F .ro	0000000000000028 strlen
00000000ff608e80 g     F .ro	0000000000000098 s32gen1_scmi_clk_get_rate
00000000ff60a4f0 g     F .ro	00000000000000ec s32_i2c_write
00000000ff61c480 g     F .ro	0000000000000000 irq_aarch64
00000000ff61e4c8 g     O .data	0000000000000030 accel_pll_phi0_clk
00000000ff610500  w    F .ro	0000000000000008 plat_get_soc_version
00000000ff608b70 g     F .ro	0000000000000098 s32gen1_scmi_get_rate
00000000ff60f1b0 g     F .ro	0000000000000030 xlat_arch_tlbi_va
00000000ff613360 g     F .ro	0000000000000018 mc_me_get_cluster_ptrn
00000000ff615de0 g     F .ro	00000000000000a8 report_elx_panic
00000000ff600730 g     F .ro	0000000000000004 gicv3_distif_pre_save
00000000ff613280 g     F .ro	000000000000000c plat_scmi_sub_vendor_name
00000000ff610570  w    F .ro	000000000000000c plat_ic_raise_el3_sgi
00000000ff60e470 g     F .ro	000000000000004c psci_mem_chk_range
00000000ff611d10 g     F .ro	000000000000009c s32_get_pin_addr
00000000ff616278 g     F .ro	0000000000000034 el3_panic
00000000ff604a10 g     F .ro	0000000000000034 pllclk2clk
00000000ff6007d0 g     F .ro	0000000000000020 gicd_clr_igroupr
00000000ff613670 g     F .ro	0000000000000054 dt_init_wkpu
00000000ff6428f0 g     O .bss	0000000000000008 gicv3_driver_data
00000000ff610340 g     F .ro	0000000000000004 xlat_mmap_print
00000000ff610f40 g     F .ro	0000000000000184 dt_enable_clocks
00000000ff600ae0 g     F .ro	000000000000001c gicr_set_icpendr
00000000ff613470 g     F .ro	000000000000005c s32g_reinit_i2c
00000000ff614290 g     F .ro	000000000000010c fdt_ro_probe_
00000000ff60d8d0 g     F .ro	0000000000000074 psci_acquire_pwr_domain_locks
00000000ff6095e0 g     F .ro	00000000000000b0 cc_compound_clk_get_rate
00000000ff615280 g     F .ro	0000000000000080 fdt_node_check_compatible
00000000ff61ba80 g       .ro	0000000000000000 __pubsub_psci_cpu_on_finish_end
00000000ff616988 g     F .ro	00000000000000a0 el1_sysregs_context_restore
00000000ff6126b0 g     F .ro	0000000000000040 plat_scmi_clocks_reset_agents
00000000ff6428f8 g     O .bss	0000000000000008 console_list
00000000ff612c50 g     F .ro	000000000000006c plat_scmi_perf_get_sustained_perf_lvl
00000000ff60d600 g     F .ro	00000000000000e4 psci_set_pwr_domains_to_run
00000000ff601130 g     F .ro	0000000000000090 gicv3_cpuif_enable
00000000ff613420 g     F .ro	0000000000000008 pmic_stby_pwr_rails
00000000ff6006f0 g     F .ro	0000000000000034 arm_gicv3_distif_post_restore
00000000ff6008d0 g     F .ro	0000000000000010 gicd_write_igroupr
00000000ff615db8 g     F .ro	0000000000000028 report_unhandled_interrupt
00000000ff61c700 g     F .ro	0000000000000000 fiq_aarch32
00000000ff608ac0 g     F .ro	00000000000000a8 s32gen1_scmi_request
00000000ff6106f0 g     F .ro	0000000000000058 is_core_enabled
00000000ff6468c0 g       .bss	0000000000000000 __PERCPU_BAKERY_LOCK_START__
00000000ff616d14  w    F .ro	000000000000001c plat_get_my_stack
00000000ff60f2a0 g     F .ro	000000000000003c mmap_add_region
00000000ff6132c0 g     F .ro	0000000000000018 s32_get_a53_haddr_mappings
00000000ff600920 g     F .ro	0000000000000010 gicd_read_isactiver
00000000ff60b580 g     F .ro	0000000000000260 s32gen1_wkpu_init
00000000ff612ec0 g     F .ro	0000000000000008 plat_scmi_rstd_count
00000000ff601240 g     F .ro	00000000000000e8 gicv3_rdistif_save
00000000ff61ba28 g       .ro	0000000000000000 __PARSER_LIB_DESCS_START__
00000000ff6431a0 g     O .bss	0000000000000008 psci_spd_pm
00000000ff612d00 g     F .ro	0000000000000050 plat_scmi_perf_get_level



Disassembly of section .ro:

00000000ff600000 <bl31_entrypoint>:
    ff600000:	aa0003f4 	mov	x20, x0
    ff600004:	aa0103f5 	mov	x21, x1
    ff600008:	aa0203f6 	mov	x22, x2
    ff60000c:	aa0303f7 	mov	x23, x3
    ff600010:	100dff80 	adr	x0, ff61c000 <sync_exception_sp_el0>
    ff600014:	d51ec000 	msr	vbar_el3, x0
    ff600018:	d5033fdf 	isb
    ff60001c:	94005a0c 	bl	ff61684c <reset_handler>
    ff600020:	d2820141 	mov	x1, #0x100a                	// #4106
    ff600024:	d53e1000 	mrs	x0, sctlr_el3
    ff600028:	aa010000 	orr	x0, x0, x1
    ff60002c:	d51e1000 	msr	sctlr_el3, x0
    ff600030:	d5033fdf 	isb
    ff600034:	94005aea 	bl	ff616bdc <init_cpu_data_ptr>
    ff600038:	d2804700 	mov	x0, #0x238                 	// #568
    ff60003c:	d51e1100 	msr	scr_el3, x0
    ff600040:	d2900000 	mov	x0, #0x8000                	// #32768
    ff600044:	f2a20020 	movk	x0, #0x1001, lsl #16
    ff600048:	d51e1320 	msr	mdcr_el3, x0
    ff60004c:	d50344ff 	msr	daifclr, #0x4
    ff600050:	d2808000 	mov	x0, #0x400                 	// #1024
    ff600054:	f2b80200 	movk	x0, #0xc010, lsl #16
    ff600058:	d51e1140 	msr	cptr_el3, x0
    ff60005c:	b00000e0 	adrp	x0, ff61d000 <__RO_END__>
    ff600060:	91000000 	add	x0, x0, #0x0
    ff600064:	f0000301 	adrp	x1, ff663000 <RAM_REGION_END>
    ff600068:	91000021 	add	x1, x1, #0x0
    ff60006c:	cb000021 	sub	x1, x1, x0
    ff600070:	940058fc 	bl	ff616460 <inv_dcache_range>
    ff600074:	b0000200 	adrp	x0, ff641000 <__STACKS_START__+0x1fe40>
    ff600078:	91080000 	add	x0, x0, #0x200
    ff60007c:	d0000221 	adrp	x1, ff646000 <dist_ctx+0x24d8>
    ff600080:	91380021 	add	x1, x1, #0xe00
    ff600084:	cb000021 	sub	x1, x1, x0
    ff600088:	9400594b 	bl	ff6165b4 <zeromem>
    ff60008c:	d50040bf 	msr	spsel, #0x0
    ff600090:	94005b28 	bl	ff616d30 <plat_set_my_stack>
    ff600094:	aa1403e0 	mov	x0, x20
    ff600098:	aa1503e1 	mov	x1, x21
    ff60009c:	aa1603e2 	mov	x2, x22
    ff6000a0:	aa1703e3 	mov	x3, x23
    ff6000a4:	94000053 	bl	ff6001f0 <bl31_setup>
    ff6000a8:	9400007a 	bl	ff600290 <bl31_main>
    ff6000ac:	b00000e0 	adrp	x0, ff61d000 <__RO_END__>
    ff6000b0:	91000000 	add	x0, x0, #0x0
    ff6000b4:	b0000101 	adrp	x1, ff621000 <bl31sram+0xf10>
    ff6000b8:	91061421 	add	x1, x1, #0x185
    ff6000bc:	cb000021 	sub	x1, x1, x0
    ff6000c0:	940058da 	bl	ff616428 <clean_dcache_range>
    ff6000c4:	b0000200 	adrp	x0, ff641000 <__STACKS_START__+0x1fe40>
    ff6000c8:	91080000 	add	x0, x0, #0x200
    ff6000cc:	d0000221 	adrp	x1, ff646000 <dist_ctx+0x24d8>
    ff6000d0:	91380021 	add	x1, x1, #0xe00
    ff6000d4:	cb000021 	sub	x1, x1, x0
    ff6000d8:	940058d4 	bl	ff616428 <clean_dcache_range>
    ff6000dc:	14005a8e 	b	ff616b14 <el3_exit>

00000000ff6000e0 <bl31_warm_entrypoint>:
    ff6000e0:	d2810600 	mov	x0, #0x830                 	// #2096
    ff6000e4:	f2a618a0 	movk	x0, #0x30c5, lsl #16
    ff6000e8:	d51e1000 	msr	sctlr_el3, x0
    ff6000ec:	d5033fdf 	isb
    ff6000f0:	100df880 	adr	x0, ff61c000 <sync_exception_sp_el0>
    ff6000f4:	d51ec000 	msr	vbar_el3, x0
    ff6000f8:	d5033fdf 	isb
    ff6000fc:	940059d4 	bl	ff61684c <reset_handler>
    ff600100:	d2820141 	mov	x1, #0x100a                	// #4106
    ff600104:	d53e1000 	mrs	x0, sctlr_el3
    ff600108:	aa010000 	orr	x0, x0, x1
    ff60010c:	d51e1000 	msr	sctlr_el3, x0
    ff600110:	d5033fdf 	isb
    ff600114:	94005ab2 	bl	ff616bdc <init_cpu_data_ptr>
    ff600118:	d2804700 	mov	x0, #0x238                 	// #568
    ff60011c:	d51e1100 	msr	scr_el3, x0
    ff600120:	d2900000 	mov	x0, #0x8000                	// #32768
    ff600124:	f2a20020 	movk	x0, #0x1001, lsl #16
    ff600128:	d51e1320 	msr	mdcr_el3, x0
    ff60012c:	d50344ff 	msr	daifclr, #0x4
    ff600130:	d2808000 	mov	x0, #0x400                 	// #1024
    ff600134:	f2b80200 	movk	x0, #0xc010, lsl #16
    ff600138:	d51e1140 	msr	cptr_el3, x0
    ff60013c:	d50040bf 	msr	spsel, #0x0
    ff600140:	94005afc 	bl	ff616d30 <plat_set_my_stack>
    ff600144:	d2800020 	mov	x0, #0x1                   	// #1
    ff600148:	94005af1 	bl	ff616d0c <bl31_plat_enable_mmu>
    ff60014c:	94003661 	bl	ff60dad0 <psci_warmboot_entrypoint>
    ff600150:	14005a71 	b	ff616b14 <el3_exit>
	...

00000000ff600160 <cm_get_context>:
    ff600160:	d53ed041 	mrs	x1, tpidr_el3
    ff600164:	7100001f 	cmp	w0, #0x0
    ff600168:	9a9f07e0 	cset	x0, ne  // ne = any
    ff60016c:	f8607820 	ldr	x0, [x1, x0, lsl #3]
    ff600170:	d65f03c0 	ret
	...

00000000ff600180 <cm_get_context_by_index>:
    ff600180:	a9be7bfd 	stp	x29, x30, [sp, #-32]!
    ff600184:	910003fd 	mov	x29, sp
    ff600188:	f9000bf3 	str	x19, [sp, #16]
    ff60018c:	2a0103f3 	mov	w19, w1
    ff600190:	94005a98 	bl	ff616bf0 <_cpu_data_by_index>
    ff600194:	7100027f 	cmp	w19, #0x0
    ff600198:	9a9f07e1 	cset	x1, ne  // ne = any
    ff60019c:	f9400bf3 	ldr	x19, [sp, #16]
    ff6001a0:	a8c27bfd 	ldp	x29, x30, [sp], #32
    ff6001a4:	f8617800 	ldr	x0, [x0, x1, lsl #3]
    ff6001a8:	d65f03c0 	ret
    ff6001ac:	00000000 	udf	#0

00000000ff6001b0 <cm_set_context_by_index>:
    ff6001b0:	a9be7bfd 	stp	x29, x30, [sp, #-32]!
    ff6001b4:	910003fd 	mov	x29, sp
    ff6001b8:	a90153f3 	stp	x19, x20, [sp, #16]
    ff6001bc:	aa0103f3 	mov	x19, x1
    ff6001c0:	2a0203f4 	mov	w20, w2
    ff6001c4:	94005a8b 	bl	ff616bf0 <_cpu_data_by_index>
    ff6001c8:	7100029f 	cmp	w20, #0x0
    ff6001cc:	9a9f07e1 	cset	x1, ne  // ne = any
    ff6001d0:	f8217813 	str	x19, [x0, x1, lsl #3]
    ff6001d4:	a94153f3 	ldp	x19, x20, [sp, #16]
    ff6001d8:	a8c27bfd 	ldp	x29, x30, [sp], #32
    ff6001dc:	d65f03c0 	ret

00000000ff6001e0 <get_arm_std_svc_args>:
    ff6001e0:	d00000a0 	adrp	x0, ff616000 <print_el3_sys_regs+0xd8>
    ff6001e4:	913f6000 	add	x0, x0, #0xfd8
    ff6001e8:	d65f03c0 	ret
    ff6001ec:	00000000 	udf	#0

00000000ff6001f0 <bl31_setup>:
    ff6001f0:	a9bf7bfd 	stp	x29, x30, [sp, #-16]!
    ff6001f4:	910003fd 	mov	x29, sp
    ff6001f8:	940041c6 	bl	ff610910 <bl31_early_platform_setup2>
    ff6001fc:	a8c17bfd 	ldp	x29, x30, [sp], #16
    ff600200:	14004240 	b	ff610b00 <bl31_plat_arch_setup>
	...

00000000ff600210 <bl31_prepare_next_image_entry>:
    ff600210:	a9be7bfd 	stp	x29, x30, [sp, #-32]!
    ff600214:	d5380400 	mrs	x0, id_aa64pfr0_el1
    ff600218:	910003fd 	mov	x29, sp
    ff60021c:	d3441c00 	ubfx	x0, x0, #4, #4
    ff600220:	a90153f3 	stp	x19, x20, [sp, #16]
    ff600224:	f100041f 	cmp	x0, #0x1
    ff600228:	54000240 	b.eq	ff600270 <bl31_prepare_next_image_entry+0x60>  // b.none
    ff60022c:	b0000100 	adrp	x0, ff621000 <bl31sram+0xf10>
    ff600230:	b9417014 	ldr	w20, [x0, #368]
    ff600234:	2a1403e0 	mov	w0, w20
    ff600238:	940041ae 	bl	ff6108f0 <bl31_plat_get_next_image_ep_info>
    ff60023c:	aa0003f3 	mov	x19, x0
    ff600240:	94000054 	bl	ff600390 <print_entry_point_info>
    ff600244:	aa1303e0 	mov	x0, x19
    ff600248:	9400331e 	bl	ff60cec0 <cm_init_my_context>
    ff60024c:	7100069f 	cmp	w20, #0x1
    ff600250:	540000a0 	b.eq	ff600264 <bl31_prepare_next_image_entry+0x54>  // b.none
    ff600254:	2a1403e0 	mov	w0, w20
    ff600258:	a94153f3 	ldp	x19, x20, [sp, #16]
    ff60025c:	a8c27bfd 	ldp	x29, x30, [sp], #32
    ff600260:	14003358 	b	ff60cfc0 <cm_prepare_el3_exit>
    ff600264:	a94153f3 	ldp	x19, x20, [sp, #16]
    ff600268:	a8c27bfd 	ldp	x29, x30, [sp], #32
    ff60026c:	14003371 	b	ff60d030 <cm_prepare_el3_exit_ns>
    ff600270:	d00000a0 	adrp	x0, ff616000 <print_el3_sys_regs+0xd8>
    ff600274:	913de000 	add	x0, x0, #0xf78
    ff600278:	940000ea 	bl	ff600620 <tf_log>
    ff60027c:	940006c1 	bl	ff601d80 <console_flush>
    ff600280:	940057fe 	bl	ff616278 <el3_panic>
	...

00000000ff600290 <bl31_main>:
    ff600290:	a9be7bfd 	stp	x29, x30, [sp, #-32]!
    ff600294:	910003fd 	mov	x29, sp
    ff600298:	a90153f3 	stp	x19, x20, [sp, #16]
    ff60029c:	940032e9 	bl	ff60ce40 <cm_manage_extensions_el3>
    ff6002a0:	d00000b3 	adrp	x19, ff616000 <print_el3_sys_regs+0xd8>
    ff6002a4:	940032f3 	bl	ff60ce70 <manage_extensions_nonsecure_per_world>
    ff6002a8:	913f2273 	add	x19, x19, #0xfc8
    ff6002ac:	aa1303e0 	mov	x0, x19
    ff6002b0:	d00000a1 	adrp	x1, ff616000 <print_el3_sys_regs+0xd8>
    ff6002b4:	913d4021 	add	x1, x1, #0xf50
    ff6002b8:	940000da 	bl	ff600620 <tf_log>
    ff6002bc:	aa1303e0 	mov	x0, x19
    ff6002c0:	d00000a1 	adrp	x1, ff616000 <print_el3_sys_regs+0xd8>
    ff6002c4:	913cc021 	add	x1, x1, #0xf30
    ff6002c8:	d0000214 	adrp	x20, ff642000 <psci_ns_context+0xa00>
    ff6002cc:	940000d5 	bl	ff600620 <tf_log>
    ff6002d0:	94004c58 	bl	ff613430 <bl31_platform_setup>
    ff6002d4:	94003253 	bl	ff60cc20 <cm_init>
    ff6002d8:	9400007a 	bl	ff6004c0 <runtime_svc_init>
    ff6002dc:	f9440280 	ldr	x0, [x20, #2048]
    ff6002e0:	b4000080 	cbz	x0, ff6002f0 <bl31_main+0x60>
    ff6002e4:	940006a7 	bl	ff601d80 <console_flush>
    ff6002e8:	f9440280 	ldr	x0, [x20, #2048]
    ff6002ec:	d63f0000 	blr	x0
    ff6002f0:	97ffffc8 	bl	ff600210 <bl31_prepare_next_image_entry>
    ff6002f4:	940006a3 	bl	ff601d80 <console_flush>
    ff6002f8:	a94153f3 	ldp	x19, x20, [sp, #16]
    ff6002fc:	a8c27bfd 	ldp	x29, x30, [sp], #32
    ff600300:	14004268 	b	ff610ca0 <bl31_plat_runtime_setup>
	...

00000000ff600310 <handle_sysreg_trap>:
    ff600310:	12800000 	mov	w0, #0xffffffff            	// #-1
    ff600314:	d65f03c0 	ret
	...

00000000ff600320 <get_scr_el3_from_routing_model>:
    ff600320:	d0000201 	adrp	x1, ff642000 <psci_ns_context+0xa00>
    ff600324:	91202021 	add	x1, x1, #0x808
    ff600328:	8b204c22 	add	x2, x1, w0, uxtw #3
    ff60032c:	aa0203e3 	mov	x3, x2
    ff600330:	f9402441 	ldr	x1, [x2, #72]
    ff600334:	f9400463 	ldr	x3, [x3, #8]
    ff600338:	f9401442 	ldr	x2, [x2, #40]
    ff60033c:	aa030020 	orr	x0, x1, x3
    ff600340:	aa020000 	orr	x0, x0, x2
    ff600344:	d65f03c0 	ret
	...

00000000ff600350 <get_interrupt_type_handler>:
    ff600350:	a9be7bfd 	stp	x29, x30, [sp, #-32]!
    ff600354:	910003fd 	mov	x29, sp
    ff600358:	f9000bf3 	str	x19, [sp, #16]
    ff60035c:	2a0003f3 	mov	w19, w0
    ff600360:	94004080 	bl	ff610560 <plat_ic_has_interrupt_type>
    ff600364:	72001c1f 	tst	w0, #0xff
    ff600368:	54000100 	b.eq	ff600388 <get_interrupt_type_handler+0x38>  // b.none
    ff60036c:	d37b7e60 	ubfiz	x0, x19, #5, #32
    ff600370:	d0000201 	adrp	x1, ff642000 <psci_ns_context+0xa00>
    ff600374:	91202021 	add	x1, x1, #0x808
    ff600378:	f8606820 	ldr	x0, [x1, x0]
    ff60037c:	f9400bf3 	ldr	x19, [sp, #16]
    ff600380:	a8c27bfd 	ldp	x29, x30, [sp], #32
    ff600384:	d65f03c0 	ret
    ff600388:	d2800000 	mov	x0, #0x0                   	// #0
    ff60038c:	17fffffc 	b	ff60037c <get_interrupt_type_handler+0x2c>

00000000ff600390 <print_entry_point_info>:
    ff600390:	d65f03c0 	ret
	...

00000000ff6003a0 <fdt_get_reg_props_by_index>:
    ff6003a0:	a9ba7bfd 	stp	x29, x30, [sp, #-96]!
    ff6003a4:	910003fd 	mov	x29, sp
    ff6003a8:	a90153f3 	stp	x19, x20, [sp, #16]
    ff6003ac:	aa0003f4 	mov	x20, x0
    ff6003b0:	a9025bf5 	stp	x21, x22, [sp, #32]
    ff6003b4:	aa0303f6 	mov	x22, x3
    ff6003b8:	aa0403f5 	mov	x21, x4
    ff6003bc:	a90363f7 	stp	x23, x24, [sp, #48]
    ff6003c0:	2a0103f8 	mov	w24, w1
    ff6003c4:	f90023f9 	str	x25, [sp, #64]
    ff6003c8:	2a0203f9 	mov	w25, w2
    ff6003cc:	94005365 	bl	ff615160 <fdt_parent_offset>
    ff6003d0:	37f806a0 	tbnz	w0, #31, ff6004a4 <fdt_get_reg_props_by_index+0x104>
    ff6003d4:	2a0003f3 	mov	w19, w0
    ff6003d8:	2a0003e1 	mov	w1, w0
    ff6003dc:	aa1403e0 	mov	x0, x20
    ff6003e0:	94005164 	bl	ff614970 <fdt_address_cells>
    ff6003e4:	2a1303e1 	mov	w1, w19
    ff6003e8:	2a0003f7 	mov	w23, w0
    ff6003ec:	aa1403e0 	mov	x0, x20
    ff6003f0:	9400517c 	bl	ff6149e0 <fdt_size_cells>
    ff6003f4:	2a1803e1 	mov	w1, w24
    ff6003f8:	2a0003f8 	mov	w24, w0
    ff6003fc:	0b1802f3 	add	w19, w23, w24
    ff600400:	aa1403e0 	mov	x0, x20
    ff600404:	910173e3 	add	x3, sp, #0x5c
    ff600408:	b00000c2 	adrp	x2, ff619000 <s32g_clocks+0x3e8>
    ff60040c:	91170042 	add	x2, x2, #0x5c0
    ff600410:	940052d8 	bl	ff614f70 <fdt_getprop>
    ff600414:	1b197e73 	mul	w19, w19, w25
    ff600418:	aa0003e1 	mov	x1, x0
    ff60041c:	b40004c0 	cbz	x0, ff6004b4 <fdt_get_reg_props_by_index+0x114>
    ff600420:	0b1302e2 	add	w2, w23, w19
    ff600424:	b9405fe0 	ldr	w0, [sp, #92]
    ff600428:	0b180043 	add	w3, w2, w24
    ff60042c:	6b03081f 	cmp	w0, w3, lsl #2
    ff600430:	540003eb 	b.lt	ff6004ac <fdt_get_reg_props_by_index+0x10c>  // b.tstop
    ff600434:	b4000156 	cbz	x22, ff60045c <fdt_get_reg_props_by_index+0xbc>
    ff600438:	b873d820 	ldr	w0, [x1, w19, sxtw #2]
    ff60043c:	8b33c833 	add	x19, x1, w19, sxtw #2
    ff600440:	5ac00800 	rev	w0, w0
    ff600444:	710006ff 	cmp	w23, #0x1
    ff600448:	5400008d 	b.le	ff600458 <fdt_get_reg_props_by_index+0xb8>
    ff60044c:	b9400663 	ldr	w3, [x19, #4]
    ff600450:	5ac00863 	rev	w3, w3
    ff600454:	aa008060 	orr	x0, x3, x0, lsl #32
    ff600458:	f90002c0 	str	x0, [x22]
    ff60045c:	52800000 	mov	w0, #0x0                   	// #0
    ff600460:	b4000175 	cbz	x21, ff60048c <fdt_get_reg_props_by_index+0xec>
    ff600464:	b862d820 	ldr	w0, [x1, w2, sxtw #2]
    ff600468:	8b22c822 	add	x2, x1, w2, sxtw #2
    ff60046c:	5ac00801 	rev	w1, w0
    ff600470:	7100071f 	cmp	w24, #0x1
    ff600474:	5400008d 	b.le	ff600484 <fdt_get_reg_props_by_index+0xe4>
    ff600478:	b9400440 	ldr	w0, [x2, #4]
    ff60047c:	5ac00800 	rev	w0, w0
    ff600480:	aa018001 	orr	x1, x0, x1, lsl #32
    ff600484:	52800000 	mov	w0, #0x0                   	// #0
    ff600488:	f90002a1 	str	x1, [x21]
    ff60048c:	a94153f3 	ldp	x19, x20, [sp, #16]
    ff600490:	a9425bf5 	ldp	x21, x22, [sp, #32]
    ff600494:	a94363f7 	ldp	x23, x24, [sp, #48]
    ff600498:	f94023f9 	ldr	x25, [sp, #64]
    ff60049c:	a8c67bfd 	ldp	x29, x30, [sp], #96
    ff6004a0:	d65f03c0 	ret
    ff6004a4:	12800060 	mov	w0, #0xfffffffc            	// #-4
    ff6004a8:	17fffff9 	b	ff60048c <fdt_get_reg_props_by_index+0xec>
    ff6004ac:	128001c0 	mov	w0, #0xfffffff1            	// #-15
    ff6004b0:	17fffff7 	b	ff60048c <fdt_get_reg_props_by_index+0xec>
    ff6004b4:	12800000 	mov	w0, #0xffffffff            	// #-1
    ff6004b8:	17fffff5 	b	ff60048c <fdt_get_reg_props_by_index+0xec>
    ff6004bc:	00000000 	udf	#0

00000000ff6004c0 <runtime_svc_init>:
    ff6004c0:	a9bb7bfd 	stp	x29, x30, [sp, #-80]!
    ff6004c4:	910003fd 	mov	x29, sp
    ff6004c8:	a90153f3 	stp	x19, x20, [sp, #16]
    ff6004cc:	f00000d4 	adrp	x20, ff61b000 <periph_rgm_mcoresp.0+0x98>
    ff6004d0:	9128a294 	add	x20, x20, #0xa28
    ff6004d4:	f90023f9 	str	x25, [sp, #64]
    ff6004d8:	f00000d9 	adrp	x25, ff61b000 <periph_rgm_mcoresp.0+0x98>
    ff6004dc:	91272339 	add	x25, x25, #0x9c8
    ff6004e0:	cb190294 	sub	x20, x20, x25
    ff6004e4:	f1007e9f 	cmp	x20, #0x1f
    ff6004e8:	540000a8 	b.hi	ff6004fc <runtime_svc_init+0x3c>  // b.pmore
    ff6004ec:	a94153f3 	ldp	x19, x20, [sp, #16]
    ff6004f0:	f94023f9 	ldr	x25, [sp, #64]
    ff6004f4:	a8c57bfd 	ldp	x29, x30, [sp], #80
    ff6004f8:	d65f03c0 	ret
    ff6004fc:	d345fe94 	lsr	x20, x20, #5
    ff600500:	a9025bf5 	stp	x21, x22, [sp, #32]
    ff600504:	f00000b5 	adrp	x21, ff617000 <psci_args.0+0x28>
    ff600508:	910042b5 	add	x21, x21, #0x10
    ff60050c:	52800013 	mov	w19, #0x0                   	// #0
    ff600510:	a90363f7 	stp	x23, x24, [sp, #48]
    ff600514:	d2800017 	mov	x23, #0x0                   	// #0
    ff600518:	d0000218 	adrp	x24, ff642000 <psci_ns_context+0xa00>
    ff60051c:	9121a318 	add	x24, x24, #0x868
    ff600520:	d2801002 	mov	x2, #0x80                  	// #128
    ff600524:	aa1803e0 	mov	x0, x24
    ff600528:	12800001 	mov	w1, #0xffffffff            	// #-1
    ff60052c:	940053e1 	bl	ff6154b0 <memset>
    ff600530:	d37beaf7 	lsl	x23, x23, #5
    ff600534:	8b170336 	add	x22, x25, x23
    ff600538:	38776b20 	ldrb	w0, [x25, x23]
    ff60053c:	394006c1 	ldrb	w1, [x22, #1]
    ff600540:	7100fc3f 	cmp	w1, #0x3f
    ff600544:	7a419002 	ccmp	w0, w1, #0x2, ls  // ls = plast
    ff600548:	540005c8 	b.hi	ff600600 <runtime_svc_init+0x140>  // b.pmore
    ff60054c:	39400ac2 	ldrb	w2, [x22, #2]
    ff600550:	7100045f 	cmp	w2, #0x1
    ff600554:	54000568 	b.hi	ff600600 <runtime_svc_init+0x140>  // b.pmore
    ff600558:	f9400ac3 	ldr	x3, [x22, #16]
    ff60055c:	b40004e3 	cbz	x3, ff6005f8 <runtime_svc_init+0x138>
    ff600560:	d63f0060 	blr	x3
    ff600564:	35000380 	cbnz	w0, ff6005d4 <runtime_svc_init+0x114>
    ff600568:	38776b20 	ldrb	w0, [x25, x23]
    ff60056c:	39400ac2 	ldrb	w2, [x22, #2]
    ff600570:	394006c1 	ldrb	w1, [x22, #1]
    ff600574:	531a0043 	ubfiz	w3, w2, #6, #1
    ff600578:	12001400 	and	w0, w0, #0x3f
    ff60057c:	12001421 	and	w1, w1, #0x3f
    ff600580:	2a030002 	orr	w2, w0, w3
    ff600584:	2a030021 	orr	w1, w1, w3
    ff600588:	92401c40 	and	x0, x2, #0xff
    ff60058c:	6b01005f 	cmp	w2, w1
    ff600590:	540000c8 	b.hi	ff6005a8 <runtime_svc_init+0xe8>  // b.pmore
    ff600594:	d503201f 	nop
    ff600598:	38206b13 	strb	w19, [x24, x0]
    ff60059c:	91000400 	add	x0, x0, #0x1
    ff6005a0:	6b20003f 	cmp	w1, w0, uxtb
    ff6005a4:	54ffffa2 	b.cs	ff600598 <runtime_svc_init+0xd8>  // b.hs, b.nlast
    ff6005a8:	11000660 	add	w0, w19, #0x1
    ff6005ac:	12001c13 	and	w19, w0, #0xff
    ff6005b0:	92401c17 	and	x23, x0, #0xff
    ff6005b4:	eb20029f 	cmp	x20, w0, uxtb
    ff6005b8:	54fffbc8 	b.hi	ff600530 <runtime_svc_init+0x70>  // b.pmore
    ff6005bc:	a94153f3 	ldp	x19, x20, [sp, #16]
    ff6005c0:	a9425bf5 	ldp	x21, x22, [sp, #32]
    ff6005c4:	a94363f7 	ldp	x23, x24, [sp, #48]
    ff6005c8:	f94023f9 	ldr	x25, [sp, #64]
    ff6005cc:	a8c57bfd 	ldp	x29, x30, [sp], #80
    ff6005d0:	d65f03c0 	ret
    ff6005d4:	f94006c1 	ldr	x1, [x22, #8]
    ff6005d8:	aa1503e0 	mov	x0, x21
    ff6005dc:	94000011 	bl	ff600620 <tf_log>
    ff6005e0:	11000660 	add	w0, w19, #0x1
    ff6005e4:	12001c13 	and	w19, w0, #0xff
    ff6005e8:	92401c17 	and	x23, x0, #0xff
    ff6005ec:	eb20029f 	cmp	x20, w0, uxtb
    ff6005f0:	54fffa08 	b.hi	ff600530 <runtime_svc_init+0x70>  // b.pmore
    ff6005f4:	17fffff2 	b	ff6005bc <runtime_svc_init+0xfc>
    ff6005f8:	f9400ec3 	ldr	x3, [x22, #24]
    ff6005fc:	b5fffbc3 	cbnz	x3, ff600574 <runtime_svc_init+0xb4>
    ff600600:	aa1603e1 	mov	x1, x22
    ff600604:	d00000a0 	adrp	x0, ff616000 <print_el3_sys_regs+0xd8>
    ff600608:	913fa000 	add	x0, x0, #0xfe8
    ff60060c:	94000005 	bl	ff600620 <tf_log>
    ff600610:	940005dc 	bl	ff601d80 <console_flush>
    ff600614:	94005719 	bl	ff616278 <el3_panic>
	...

00000000ff600620 <tf_log>:
    ff600620:	a9b67bfd 	stp	x29, x30, [sp, #-160]!
    ff600624:	b0000108 	adrp	x8, ff621000 <bl31sram+0xf10>
    ff600628:	910003fd 	mov	x29, sp
    ff60062c:	a90153f3 	stp	x19, x20, [sp, #16]
    ff600630:	aa0003f4 	mov	x20, x0
    ff600634:	a9068be1 	stp	x1, x2, [sp, #104]
    ff600638:	b9417501 	ldr	w1, [x8, #372]
    ff60063c:	39400000 	ldrb	w0, [x0]
    ff600640:	a90793e3 	stp	x3, x4, [sp, #120]
    ff600644:	a9089be5 	stp	x5, x6, [sp, #136]
    ff600648:	f9004fe7 	str	x7, [sp, #152]
    ff60064c:	6b00003f 	cmp	w1, w0
    ff600650:	54000082 	b.cs	ff600660 <tf_log+0x40>  // b.hs, b.nlast
    ff600654:	a94153f3 	ldp	x19, x20, [sp, #16]
    ff600658:	a8ca7bfd 	ldp	x29, x30, [sp], #160
    ff60065c:	d65f03c0 	ret
    ff600660:	94003fc8 	bl	ff610580 <plat_log_get_prefix>
    ff600664:	aa0003f3 	mov	x19, x0
    ff600668:	39400000 	ldrb	w0, [x0]
    ff60066c:	34000080 	cbz	w0, ff60067c <tf_log+0x5c>
    ff600670:	940005b8 	bl	ff601d50 <putchar>
    ff600674:	38401e60 	ldrb	w0, [x19, #1]!
    ff600678:	35ffffc0 	cbnz	w0, ff600670 <tf_log+0x50>
    ff60067c:	910283e0 	add	x0, sp, #0xa0
    ff600680:	910283e1 	add	x1, sp, #0xa0
    ff600684:	a90407e0 	stp	x0, x1, [sp, #64]
    ff600688:	910183e3 	add	x3, sp, #0x60
    ff60068c:	128006e2 	mov	w2, #0xffffffc8            	// #-56
    ff600690:	f9002be3 	str	x3, [sp, #80]
    ff600694:	910083e1 	add	x1, sp, #0x20
    ff600698:	290b7fe2 	stp	w2, wzr, [sp, #88]
    ff60069c:	91000680 	add	x0, x20, #0x1
    ff6006a0:	a9440fe2 	ldp	x2, x3, [sp, #64]
    ff6006a4:	a9020fe2 	stp	x2, x3, [sp, #32]
    ff6006a8:	a9450fe2 	ldp	x2, x3, [sp, #80]
    ff6006ac:	a9030fe2 	stp	x2, x3, [sp, #48]
    ff6006b0:	940053e8 	bl	ff615650 <vprintf>
    ff6006b4:	a94153f3 	ldp	x19, x20, [sp, #16]
    ff6006b8:	a8ca7bfd 	ldp	x29, x30, [sp], #160
    ff6006bc:	d65f03c0 	ret

00000000ff6006c0 <arm_gicv3_distif_pre_save>:
    ff6006c0:	d0000201 	adrp	x1, ff642000 <psci_ns_context+0xa00>
    ff6006c4:	f9447821 	ldr	x1, [x1, #2288]
    ff6006c8:	f9401021 	ldr	x1, [x1, #32]
    ff6006cc:	f8605820 	ldr	x0, [x1, w0, uxtw #3]
    ff6006d0:	91005001 	add	x1, x0, #0x14
    ff6006d4:	b9401402 	ldr	w2, [x0, #20]
    ff6006d8:	32000042 	orr	w2, w2, #0x1
    ff6006dc:	b9001402 	str	w2, [x0, #20]
    ff6006e0:	b9400020 	ldr	w0, [x1]
    ff6006e4:	36ffffe0 	tbz	w0, #31, ff6006e0 <arm_gicv3_distif_pre_save+0x20>
    ff6006e8:	d65f03c0 	ret
    ff6006ec:	00000000 	udf	#0

00000000ff6006f0 <arm_gicv3_distif_post_restore>:
    ff6006f0:	d0000201 	adrp	x1, ff642000 <psci_ns_context+0xa00>
    ff6006f4:	f9447821 	ldr	x1, [x1, #2288]
    ff6006f8:	f9401021 	ldr	x1, [x1, #32]
    ff6006fc:	f8605820 	ldr	x0, [x1, w0, uxtw #3]
    ff600700:	91005001 	add	x1, x0, #0x14
    ff600704:	b9401402 	ldr	w2, [x0, #20]
    ff600708:	360000c2 	tbz	w2, #0, ff600720 <arm_gicv3_distif_post_restore+0x30>
    ff60070c:	b9401402 	ldr	w2, [x0, #20]
    ff600710:	121f7842 	and	w2, w2, #0xfffffffe
    ff600714:	b9001402 	str	w2, [x0, #20]
    ff600718:	b9400020 	ldr	w0, [x1]
    ff60071c:	37ffffe0 	tbnz	w0, #31, ff600718 <arm_gicv3_distif_post_restore+0x28>
    ff600720:	d65f03c0 	ret
	...

00000000ff600730 <gicv3_distif_pre_save>:
    ff600730:	17ffffe4 	b	ff6006c0 <arm_gicv3_distif_pre_save>
	...

00000000ff600740 <gicv3_distif_post_restore>:
    ff600740:	17ffffec 	b	ff6006f0 <arm_gicv3_distif_post_restore>
	...

00000000ff600750 <gicv3_rdistif_on>:
    ff600750:	d65f03c0 	ret
	...

00000000ff600760 <gicv3_check_erratas_applies>:
    ff600760:	a9be7bfd 	stp	x29, x30, [sp, #-32]!
    ff600764:	910003fd 	mov	x29, sp
    ff600768:	91006fe2 	add	x2, sp, #0x1b
    ff60076c:	910073e1 	add	x1, sp, #0x1c
    ff600770:	94000200 	bl	ff600f70 <gicv3_get_component_prodid_rev>
    ff600774:	a8c27bfd 	ldp	x29, x30, [sp], #32
    ff600778:	d65f03c0 	ret
    ff60077c:	00000000 	udf	#0

00000000ff600780 <gicd_set_icfgr>:
    ff600780:	53047c24 	lsr	w4, w1, #4
    ff600784:	91300000 	add	x0, x0, #0xc00
    ff600788:	531f0c21 	ubfiz	w1, w1, #1, #4
    ff60078c:	52800063 	mov	w3, #0x3                   	// #3
    ff600790:	0a030042 	and	w2, w2, w3
    ff600794:	b8647805 	ldr	w5, [x0, x4, lsl #2]
    ff600798:	1ac12063 	lsl	w3, w3, w1
    ff60079c:	1ac12042 	lsl	w2, w2, w1
    ff6007a0:	0a2300a3 	bic	w3, w5, w3
    ff6007a4:	2a020063 	orr	w3, w3, w2
    ff6007a8:	b8247803 	str	w3, [x0, x4, lsl #2]
    ff6007ac:	d65f03c0 	ret

00000000ff6007b0 <gicd_set_igroupr>:
    ff6007b0:	53057c23 	lsr	w3, w1, #5
    ff6007b4:	91020000 	add	x0, x0, #0x80
    ff6007b8:	52800022 	mov	w2, #0x1                   	// #1
    ff6007bc:	1ac12041 	lsl	w1, w2, w1
    ff6007c0:	b8637802 	ldr	w2, [x0, x3, lsl #2]
    ff6007c4:	2a020021 	orr	w1, w1, w2
    ff6007c8:	b8237801 	str	w1, [x0, x3, lsl #2]
    ff6007cc:	d65f03c0 	ret

00000000ff6007d0 <gicd_clr_igroupr>:
    ff6007d0:	53057c23 	lsr	w3, w1, #5
    ff6007d4:	91020000 	add	x0, x0, #0x80
    ff6007d8:	52800022 	mov	w2, #0x1                   	// #1
    ff6007dc:	1ac12041 	lsl	w1, w2, w1
    ff6007e0:	b8637802 	ldr	w2, [x0, x3, lsl #2]
    ff6007e4:	0a210041 	bic	w1, w2, w1
    ff6007e8:	b8237801 	str	w1, [x0, x3, lsl #2]
    ff6007ec:	d65f03c0 	ret

00000000ff6007f0 <gicd_set_igrpmodr>:
    ff6007f0:	53057c23 	lsr	w3, w1, #5
    ff6007f4:	91340000 	add	x0, x0, #0xd00
    ff6007f8:	52800022 	mov	w2, #0x1                   	// #1
    ff6007fc:	1ac12041 	lsl	w1, w2, w1
    ff600800:	b8637802 	ldr	w2, [x0, x3, lsl #2]
    ff600804:	2a020021 	orr	w1, w1, w2
    ff600808:	b8237801 	str	w1, [x0, x3, lsl #2]
    ff60080c:	d65f03c0 	ret

00000000ff600810 <gicd_clr_igrpmodr>:
    ff600810:	53057c23 	lsr	w3, w1, #5
    ff600814:	91340000 	add	x0, x0, #0xd00
    ff600818:	52800022 	mov	w2, #0x1                   	// #1
    ff60081c:	1ac12041 	lsl	w1, w2, w1
    ff600820:	b8637802 	ldr	w2, [x0, x3, lsl #2]
    ff600824:	0a210041 	bic	w1, w2, w1
    ff600828:	b8237801 	str	w1, [x0, x3, lsl #2]
    ff60082c:	d65f03c0 	ret

00000000ff600830 <gicd_set_icenabler>:
    ff600830:	53057c23 	lsr	w3, w1, #5
    ff600834:	91060000 	add	x0, x0, #0x180
    ff600838:	52800022 	mov	w2, #0x1                   	// #1
    ff60083c:	1ac12041 	lsl	w1, w2, w1
    ff600840:	b8237801 	str	w1, [x0, x3, lsl #2]
    ff600844:	d65f03c0 	ret
	...

00000000ff600850 <gicd_set_icpendr>:
    ff600850:	53057c23 	lsr	w3, w1, #5
    ff600854:	910a0000 	add	x0, x0, #0x280
    ff600858:	52800022 	mov	w2, #0x1                   	// #1
    ff60085c:	1ac12041 	lsl	w1, w2, w1
    ff600860:	b8237801 	str	w1, [x0, x3, lsl #2]
    ff600864:	d65f03c0 	ret
	...

00000000ff600870 <gicd_set_isenabler>:
    ff600870:	53057c23 	lsr	w3, w1, #5
    ff600874:	91040000 	add	x0, x0, #0x100
    ff600878:	52800022 	mov	w2, #0x1                   	// #1
    ff60087c:	1ac12041 	lsl	w1, w2, w1
    ff600880:	b8237801 	str	w1, [x0, x3, lsl #2]
    ff600884:	d65f03c0 	ret
	...

00000000ff600890 <gicd_set_ipriorityr>:
    ff600890:	91100000 	add	x0, x0, #0x400
    ff600894:	12001c42 	and	w2, w2, #0xff
    ff600898:	38214802 	strb	w2, [x0, w1, uxtw]
    ff60089c:	d65f03c0 	ret

00000000ff6008a0 <gicd_read_icfgr>:
    ff6008a0:	53047c21 	lsr	w1, w1, #4
    ff6008a4:	91300000 	add	x0, x0, #0xc00
    ff6008a8:	b8617800 	ldr	w0, [x0, x1, lsl #2]
    ff6008ac:	d65f03c0 	ret

00000000ff6008b0 <gicd_write_icfgr>:
    ff6008b0:	91300000 	add	x0, x0, #0xc00
    ff6008b4:	53047c21 	lsr	w1, w1, #4
    ff6008b8:	b8217802 	str	w2, [x0, x1, lsl #2]
    ff6008bc:	d65f03c0 	ret

00000000ff6008c0 <gicd_read_igroupr>:
    ff6008c0:	53057c21 	lsr	w1, w1, #5
    ff6008c4:	91020000 	add	x0, x0, #0x80
    ff6008c8:	b8617800 	ldr	w0, [x0, x1, lsl #2]
    ff6008cc:	d65f03c0 	ret

00000000ff6008d0 <gicd_write_igroupr>:
    ff6008d0:	91020000 	add	x0, x0, #0x80
    ff6008d4:	53057c21 	lsr	w1, w1, #5
    ff6008d8:	b8217802 	str	w2, [x0, x1, lsl #2]
    ff6008dc:	d65f03c0 	ret

00000000ff6008e0 <gicd_read_igrpmodr>:
    ff6008e0:	53057c21 	lsr	w1, w1, #5
    ff6008e4:	91340000 	add	x0, x0, #0xd00
    ff6008e8:	b8617800 	ldr	w0, [x0, x1, lsl #2]
    ff6008ec:	d65f03c0 	ret

00000000ff6008f0 <gicd_write_igrpmodr>:
    ff6008f0:	91340000 	add	x0, x0, #0xd00
    ff6008f4:	53057c21 	lsr	w1, w1, #5
    ff6008f8:	b8217802 	str	w2, [x0, x1, lsl #2]
    ff6008fc:	d65f03c0 	ret

00000000ff600900 <gicd_read_ipriorityr>:
    ff600900:	53027c21 	lsr	w1, w1, #2
    ff600904:	91100000 	add	x0, x0, #0x400
    ff600908:	b8617800 	ldr	w0, [x0, x1, lsl #2]
    ff60090c:	d65f03c0 	ret

00000000ff600910 <gicd_write_ipriorityr>:
    ff600910:	91100000 	add	x0, x0, #0x400
    ff600914:	53027c21 	lsr	w1, w1, #2
    ff600918:	b8217802 	str	w2, [x0, x1, lsl #2]
    ff60091c:	d65f03c0 	ret

00000000ff600920 <gicd_read_isactiver>:
    ff600920:	53057c21 	lsr	w1, w1, #5
    ff600924:	910c0000 	add	x0, x0, #0x300
    ff600928:	b8617800 	ldr	w0, [x0, x1, lsl #2]
    ff60092c:	d65f03c0 	ret

00000000ff600930 <gicd_write_isactiver>:
    ff600930:	910c0000 	add	x0, x0, #0x300
    ff600934:	53057c21 	lsr	w1, w1, #5
    ff600938:	b8217802 	str	w2, [x0, x1, lsl #2]
    ff60093c:	d65f03c0 	ret

00000000ff600940 <gicd_read_isenabler>:
    ff600940:	53057c21 	lsr	w1, w1, #5
    ff600944:	91040000 	add	x0, x0, #0x100
    ff600948:	b8617800 	ldr	w0, [x0, x1, lsl #2]
    ff60094c:	d65f03c0 	ret

00000000ff600950 <gicd_write_isenabler>:
    ff600950:	91040000 	add	x0, x0, #0x100
    ff600954:	53057c21 	lsr	w1, w1, #5
    ff600958:	b8217802 	str	w2, [x0, x1, lsl #2]
    ff60095c:	d65f03c0 	ret

00000000ff600960 <gicd_read_ispendr>:
    ff600960:	53057c21 	lsr	w1, w1, #5
    ff600964:	91080000 	add	x0, x0, #0x200
    ff600968:	b8617800 	ldr	w0, [x0, x1, lsl #2]
    ff60096c:	d65f03c0 	ret

00000000ff600970 <gicd_write_ispendr>:
    ff600970:	91080000 	add	x0, x0, #0x200
    ff600974:	53057c21 	lsr	w1, w1, #5
    ff600978:	b8217802 	str	w2, [x0, x1, lsl #2]
    ff60097c:	d65f03c0 	ret

00000000ff600980 <gicd_read_nsacr>:
    ff600980:	53047c21 	lsr	w1, w1, #4
    ff600984:	91380000 	add	x0, x0, #0xe00
    ff600988:	b8617800 	ldr	w0, [x0, x1, lsl #2]
    ff60098c:	d65f03c0 	ret

00000000ff600990 <gicd_write_nsacr>:
    ff600990:	91380000 	add	x0, x0, #0xe00
    ff600994:	53047c21 	lsr	w1, w1, #4
    ff600998:	b8217802 	str	w2, [x0, x1, lsl #2]
    ff60099c:	d65f03c0 	ret

00000000ff6009a0 <gicr_write_ipriorityr>:
    ff6009a0:	91404000 	add	x0, x0, #0x10, lsl #12
    ff6009a4:	53027c21 	lsr	w1, w1, #2
    ff6009a8:	91100000 	add	x0, x0, #0x400
    ff6009ac:	b8217802 	str	w2, [x0, x1, lsl #2]
    ff6009b0:	d65f03c0 	ret
	...

00000000ff6009c0 <gicr_set_ipriorityr>:
    ff6009c0:	91404000 	add	x0, x0, #0x10, lsl #12
    ff6009c4:	12001c42 	and	w2, w2, #0xff
    ff6009c8:	91100000 	add	x0, x0, #0x400
    ff6009cc:	38214802 	strb	w2, [x0, w1, uxtw]
    ff6009d0:	d65f03c0 	ret
	...

00000000ff6009e0 <gicr_set_igroupr>:
    ff6009e0:	91404000 	add	x0, x0, #0x10, lsl #12
    ff6009e4:	53057c23 	lsr	w3, w1, #5
    ff6009e8:	91020000 	add	x0, x0, #0x80
    ff6009ec:	52800022 	mov	w2, #0x1                   	// #1
    ff6009f0:	1ac12041 	lsl	w1, w2, w1
    ff6009f4:	b8637802 	ldr	w2, [x0, x3, lsl #2]
    ff6009f8:	2a020021 	orr	w1, w1, w2
    ff6009fc:	b8237801 	str	w1, [x0, x3, lsl #2]
    ff600a00:	d65f03c0 	ret
	...

00000000ff600a10 <gicr_clr_igroupr>:
    ff600a10:	91404000 	add	x0, x0, #0x10, lsl #12
    ff600a14:	53057c23 	lsr	w3, w1, #5
    ff600a18:	91020000 	add	x0, x0, #0x80
    ff600a1c:	52800022 	mov	w2, #0x1                   	// #1
    ff600a20:	1ac12041 	lsl	w1, w2, w1
    ff600a24:	b8637802 	ldr	w2, [x0, x3, lsl #2]
    ff600a28:	0a210041 	bic	w1, w2, w1
    ff600a2c:	b8237801 	str	w1, [x0, x3, lsl #2]
    ff600a30:	d65f03c0 	ret
	...

00000000ff600a40 <gicr_set_igrpmodr>:
    ff600a40:	91404000 	add	x0, x0, #0x10, lsl #12
    ff600a44:	53057c23 	lsr	w3, w1, #5
    ff600a48:	91340000 	add	x0, x0, #0xd00
    ff600a4c:	52800022 	mov	w2, #0x1                   	// #1
    ff600a50:	1ac12041 	lsl	w1, w2, w1
    ff600a54:	b8637802 	ldr	w2, [x0, x3, lsl #2]
    ff600a58:	2a020021 	orr	w1, w1, w2
    ff600a5c:	b8237801 	str	w1, [x0, x3, lsl #2]
    ff600a60:	d65f03c0 	ret
	...

00000000ff600a70 <gicr_clr_igrpmodr>:
    ff600a70:	91404000 	add	x0, x0, #0x10, lsl #12
    ff600a74:	53057c23 	lsr	w3, w1, #5
    ff600a78:	91340000 	add	x0, x0, #0xd00
    ff600a7c:	52800022 	mov	w2, #0x1                   	// #1
    ff600a80:	1ac12041 	lsl	w1, w2, w1
    ff600a84:	b8637802 	ldr	w2, [x0, x3, lsl #2]
    ff600a88:	0a210041 	bic	w1, w2, w1
    ff600a8c:	b8237801 	str	w1, [x0, x3, lsl #2]
    ff600a90:	d65f03c0 	ret
	...

00000000ff600aa0 <gicr_set_isenabler>:
    ff600aa0:	91404000 	add	x0, x0, #0x10, lsl #12
    ff600aa4:	53057c23 	lsr	w3, w1, #5
    ff600aa8:	91040000 	add	x0, x0, #0x100
    ff600aac:	52800022 	mov	w2, #0x1                   	// #1
    ff600ab0:	1ac12041 	lsl	w1, w2, w1
    ff600ab4:	b8237801 	str	w1, [x0, x3, lsl #2]
    ff600ab8:	d65f03c0 	ret
    ff600abc:	00000000 	udf	#0

00000000ff600ac0 <gicr_set_icenabler>:
    ff600ac0:	91404000 	add	x0, x0, #0x10, lsl #12
    ff600ac4:	53057c23 	lsr	w3, w1, #5
    ff600ac8:	91060000 	add	x0, x0, #0x180
    ff600acc:	52800022 	mov	w2, #0x1                   	// #1
    ff600ad0:	1ac12041 	lsl	w1, w2, w1
    ff600ad4:	b8237801 	str	w1, [x0, x3, lsl #2]
    ff600ad8:	d65f03c0 	ret
    ff600adc:	00000000 	udf	#0

00000000ff600ae0 <gicr_set_icpendr>:
    ff600ae0:	91404000 	add	x0, x0, #0x10, lsl #12
    ff600ae4:	53057c23 	lsr	w3, w1, #5
    ff600ae8:	910a0000 	add	x0, x0, #0x280
    ff600aec:	52800022 	mov	w2, #0x1                   	// #1
    ff600af0:	1ac12041 	lsl	w1, w2, w1
    ff600af4:	b8237801 	str	w1, [x0, x3, lsl #2]
    ff600af8:	d65f03c0 	ret
    ff600afc:	00000000 	udf	#0

00000000ff600b00 <gicr_set_icfgr>:
    ff600b00:	91404000 	add	x0, x0, #0x10, lsl #12
    ff600b04:	53047c24 	lsr	w4, w1, #4
    ff600b08:	91300000 	add	x0, x0, #0xc00
    ff600b0c:	531f0c21 	ubfiz	w1, w1, #1, #4
    ff600b10:	52800063 	mov	w3, #0x3                   	// #3
    ff600b14:	0a030042 	and	w2, w2, w3
    ff600b18:	1ac12063 	lsl	w3, w3, w1
    ff600b1c:	b8647805 	ldr	w5, [x0, x4, lsl #2]
    ff600b20:	1ac12042 	lsl	w2, w2, w1
    ff600b24:	0a2300a3 	bic	w3, w5, w3
    ff600b28:	2a020063 	orr	w3, w3, w2
    ff600b2c:	b8247803 	str	w3, [x0, x4, lsl #2]
    ff600b30:	d65f03c0 	ret
	...

00000000ff600b40 <gicv3_get_multichip_base>:
    ff600b40:	aa0103e0 	mov	x0, x1
    ff600b44:	d65f03c0 	ret
	...

00000000ff600b50 <gicv3_rdistif_mark_core_awake>:
    ff600b50:	b9401402 	ldr	w2, [x0, #20]
    ff600b54:	91005001 	add	x1, x0, #0x14
    ff600b58:	121e7842 	and	w2, w2, #0xfffffffd
    ff600b5c:	b9001402 	str	w2, [x0, #20]
    ff600b60:	b9400020 	ldr	w0, [x1]
    ff600b64:	3717ffe0 	tbnz	w0, #2, ff600b60 <gicv3_rdistif_mark_core_awake+0x10>
    ff600b68:	d65f03c0 	ret
    ff600b6c:	00000000 	udf	#0

00000000ff600b70 <gicv3_rdistif_mark_core_asleep>:
    ff600b70:	b9401402 	ldr	w2, [x0, #20]
    ff600b74:	91005001 	add	x1, x0, #0x14
    ff600b78:	321f0042 	orr	w2, w2, #0x2
    ff600b7c:	b9001402 	str	w2, [x0, #20]
    ff600b80:	b9400020 	ldr	w0, [x1]
    ff600b84:	3617ffe0 	tbz	w0, #2, ff600b80 <gicv3_rdistif_mark_core_asleep+0x10>
    ff600b88:	d65f03c0 	ret
    ff600b8c:	00000000 	udf	#0

00000000ff600b90 <gicv3_rdistif_base_addrs_probe>:
    ff600b90:	a9bc7bfd 	stp	x29, x30, [sp, #-64]!
    ff600b94:	910003fd 	mov	x29, sp
    ff600b98:	a90153f3 	stp	x19, x20, [sp, #16]
    ff600b9c:	aa0203f4 	mov	x20, x2
    ff600ba0:	a9025bf5 	stp	x21, x22, [sp, #32]
    ff600ba4:	2a0103f6 	mov	w22, w1
    ff600ba8:	aa0303f5 	mov	x21, x3
    ff600bac:	f9001bf7 	str	x23, [sp, #48]
    ff600bb0:	aa0003f7 	mov	x23, x0
    ff600bb4:	d503201f 	nop
    ff600bb8:	f9400693 	ldr	x19, [x20, #8]
    ff600bbc:	d378fe61 	lsr	x1, x19, #56
    ff600bc0:	d360de62 	ubfx	x2, x19, #32, #24
    ff600bc4:	53085e60 	ubfx	w0, w19, #8, #16
    ff600bc8:	b4000075 	cbz	x21, ff600bd4 <gicv3_rdistif_base_addrs_probe+0x44>
    ff600bcc:	aa018040 	orr	x0, x2, x1, lsl #32
    ff600bd0:	d63f02a0 	blr	x21
    ff600bd4:	6b16001f 	cmp	w0, w22
    ff600bd8:	54000042 	b.cs	ff600be0 <gicv3_rdistif_base_addrs_probe+0x50>  // b.hs, b.nlast
    ff600bdc:	f8205af4 	str	x20, [x23, w0, uxtw #3]
    ff600be0:	91408294 	add	x20, x20, #0x20, lsl #12
    ff600be4:	3627feb3 	tbz	w19, #4, ff600bb8 <gicv3_rdistif_base_addrs_probe+0x28>
    ff600be8:	a94153f3 	ldp	x19, x20, [sp, #16]
    ff600bec:	a9425bf5 	ldp	x21, x22, [sp, #32]
    ff600bf0:	f9401bf7 	ldr	x23, [sp, #48]
    ff600bf4:	a8c47bfd 	ldp	x29, x30, [sp], #64
    ff600bf8:	d65f03c0 	ret
    ff600bfc:	00000000 	udf	#0

00000000ff600c00 <gicv3_get_spi_limit>:
    ff600c00:	b9400400 	ldr	w0, [x0, #4]
    ff600c04:	52807f81 	mov	w1, #0x3fc                 	// #1020
    ff600c08:	531b1000 	ubfiz	w0, w0, #5, #5
    ff600c0c:	11008000 	add	w0, w0, #0x20
    ff600c10:	6b01001f 	cmp	w0, w1
    ff600c14:	1a819000 	csel	w0, w0, w1, ls  // ls = plast
    ff600c18:	d65f03c0 	ret
    ff600c1c:	00000000 	udf	#0

00000000ff600c20 <gicv3_spis_config_defaults>:
    ff600c20:	a9bd7bfd 	stp	x29, x30, [sp, #-48]!
    ff600c24:	910003fd 	mov	x29, sp
    ff600c28:	a90153f3 	stp	x19, x20, [sp, #16]
    ff600c2c:	aa0003f4 	mov	x20, x0
    ff600c30:	b9400400 	ldr	w0, [x0, #4]
    ff600c34:	f90013f5 	str	x21, [sp, #32]
    ff600c38:	52807f95 	mov	w21, #0x3fc                 	// #1020
    ff600c3c:	531b1000 	ubfiz	w0, w0, #5, #5
    ff600c40:	11008000 	add	w0, w0, #0x20
    ff600c44:	6b15001f 	cmp	w0, w21
    ff600c48:	1a959015 	csel	w21, w0, w21, ls  // ls = plast
    ff600c4c:	7100801f 	cmp	w0, #0x20
    ff600c50:	54000320 	b.eq	ff600cb4 <gicv3_spis_config_defaults+0x94>  // b.none
    ff600c54:	52800413 	mov	w19, #0x20                  	// #32
    ff600c58:	2a1303e1 	mov	w1, w19
    ff600c5c:	aa1403e0 	mov	x0, x20
    ff600c60:	11008273 	add	w19, w19, #0x20
    ff600c64:	12800002 	mov	w2, #0xffffffff            	// #-1
    ff600c68:	97ffff1a 	bl	ff6008d0 <gicd_write_igroupr>
    ff600c6c:	6b15027f 	cmp	w19, w21
    ff600c70:	54ffff43 	b.cc	ff600c58 <gicv3_spis_config_defaults+0x38>  // b.lo, b.ul, b.last
    ff600c74:	52800413 	mov	w19, #0x20                  	// #32
    ff600c78:	2a1303e1 	mov	w1, w19
    ff600c7c:	aa1403e0 	mov	x0, x20
    ff600c80:	11001273 	add	w19, w19, #0x4
    ff600c84:	3201c3e2 	mov	w2, #0x80808080            	// #-2139062144
    ff600c88:	97ffff22 	bl	ff600910 <gicd_write_ipriorityr>
    ff600c8c:	6b15027f 	cmp	w19, w21
    ff600c90:	54ffff43 	b.cc	ff600c78 <gicv3_spis_config_defaults+0x58>  // b.lo, b.ul, b.last
    ff600c94:	52800413 	mov	w19, #0x20                  	// #32
    ff600c98:	2a1303e1 	mov	w1, w19
    ff600c9c:	aa1403e0 	mov	x0, x20
    ff600ca0:	11004273 	add	w19, w19, #0x10
    ff600ca4:	52800002 	mov	w2, #0x0                   	// #0
    ff600ca8:	97ffff02 	bl	ff6008b0 <gicd_write_icfgr>
    ff600cac:	6b15027f 	cmp	w19, w21
    ff600cb0:	54ffff43 	b.cc	ff600c98 <gicv3_spis_config_defaults+0x78>  // b.lo, b.ul, b.last
    ff600cb4:	a94153f3 	ldp	x19, x20, [sp, #16]
    ff600cb8:	f94013f5 	ldr	x21, [sp, #32]
    ff600cbc:	a8c37bfd 	ldp	x29, x30, [sp], #48
    ff600cc0:	d65f03c0 	ret
	...

00000000ff600cd0 <gicv3_secure_spis_config_props>:
    ff600cd0:	a9bb7bfd 	stp	x29, x30, [sp, #-80]!
    ff600cd4:	910003fd 	mov	x29, sp
    ff600cd8:	a90363f7 	stp	x23, x24, [sp, #48]
    ff600cdc:	34000782 	cbz	w2, ff600dcc <gicv3_secure_spis_config_props+0xfc>
    ff600ce0:	51000442 	sub	w2, w2, #0x1
    ff600ce4:	a9025bf5 	stp	x21, x22, [sp, #32]
    ff600ce8:	aa0003f5 	mov	x21, x0
    ff600cec:	91001020 	add	x0, x1, #0x4
    ff600cf0:	a9046bf9 	stp	x25, x26, [sp, #64]
    ff600cf4:	b2405ff9 	mov	x25, #0xffffff              	// #16777215
    ff600cf8:	91401aba 	add	x26, x21, #0x6, lsl #12
    ff600cfc:	8b224817 	add	x23, x0, w2, uxtw #2
    ff600d00:	52800018 	mov	w24, #0x0                   	// #0
    ff600d04:	f2c01ff9 	movk	x25, #0xff, lsl #32
    ff600d08:	a90153f3 	stp	x19, x20, [sp, #16]
    ff600d0c:	aa0103f3 	mov	x19, x1
    ff600d10:	14000017 	b	ff600d6c <gicv3_secure_spis_config_props+0x9c>
    ff600d14:	321e0318 	orr	w24, w24, #0x4
    ff600d18:	97fffeb6 	bl	ff6007f0 <gicd_set_igrpmodr>
    ff600d1c:	b9400262 	ldr	w2, [x19]
    ff600d20:	2a1403e1 	mov	w1, w20
    ff600d24:	aa1503e0 	mov	x0, x21
    ff600d28:	d3576042 	ubfx	x2, x2, #23, #2
    ff600d2c:	97fffe95 	bl	ff600780 <gicd_set_icfgr>
    ff600d30:	b9400262 	ldr	w2, [x19]
    ff600d34:	2a1403e1 	mov	w1, w20
    ff600d38:	aa1503e0 	mov	x0, x21
    ff600d3c:	d34d5042 	ubfx	x2, x2, #13, #8
    ff600d40:	97fffed4 	bl	ff600890 <gicd_set_ipriorityr>
    ff600d44:	d53800a3 	mrs	x3, mpidr_el1
    ff600d48:	92403ec2 	and	x2, x22, #0xffff
    ff600d4c:	8a190063 	and	x3, x3, x25
    ff600d50:	2a1403e1 	mov	w1, w20
    ff600d54:	aa1503e0 	mov	x0, x21
    ff600d58:	f8227b43 	str	x3, [x26, x2, lsl #3]
    ff600d5c:	97fffec5 	bl	ff600870 <gicd_set_isenabler>
    ff600d60:	91001273 	add	x19, x19, #0x4
    ff600d64:	eb17027f 	cmp	x19, x23
    ff600d68:	54000240 	b.eq	ff600db0 <gicv3_secure_spis_config_props+0xe0>  // b.none
    ff600d6c:	b9400262 	ldr	w2, [x19]
    ff600d70:	aa1503e0 	mov	x0, x21
    ff600d74:	12003054 	and	w20, w2, #0x1fff
    ff600d78:	51008283 	sub	w3, w20, #0x20
    ff600d7c:	2a1403e1 	mov	w1, w20
    ff600d80:	d3403056 	ubfx	x22, x2, #0, #13
    ff600d84:	710f6c7f 	cmp	w3, #0x3db
    ff600d88:	54fffec8 	b.hi	ff600d60 <gicv3_secure_spis_config_props+0x90>  // b.pmore
    ff600d8c:	97fffe91 	bl	ff6007d0 <gicd_clr_igroupr>
    ff600d90:	b9400262 	ldr	w2, [x19]
    ff600d94:	2a1403e1 	mov	w1, w20
    ff600d98:	aa1503e0 	mov	x0, x21
    ff600d9c:	720b045f 	tst	w2, #0x600000
    ff600da0:	54fffba0 	b.eq	ff600d14 <gicv3_secure_spis_config_props+0x44>  // b.none
    ff600da4:	32000318 	orr	w24, w24, #0x1
    ff600da8:	97fffe9a 	bl	ff600810 <gicd_clr_igrpmodr>
    ff600dac:	17ffffdc 	b	ff600d1c <gicv3_secure_spis_config_props+0x4c>
    ff600db0:	2a1803e0 	mov	w0, w24
    ff600db4:	a94153f3 	ldp	x19, x20, [sp, #16]
    ff600db8:	a9425bf5 	ldp	x21, x22, [sp, #32]
    ff600dbc:	a94363f7 	ldp	x23, x24, [sp, #48]
    ff600dc0:	a9446bf9 	ldp	x25, x26, [sp, #64]
    ff600dc4:	a8c57bfd 	ldp	x29, x30, [sp], #80
    ff600dc8:	d65f03c0 	ret
    ff600dcc:	52800018 	mov	w24, #0x0                   	// #0
    ff600dd0:	2a1803e0 	mov	w0, w24
    ff600dd4:	a94363f7 	ldp	x23, x24, [sp, #48]
    ff600dd8:	a8c57bfd 	ldp	x29, x30, [sp], #80
    ff600ddc:	d65f03c0 	ret

00000000ff600de0 <gicv3_ppi_sgi_config_defaults>:
    ff600de0:	a9be7bfd 	stp	x29, x30, [sp, #-32]!
    ff600de4:	d2803001 	mov	x1, #0x180                 	// #384
    ff600de8:	f2a00021 	movk	x1, #0x1, lsl #16
    ff600dec:	910003fd 	mov	x29, sp
    ff600df0:	a90153f3 	stp	x19, x20, [sp, #16]
    ff600df4:	aa0003f4 	mov	x20, x0
    ff600df8:	12800000 	mov	w0, #0xffffffff            	// #-1
    ff600dfc:	b8216a80 	str	w0, [x20, x1]
    ff600e00:	b9400281 	ldr	w1, [x20]
    ff600e04:	121d0033 	and	w19, w1, #0x8
    ff600e08:	371fffc1 	tbnz	w1, #3, ff600e00 <gicv3_ppi_sgi_config_defaults+0x20>
    ff600e0c:	d2801000 	mov	x0, #0x80                  	// #128
    ff600e10:	12800001 	mov	w1, #0xffffffff            	// #-1
    ff600e14:	f2a00020 	movk	x0, #0x1, lsl #16
    ff600e18:	b8206a81 	str	w1, [x20, x0]
    ff600e1c:	d503201f 	nop
    ff600e20:	2a1303e1 	mov	w1, w19
    ff600e24:	aa1403e0 	mov	x0, x20
    ff600e28:	11001273 	add	w19, w19, #0x4
    ff600e2c:	3201c3e2 	mov	w2, #0x80808080            	// #-2139062144
    ff600e30:	97fffedc 	bl	ff6009a0 <gicr_write_ipriorityr>
    ff600e34:	7100827f 	cmp	w19, #0x20
    ff600e38:	54ffff41 	b.ne	ff600e20 <gicv3_ppi_sgi_config_defaults+0x40>  // b.any
    ff600e3c:	d2818080 	mov	x0, #0xc04                 	// #3076
    ff600e40:	f2a00020 	movk	x0, #0x1, lsl #16
    ff600e44:	b8206a9f 	str	wzr, [x20, x0]
    ff600e48:	a94153f3 	ldp	x19, x20, [sp, #16]
    ff600e4c:	a8c27bfd 	ldp	x29, x30, [sp], #32
    ff600e50:	d65f03c0 	ret
	...

00000000ff600e60 <gicv3_secure_ppi_sgi_config_props>:
    ff600e60:	a9bc7bfd 	stp	x29, x30, [sp, #-64]!
    ff600e64:	910003fd 	mov	x29, sp
    ff600e68:	f9001bf7 	str	x23, [sp, #48]
    ff600e6c:	34000742 	cbz	w2, ff600f54 <gicv3_secure_ppi_sgi_config_props+0xf4>
    ff600e70:	51000442 	sub	w2, w2, #0x1
    ff600e74:	a9025bf5 	stp	x21, x22, [sp, #32]
    ff600e78:	aa0003f5 	mov	x21, x0
    ff600e7c:	91001020 	add	x0, x1, #0x4
    ff600e80:	52800017 	mov	w23, #0x0                   	// #0
    ff600e84:	8b224816 	add	x22, x0, w2, uxtw #2
    ff600e88:	a90153f3 	stp	x19, x20, [sp, #16]
    ff600e8c:	aa0103f4 	mov	x20, x1
    ff600e90:	14000010 	b	ff600ed0 <gicv3_secure_ppi_sgi_config_props+0x70>
    ff600e94:	97fffeeb 	bl	ff600a40 <gicr_set_igrpmodr>
    ff600e98:	321e02f7 	orr	w23, w23, #0x4
    ff600e9c:	b9400282 	ldr	w2, [x20]
    ff600ea0:	2a1303e1 	mov	w1, w19
    ff600ea4:	aa1503e0 	mov	x0, x21
    ff600ea8:	d34d5042 	ubfx	x2, x2, #13, #8
    ff600eac:	97fffec5 	bl	ff6009c0 <gicr_set_ipriorityr>
    ff600eb0:	71003e7f 	cmp	w19, #0xf
    ff600eb4:	54000388 	b.hi	ff600f24 <gicv3_secure_ppi_sgi_config_props+0xc4>  // b.pmore
    ff600eb8:	2a1303e1 	mov	w1, w19
    ff600ebc:	aa1503e0 	mov	x0, x21
    ff600ec0:	97fffef8 	bl	ff600aa0 <gicr_set_isenabler>
    ff600ec4:	91001294 	add	x20, x20, #0x4
    ff600ec8:	eb16029f 	cmp	x20, x22
    ff600ecc:	54000380 	b.eq	ff600f3c <gicv3_secure_ppi_sgi_config_props+0xdc>  // b.none
    ff600ed0:	b9400293 	ldr	w19, [x20]
    ff600ed4:	aa1503e0 	mov	x0, x21
    ff600ed8:	12003273 	and	w19, w19, #0x1fff
    ff600edc:	2a1303e1 	mov	w1, w19
    ff600ee0:	71007e7f 	cmp	w19, #0x1f
    ff600ee4:	54ffff08 	b.hi	ff600ec4 <gicv3_secure_ppi_sgi_config_props+0x64>  // b.pmore
    ff600ee8:	97fffeca 	bl	ff600a10 <gicr_clr_igroupr>
    ff600eec:	b9400282 	ldr	w2, [x20]
    ff600ef0:	2a1303e1 	mov	w1, w19
    ff600ef4:	aa1503e0 	mov	x0, x21
    ff600ef8:	720b045f 	tst	w2, #0x600000
    ff600efc:	54fffcc0 	b.eq	ff600e94 <gicv3_secure_ppi_sgi_config_props+0x34>  // b.none
    ff600f00:	97fffedc 	bl	ff600a70 <gicr_clr_igrpmodr>
    ff600f04:	320002f7 	orr	w23, w23, #0x1
    ff600f08:	b9400282 	ldr	w2, [x20]
    ff600f0c:	2a1303e1 	mov	w1, w19
    ff600f10:	aa1503e0 	mov	x0, x21
    ff600f14:	d34d5042 	ubfx	x2, x2, #13, #8
    ff600f18:	97fffeaa 	bl	ff6009c0 <gicr_set_ipriorityr>
    ff600f1c:	71003e7f 	cmp	w19, #0xf
    ff600f20:	54fffcc9 	b.ls	ff600eb8 <gicv3_secure_ppi_sgi_config_props+0x58>  // b.plast
    ff600f24:	b9400282 	ldr	w2, [x20]
    ff600f28:	2a1303e1 	mov	w1, w19
    ff600f2c:	aa1503e0 	mov	x0, x21
    ff600f30:	d3576042 	ubfx	x2, x2, #23, #2
    ff600f34:	97fffef3 	bl	ff600b00 <gicr_set_icfgr>
    ff600f38:	17ffffe0 	b	ff600eb8 <gicv3_secure_ppi_sgi_config_props+0x58>
    ff600f3c:	2a1703e0 	mov	w0, w23
    ff600f40:	a94153f3 	ldp	x19, x20, [sp, #16]
    ff600f44:	a9425bf5 	ldp	x21, x22, [sp, #32]
    ff600f48:	f9401bf7 	ldr	x23, [sp, #48]
    ff600f4c:	a8c47bfd 	ldp	x29, x30, [sp], #64
    ff600f50:	d65f03c0 	ret
    ff600f54:	52800017 	mov	w23, #0x0                   	// #0
    ff600f58:	2a1703e0 	mov	w0, w23
    ff600f5c:	f9401bf7 	ldr	x23, [sp, #48]
    ff600f60:	a8c47bfd 	ldp	x29, x30, [sp], #64
    ff600f64:	d65f03c0 	ret
	...

00000000ff600f70 <gicv3_get_component_prodid_rev>:
    ff600f70:	b9400800 	ldr	w0, [x0, #8]
    ff600f74:	53187c03 	lsr	w3, w0, #24
    ff600f78:	b9000023 	str	w3, [x1]
    ff600f7c:	d34c4c00 	ubfx	x0, x0, #12, #8
    ff600f80:	39000040 	strb	w0, [x2]
    ff600f84:	d65f03c0 	ret
	...

00000000ff600f90 <gicv3_driver_init>:
    ff600f90:	a9be7bfd 	stp	x29, x30, [sp, #-32]!
    ff600f94:	d29ffd01 	mov	x1, #0xffe8                	// #65512
    ff600f98:	910003fd 	mov	x29, sp
    ff600f9c:	a90153f3 	stp	x19, x20, [sp, #16]
    ff600fa0:	aa0003f3 	mov	x19, x0
    ff600fa4:	f9400000 	ldr	x0, [x0]
    ff600fa8:	f9400662 	ldr	x2, [x19, #8]
    ff600fac:	b8616801 	ldr	w1, [x0, x1]
    ff600fb0:	b9400000 	ldr	w0, [x0]
    ff600fb4:	b50001a2 	cbnz	x2, ff600fe8 <gicv3_driver_init+0x58>
    ff600fb8:	d0000214 	adrp	x20, ff642000 <psci_ns_context+0xa00>
    ff600fbc:	d2800101 	mov	x1, #0x8                   	// #8
    ff600fc0:	9123c280 	add	x0, x20, #0x8f0
    ff600fc4:	f9047a93 	str	x19, [x20, #2288]
    ff600fc8:	9400550a 	bl	ff6163f0 <flush_dcache_range>
    ff600fcc:	f9447a80 	ldr	x0, [x20, #2288]
    ff600fd0:	d2800601 	mov	x1, #0x30                  	// #48
    ff600fd4:	94005507 	bl	ff6163f0 <flush_dcache_range>
    ff600fd8:	f9400260 	ldr	x0, [x19]
    ff600fdc:	a94153f3 	ldp	x19, x20, [sp, #16]
    ff600fe0:	a8c27bfd 	ldp	x29, x30, [sp], #32
    ff600fe4:	17fffddf 	b	ff600760 <gicv3_check_erratas_applies>
    ff600fe8:	a9420e60 	ldp	x0, x3, [x19, #32]
    ff600fec:	b9401e61 	ldr	w1, [x19, #28]
    ff600ff0:	97fffee8 	bl	ff600b90 <gicv3_rdistif_base_addrs_probe>
    ff600ff4:	f9401260 	ldr	x0, [x19, #32]
    ff600ff8:	b9401e61 	ldr	w1, [x19, #28]
    ff600ffc:	d37df021 	lsl	x1, x1, #3
    ff601000:	940054fc 	bl	ff6163f0 <flush_dcache_range>
    ff601004:	17ffffed 	b	ff600fb8 <gicv3_driver_init+0x28>
	...

00000000ff601010 <gicv3_distif_init>:
    ff601010:	a9be7bfd 	stp	x29, x30, [sp, #-32]!
    ff601014:	910003fd 	mov	x29, sp
    ff601018:	f9000bf3 	str	x19, [sp, #16]
    ff60101c:	b0000213 	adrp	x19, ff642000 <psci_ns_context+0xa00>
    ff601020:	f9447a60 	ldr	x0, [x19, #2288]
    ff601024:	f9400000 	ldr	x0, [x0]
    ff601028:	b9400001 	ldr	w1, [x0]
    ff60102c:	121d7021 	and	w1, w1, #0xfffffff8
    ff601030:	b9000001 	str	w1, [x0]
    ff601034:	d503201f 	nop
    ff601038:	b9400001 	ldr	w1, [x0]
    ff60103c:	37ffffe1 	tbnz	w1, #31, ff601038 <gicv3_distif_init+0x28>
    ff601040:	b9400001 	ldr	w1, [x0]
    ff601044:	321c0421 	orr	w1, w1, #0x30
    ff601048:	b9000001 	str	w1, [x0]
    ff60104c:	d503201f 	nop
    ff601050:	b9400001 	ldr	w1, [x0]
    ff601054:	37ffffe1 	tbnz	w1, #31, ff601050 <gicv3_distif_init+0x40>
    ff601058:	97fffef2 	bl	ff600c20 <gicv3_spis_config_defaults>
    ff60105c:	f9447a62 	ldr	x2, [x19, #2288]
    ff601060:	f9400040 	ldr	x0, [x2]
    ff601064:	f9400841 	ldr	x1, [x2, #16]
    ff601068:	b9401842 	ldr	w2, [x2, #24]
    ff60106c:	97ffff19 	bl	ff600cd0 <gicv3_secure_spis_config_props>
    ff601070:	f9447a61 	ldr	x1, [x19, #2288]
    ff601074:	f9400021 	ldr	x1, [x1]
    ff601078:	b9400022 	ldr	w2, [x1]
    ff60107c:	2a020000 	orr	w0, w0, w2
    ff601080:	b9000020 	str	w0, [x1]
    ff601084:	d503201f 	nop
    ff601088:	b9400020 	ldr	w0, [x1]
    ff60108c:	37ffffe0 	tbnz	w0, #31, ff601088 <gicv3_distif_init+0x78>
    ff601090:	f9400bf3 	ldr	x19, [sp, #16]
    ff601094:	a8c27bfd 	ldp	x29, x30, [sp], #32
    ff601098:	d65f03c0 	ret
    ff60109c:	00000000 	udf	#0

00000000ff6010a0 <gicv3_rdistif_init>:
    ff6010a0:	a9bd7bfd 	stp	x29, x30, [sp, #-48]!
    ff6010a4:	910003fd 	mov	x29, sp
    ff6010a8:	a90153f3 	stp	x19, x20, [sp, #16]
    ff6010ac:	b0000213 	adrp	x19, ff642000 <psci_ns_context+0xa00>
    ff6010b0:	2a0003f4 	mov	w20, w0
    ff6010b4:	f9447a61 	ldr	x1, [x19, #2288]
    ff6010b8:	f9400021 	ldr	x1, [x1]
    ff6010bc:	f90013f5 	str	x21, [sp, #32]
    ff6010c0:	b9400035 	ldr	w21, [x1]
    ff6010c4:	97fffda3 	bl	ff600750 <gicv3_rdistif_on>
    ff6010c8:	f9447a60 	ldr	x0, [x19, #2288]
    ff6010cc:	f9401000 	ldr	x0, [x0, #32]
    ff6010d0:	f8745814 	ldr	x20, [x0, w20, uxtw #3]
    ff6010d4:	aa1403e0 	mov	x0, x20
    ff6010d8:	97ffff42 	bl	ff600de0 <gicv3_ppi_sgi_config_defaults>
    ff6010dc:	f9447a62 	ldr	x2, [x19, #2288]
    ff6010e0:	aa1403e0 	mov	x0, x20
    ff6010e4:	f9400841 	ldr	x1, [x2, #16]
    ff6010e8:	b9401842 	ldr	w2, [x2, #24]
    ff6010ec:	97ffff5d 	bl	ff600e60 <gicv3_secure_ppi_sgi_config_props>
    ff6010f0:	6a35001f 	bics	wzr, w0, w21
    ff6010f4:	54000120 	b.eq	ff601118 <gicv3_rdistif_init+0x78>  // b.none
    ff6010f8:	f9447a61 	ldr	x1, [x19, #2288]
    ff6010fc:	f9400021 	ldr	x1, [x1]
    ff601100:	b9400022 	ldr	w2, [x1]
    ff601104:	2a020000 	orr	w0, w0, w2
    ff601108:	b9000020 	str	w0, [x1]
    ff60110c:	d503201f 	nop
    ff601110:	b9400020 	ldr	w0, [x1]
    ff601114:	37ffffe0 	tbnz	w0, #31, ff601110 <gicv3_rdistif_init+0x70>
    ff601118:	a94153f3 	ldp	x19, x20, [sp, #16]
    ff60111c:	f94013f5 	ldr	x21, [sp, #32]
    ff601120:	a8c37bfd 	ldp	x29, x30, [sp], #48
    ff601124:	d65f03c0 	ret
	...

00000000ff601130 <gicv3_cpuif_enable>:
    ff601130:	a9bf7bfd 	stp	x29, x30, [sp, #-16]!
    ff601134:	b0000201 	adrp	x1, ff642000 <psci_ns_context+0xa00>
    ff601138:	910003fd 	mov	x29, sp
    ff60113c:	f9447821 	ldr	x1, [x1, #2288]
    ff601140:	f9401021 	ldr	x1, [x1, #32]
    ff601144:	f8605820 	ldr	x0, [x1, w0, uxtw #3]
    ff601148:	97fffe82 	bl	ff600b50 <gicv3_rdistif_mark_core_awake>
    ff60114c:	d53ecca0 	mrs	x0, icc_sre_el3
    ff601150:	b2400c00 	orr	x0, x0, #0xf
    ff601154:	d51ecca0 	msr	icc_sre_el3, x0
    ff601158:	d53e1100 	mrs	x0, scr_el3
    ff60115c:	b2400001 	orr	x1, x0, #0x1
    ff601160:	d51e1101 	msr	scr_el3, x1
    ff601164:	d5033fdf 	isb
    ff601168:	d53cc9a1 	mrs	x1, icc_sre_el2
    ff60116c:	b2400c21 	orr	x1, x1, #0xf
    ff601170:	d51cc9a1 	msr	icc_sre_el2, x1
    ff601174:	d2800021 	mov	x1, #0x1                   	// #1
    ff601178:	d518cca1 	msr	icc_sre_el1, x1
    ff60117c:	d5033fdf 	isb
    ff601180:	927ff802 	and	x2, x0, #0xfffffffffffffffe
    ff601184:	d51e1102 	msr	scr_el3, x2
    ff601188:	d5033fdf 	isb
    ff60118c:	d518cca1 	msr	icc_sre_el1, x1
    ff601190:	d5033fdf 	isb
    ff601194:	d2801fe2 	mov	x2, #0xff                  	// #255
    ff601198:	d5184602 	msr	icc_pmr_el1, x2
    ff60119c:	d518ccc1 	msr	icc_igrpen0_el1, x1
    ff6011a0:	d53ecce1 	mrs	x1, icc_igrpen1_el3
    ff6011a4:	b27f0021 	orr	x1, x1, #0x2
    ff6011a8:	d51ecce1 	msr	icc_igrpen1_el3, x1
    ff6011ac:	d51e1100 	msr	scr_el3, x0
    ff6011b0:	d5033fdf 	isb
    ff6011b4:	d5033f9f 	dsb	sy
    ff6011b8:	a8c17bfd 	ldp	x29, x30, [sp], #16
    ff6011bc:	d65f03c0 	ret

00000000ff6011c0 <gicv3_cpuif_disable>:
    ff6011c0:	d53ecca1 	mrs	x1, icc_sre_el3
    ff6011c4:	b27f0421 	orr	x1, x1, #0x6
    ff6011c8:	d51ecca1 	msr	icc_sre_el3, x1
    ff6011cc:	d538ccc1 	mrs	x1, icc_igrpen0_el1
    ff6011d0:	927f7821 	and	x1, x1, #0xfffffffe
    ff6011d4:	d518ccc1 	msr	icc_igrpen0_el1, x1
    ff6011d8:	d53ecce1 	mrs	x1, icc_igrpen1_el3
    ff6011dc:	927e7421 	and	x1, x1, #0xfffffffc
    ff6011e0:	d51ecce1 	msr	icc_igrpen1_el3, x1
    ff6011e4:	d5033fdf 	isb
    ff6011e8:	d5033f9f 	dsb	sy
    ff6011ec:	b0000201 	adrp	x1, ff642000 <psci_ns_context+0xa00>
    ff6011f0:	f9447821 	ldr	x1, [x1, #2288]
    ff6011f4:	f9401021 	ldr	x1, [x1, #32]
    ff6011f8:	f8605820 	ldr	x0, [x1, w0, uxtw #3]
    ff6011fc:	17fffe5d 	b	ff600b70 <gicv3_rdistif_mark_core_asleep>

00000000ff601200 <gicv3_get_pending_interrupt_id>:
    ff601200:	d538c840 	mrs	x0, icc_hppir0_el1
    ff601204:	12005c00 	and	w0, w0, #0xffffff
    ff601208:	510ff001 	sub	w1, w0, #0x3fc
    ff60120c:	7100043f 	cmp	w1, #0x1
    ff601210:	54000049 	b.ls	ff601218 <gicv3_get_pending_interrupt_id+0x18>  // b.plast
    ff601214:	d65f03c0 	ret
    ff601218:	d538cc40 	mrs	x0, icc_hppir1_el1
    ff60121c:	12005c00 	and	w0, w0, #0xffffff
    ff601220:	d65f03c0 	ret
	...

00000000ff601230 <gicv3_get_pending_interrupt_type>:
    ff601230:	d538c840 	mrs	x0, icc_hppir0_el1
    ff601234:	12005c00 	and	w0, w0, #0xffffff
    ff601238:	d65f03c0 	ret
    ff60123c:	00000000 	udf	#0

00000000ff601240 <gicv3_rdistif_save>:
    ff601240:	b0000202 	adrp	x2, ff642000 <psci_ns_context+0xa00>
    ff601244:	f9447842 	ldr	x2, [x2, #2288]
    ff601248:	f9401042 	ldr	x2, [x2, #32]
    ff60124c:	f8605843 	ldr	x3, [x2, w0, uxtw #3]
    ff601250:	b9400062 	ldr	w2, [x3]
    ff601254:	371fffe2 	tbnz	w2, #3, ff601250 <gicv3_rdistif_save+0x10>
    ff601258:	b9400062 	ldr	w2, [x3]
    ff60125c:	d2801004 	mov	x4, #0x80                  	// #128
    ff601260:	f9403865 	ldr	x5, [x3, #112]
    ff601264:	f2a00024 	movk	x4, #0x1, lsl #16
    ff601268:	f9000025 	str	x5, [x1]
    ff60126c:	d2804005 	mov	x5, #0x200                 	// #512
    ff601270:	b9001022 	str	w2, [x1, #16]
    ff601274:	d2802002 	mov	x2, #0x100                 	// #256
    ff601278:	f9403c6b 	ldr	x11, [x3, #120]
    ff60127c:	f2a00022 	movk	x2, #0x1, lsl #16
    ff601280:	b8646864 	ldr	w4, [x3, x4]
    ff601284:	f2a00025 	movk	x5, #0x1, lsl #16
    ff601288:	b9001424 	str	w4, [x1, #20]
    ff60128c:	d280600a 	mov	x10, #0x300                 	// #768
    ff601290:	f2a0002a 	movk	x10, #0x1, lsl #16
    ff601294:	d281a009 	mov	x9, #0xd00                 	// #3328
    ff601298:	b8626862 	ldr	w2, [x3, x2]
    ff60129c:	f2a00029 	movk	x9, #0x1, lsl #16
    ff6012a0:	b9001822 	str	w2, [x1, #24]
    ff6012a4:	d2818008 	mov	x8, #0xc00                 	// #3072
    ff6012a8:	f2a00028 	movk	x8, #0x1, lsl #16
    ff6012ac:	d2818087 	mov	x7, #0xc04                 	// #3076
    ff6012b0:	b865686c 	ldr	w12, [x3, x5]
    ff6012b4:	f2a00027 	movk	x7, #0x1, lsl #16
    ff6012b8:	b9001c2c 	str	w12, [x1, #28]
    ff6012bc:	d281c006 	mov	x6, #0xe00                 	// #3584
    ff6012c0:	cb030024 	sub	x4, x1, x3
    ff6012c4:	f2a00026 	movk	x6, #0x1, lsl #16
    ff6012c8:	b86a686a 	ldr	w10, [x3, x10]
    ff6012cc:	91404062 	add	x2, x3, #0x10, lsl #12
    ff6012d0:	b900202a 	str	w10, [x1, #32]
    ff6012d4:	91404065 	add	x5, x3, #0x10, lsl #12
    ff6012d8:	d1404084 	sub	x4, x4, #0x10, lsl #12
    ff6012dc:	91100042 	add	x2, x2, #0x400
    ff6012e0:	b8696869 	ldr	w9, [x3, x9]
    ff6012e4:	d10f7084 	sub	x4, x4, #0x3dc
    ff6012e8:	b9004c29 	str	w9, [x1, #76]
    ff6012ec:	911080a5 	add	x5, x5, #0x420
    ff6012f0:	f900042b 	str	x11, [x1, #8]
    ff6012f4:	b8686868 	ldr	w8, [x3, x8]
    ff6012f8:	b9004428 	str	w8, [x1, #68]
    ff6012fc:	b8676867 	ldr	w7, [x3, x7]
    ff601300:	b9004827 	str	w7, [x1, #72]
    ff601304:	b8666863 	ldr	w3, [x3, x6]
    ff601308:	b9005023 	str	w3, [x1, #80]
    ff60130c:	d503201f 	nop
    ff601310:	b9400041 	ldr	w1, [x2]
    ff601314:	b8226881 	str	w1, [x4, x2]
    ff601318:	91001042 	add	x2, x2, #0x4
    ff60131c:	eb05005f 	cmp	x2, x5
    ff601320:	54ffff81 	b.ne	ff601310 <gicv3_rdistif_save+0xd0>  // b.any
    ff601324:	17fffd03 	b	ff600730 <gicv3_distif_pre_save>
	...

00000000ff601330 <gicv3_rdistif_init_restore>:
    ff601330:	a9bd7bfd 	stp	x29, x30, [sp, #-48]!
    ff601334:	b0000202 	adrp	x2, ff642000 <psci_ns_context+0xa00>
    ff601338:	910003fd 	mov	x29, sp
    ff60133c:	f9447842 	ldr	x2, [x2, #2288]
    ff601340:	a90153f3 	stp	x19, x20, [sp, #16]
    ff601344:	aa0103f4 	mov	x20, x1
    ff601348:	f9401041 	ldr	x1, [x2, #32]
    ff60134c:	f90013f5 	str	x21, [sp, #32]
    ff601350:	2a0003f5 	mov	w21, w0
    ff601354:	f8755833 	ldr	x19, [x1, w21, uxtw #3]
    ff601358:	97fffcfe 	bl	ff600750 <gicv3_rdistif_on>
    ff60135c:	2a1503e0 	mov	w0, w21
    ff601360:	97fffcf8 	bl	ff600740 <gicv3_distif_post_restore>
    ff601364:	d2803000 	mov	x0, #0x180                 	// #384
    ff601368:	12800001 	mov	w1, #0xffffffff            	// #-1
    ff60136c:	f2a00020 	movk	x0, #0x1, lsl #16
    ff601370:	b8206a61 	str	w1, [x19, x0]
    ff601374:	d503201f 	nop
    ff601378:	b9400260 	ldr	w0, [x19]
    ff60137c:	371fffe0 	tbnz	w0, #3, ff601378 <gicv3_rdistif_init_restore+0x48>
    ff601380:	b9401280 	ldr	w0, [x20, #16]
    ff601384:	d2801003 	mov	x3, #0x80                  	// #128
    ff601388:	f9400282 	ldr	x2, [x20]
    ff60138c:	121f7800 	and	w0, w0, #0xfffffffe
    ff601390:	b9000260 	str	w0, [x19]
    ff601394:	f2a00023 	movk	x3, #0x1, lsl #16
    ff601398:	f9003a62 	str	x2, [x19, #112]
    ff60139c:	d281a001 	mov	x1, #0xd00                 	// #3328
    ff6013a0:	b9401680 	ldr	w0, [x20, #20]
    ff6013a4:	cb130282 	sub	x2, x20, x19
    ff6013a8:	f9400684 	ldr	x4, [x20, #8]
    ff6013ac:	f9003e64 	str	x4, [x19, #120]
    ff6013b0:	b8236a60 	str	w0, [x19, x3]
    ff6013b4:	d1404042 	sub	x2, x2, #0x10, lsl #12
    ff6013b8:	91404260 	add	x0, x19, #0x10, lsl #12
    ff6013bc:	91404263 	add	x3, x19, #0x10, lsl #12
    ff6013c0:	f2a00021 	movk	x1, #0x1, lsl #16
    ff6013c4:	b9404e84 	ldr	w4, [x20, #76]
    ff6013c8:	d10f7042 	sub	x2, x2, #0x3dc
    ff6013cc:	91100000 	add	x0, x0, #0x400
    ff6013d0:	91108063 	add	x3, x3, #0x420
    ff6013d4:	b8216a64 	str	w4, [x19, x1]
    ff6013d8:	b8606841 	ldr	w1, [x2, x0]
    ff6013dc:	b8004401 	str	w1, [x0], #4
    ff6013e0:	eb03001f 	cmp	x0, x3
    ff6013e4:	54ffffa1 	b.ne	ff6013d8 <gicv3_rdistif_init_restore+0xa8>  // b.any
    ff6013e8:	d2818000 	mov	x0, #0xc00                 	// #3072
    ff6013ec:	b9404681 	ldr	w1, [x20, #68]
    ff6013f0:	f2a00020 	movk	x0, #0x1, lsl #16
    ff6013f4:	d2818083 	mov	x3, #0xc04                 	// #3076
    ff6013f8:	f2a00023 	movk	x3, #0x1, lsl #16
    ff6013fc:	d281c002 	mov	x2, #0xe00                 	// #3584
    ff601400:	b8206a61 	str	w1, [x19, x0]
    ff601404:	f2a00022 	movk	x2, #0x1, lsl #16
    ff601408:	d2804001 	mov	x1, #0x200                 	// #512
    ff60140c:	d1240000 	sub	x0, x0, #0x900
    ff601410:	b9404a84 	ldr	w4, [x20, #72]
    ff601414:	f2a00021 	movk	x1, #0x1, lsl #16
    ff601418:	b8236a64 	str	w4, [x19, x3]
    ff60141c:	b9405283 	ldr	w3, [x20, #80]
    ff601420:	b8226a63 	str	w3, [x19, x2]
    ff601424:	b9401e82 	ldr	w2, [x20, #28]
    ff601428:	b8216a62 	str	w2, [x19, x1]
    ff60142c:	b9402281 	ldr	w1, [x20, #32]
    ff601430:	b8206a61 	str	w1, [x19, x0]
    ff601434:	d503201f 	nop
    ff601438:	b9400260 	ldr	w0, [x19]
    ff60143c:	37ffffe0 	tbnz	w0, #31, ff601438 <gicv3_rdistif_init_restore+0x108>
    ff601440:	d2802000 	mov	x0, #0x100                 	// #256
    ff601444:	b9401a81 	ldr	w1, [x20, #24]
    ff601448:	f2a00020 	movk	x0, #0x1, lsl #16
    ff60144c:	b8206a61 	str	w1, [x19, x0]
    ff601450:	b9401280 	ldr	w0, [x20, #16]
    ff601454:	b9000260 	str	w0, [x19]
    ff601458:	b9400260 	ldr	w0, [x19]
    ff60145c:	371fffe0 	tbnz	w0, #3, ff601458 <gicv3_rdistif_init_restore+0x128>
    ff601460:	a94153f3 	ldp	x19, x20, [sp, #16]
    ff601464:	f94013f5 	ldr	x21, [sp, #32]
    ff601468:	a8c37bfd 	ldp	x29, x30, [sp], #48
    ff60146c:	d65f03c0 	ret

00000000ff601470 <gicv3_distif_save>:
    ff601470:	a9bd7bfd 	stp	x29, x30, [sp, #-48]!
    ff601474:	b0000201 	adrp	x1, ff642000 <psci_ns_context+0xa00>
    ff601478:	910003fd 	mov	x29, sp
    ff60147c:	a90153f3 	stp	x19, x20, [sp, #16]
    ff601480:	aa0003f4 	mov	x20, x0
    ff601484:	f9447820 	ldr	x0, [x1, #2288]
    ff601488:	a9025bf5 	stp	x21, x22, [sp, #32]
    ff60148c:	f9400013 	ldr	x19, [x0]
    ff601490:	aa1303e0 	mov	x0, x19
    ff601494:	97fffddb 	bl	ff600c00 <gicv3_get_spi_limit>
    ff601498:	2a0003f5 	mov	w21, w0
    ff60149c:	d503201f 	nop
    ff6014a0:	b9400260 	ldr	w0, [x19]
    ff6014a4:	37ffffe0 	tbnz	w0, #31, ff6014a0 <gicv3_distif_save+0x30>
    ff6014a8:	b9400260 	ldr	w0, [x19]
    ff6014ac:	52800416 	mov	w22, #0x20                  	// #32
    ff6014b0:	b91ee280 	str	w0, [x20, #7904]
    ff6014b4:	6b1602bf 	cmp	w21, w22
    ff6014b8:	54000d89 	b.ls	ff601668 <gicv3_distif_save+0x1f8>  // b.plast
    ff6014bc:	d503201f 	nop
    ff6014c0:	2a1603e1 	mov	w1, w22
    ff6014c4:	aa1303e0 	mov	x0, x19
    ff6014c8:	97fffcfe 	bl	ff6008c0 <gicd_read_igroupr>
    ff6014cc:	510082c2 	sub	w2, w22, #0x20
    ff6014d0:	110082d6 	add	w22, w22, #0x20
    ff6014d4:	53057c42 	lsr	w2, w2, #5
    ff6014d8:	8b020a82 	add	x2, x20, x2, lsl #2
    ff6014dc:	b91ee440 	str	w0, [x2, #7908]
    ff6014e0:	6b1602bf 	cmp	w21, w22
    ff6014e4:	54fffee8 	b.hi	ff6014c0 <gicv3_distif_save+0x50>  // b.pmore
    ff6014e8:	52800416 	mov	w22, #0x20                  	// #32
    ff6014ec:	d503201f 	nop
    ff6014f0:	2a1603e1 	mov	w1, w22
    ff6014f4:	aa1303e0 	mov	x0, x19
    ff6014f8:	97fffd12 	bl	ff600940 <gicd_read_isenabler>
    ff6014fc:	510082c2 	sub	w2, w22, #0x20
    ff601500:	110082d6 	add	w22, w22, #0x20
    ff601504:	53057c42 	lsr	w2, w2, #5
    ff601508:	911f6042 	add	x2, x2, #0x7d8
    ff60150c:	b8227a80 	str	w0, [x20, x2, lsl #2]
    ff601510:	6b1602bf 	cmp	w21, w22
    ff601514:	54fffee8 	b.hi	ff6014f0 <gicv3_distif_save+0x80>  // b.pmore
    ff601518:	52800416 	mov	w22, #0x20                  	// #32
    ff60151c:	d503201f 	nop
    ff601520:	2a1603e1 	mov	w1, w22
    ff601524:	aa1303e0 	mov	x0, x19
    ff601528:	97fffd0e 	bl	ff600960 <gicd_read_ispendr>
    ff60152c:	510082c2 	sub	w2, w22, #0x20
    ff601530:	110082d6 	add	w22, w22, #0x20
    ff601534:	53057c42 	lsr	w2, w2, #5
    ff601538:	8b020a82 	add	x2, x20, x2, lsl #2
    ff60153c:	b91fdc40 	str	w0, [x2, #8156]
    ff601540:	6b1602bf 	cmp	w21, w22
    ff601544:	54fffee8 	b.hi	ff601520 <gicv3_distif_save+0xb0>  // b.pmore
    ff601548:	52800416 	mov	w22, #0x20                  	// #32
    ff60154c:	d503201f 	nop
    ff601550:	2a1603e1 	mov	w1, w22
    ff601554:	aa1303e0 	mov	x0, x19
    ff601558:	97fffcf2 	bl	ff600920 <gicd_read_isactiver>
    ff60155c:	510082c2 	sub	w2, w22, #0x20
    ff601560:	110082d6 	add	w22, w22, #0x20
    ff601564:	53057c42 	lsr	w2, w2, #5
    ff601568:	8b020a82 	add	x2, x20, x2, lsl #2
    ff60156c:	b9205840 	str	w0, [x2, #8280]
    ff601570:	6b1602bf 	cmp	w21, w22
    ff601574:	54fffee8 	b.hi	ff601550 <gicv3_distif_save+0xe0>  // b.pmore
    ff601578:	52800416 	mov	w22, #0x20                  	// #32
    ff60157c:	d503201f 	nop
    ff601580:	2a1603e1 	mov	w1, w22
    ff601584:	aa1303e0 	mov	x0, x19
    ff601588:	97fffcde 	bl	ff600900 <gicd_read_ipriorityr>
    ff60158c:	510082c2 	sub	w2, w22, #0x20
    ff601590:	110012d6 	add	w22, w22, #0x4
    ff601594:	927e7442 	and	x2, x2, #0xfffffffc
    ff601598:	8b020282 	add	x2, x20, x2
    ff60159c:	b920d440 	str	w0, [x2, #8404]
    ff6015a0:	6b1602bf 	cmp	w21, w22
    ff6015a4:	54fffee8 	b.hi	ff601580 <gicv3_distif_save+0x110>  // b.pmore
    ff6015a8:	52800416 	mov	w22, #0x20                  	// #32
    ff6015ac:	d503201f 	nop
    ff6015b0:	2a1603e1 	mov	w1, w22
    ff6015b4:	aa1303e0 	mov	x0, x19
    ff6015b8:	97fffcba 	bl	ff6008a0 <gicd_read_icfgr>
    ff6015bc:	510082c2 	sub	w2, w22, #0x20
    ff6015c0:	110042d6 	add	w22, w22, #0x10
    ff6015c4:	53047c42 	lsr	w2, w2, #4
    ff6015c8:	9124b042 	add	x2, x2, #0x92c
    ff6015cc:	b8227a80 	str	w0, [x20, x2, lsl #2]
    ff6015d0:	6b1602bf 	cmp	w21, w22
    ff6015d4:	54fffee8 	b.hi	ff6015b0 <gicv3_distif_save+0x140>  // b.pmore
    ff6015d8:	52800416 	mov	w22, #0x20                  	// #32
    ff6015dc:	d503201f 	nop
    ff6015e0:	2a1603e1 	mov	w1, w22
    ff6015e4:	aa1303e0 	mov	x0, x19
    ff6015e8:	97fffcbe 	bl	ff6008e0 <gicd_read_igrpmodr>
    ff6015ec:	510082c2 	sub	w2, w22, #0x20
    ff6015f0:	110082d6 	add	w22, w22, #0x20
    ff6015f4:	53057c42 	lsr	w2, w2, #5
    ff6015f8:	8b020a82 	add	x2, x20, x2, lsl #2
    ff6015fc:	b925a840 	str	w0, [x2, #9640]
    ff601600:	6b1602bf 	cmp	w21, w22
    ff601604:	54fffee8 	b.hi	ff6015e0 <gicv3_distif_save+0x170>  // b.pmore
    ff601608:	52800416 	mov	w22, #0x20                  	// #32
    ff60160c:	d503201f 	nop
    ff601610:	2a1603e1 	mov	w1, w22
    ff601614:	aa1303e0 	mov	x0, x19
    ff601618:	97fffcda 	bl	ff600980 <gicd_read_nsacr>
    ff60161c:	510082c2 	sub	w2, w22, #0x20
    ff601620:	110042d6 	add	w22, w22, #0x10
    ff601624:	53047c42 	lsr	w2, w2, #4
    ff601628:	8b020a82 	add	x2, x20, x2, lsl #2
    ff60162c:	b9262440 	str	w0, [x2, #9764]
    ff601630:	6b1602bf 	cmp	w21, w22
    ff601634:	54fffee8 	b.hi	ff601610 <gicv3_distif_save+0x1a0>  // b.pmore
    ff601638:	cb130294 	sub	x20, x20, x19
    ff60163c:	d28c2000 	mov	x0, #0x6100                	// #24832
    ff601640:	928c1fe1 	mov	x1, #0xffffffffffff9f00    	// #-24832
    ff601644:	8b010294 	add	x20, x20, x1
    ff601648:	8b000273 	add	x19, x19, x0
    ff60164c:	52800400 	mov	w0, #0x20                  	// #32
    ff601650:	f9400261 	ldr	x1, [x19]
    ff601654:	11000400 	add	w0, w0, #0x1
    ff601658:	f8336a81 	str	x1, [x20, x19]
    ff60165c:	91002273 	add	x19, x19, #0x8
    ff601660:	6b0002bf 	cmp	w21, w0
    ff601664:	54ffff68 	b.hi	ff601650 <gicv3_distif_save+0x1e0>  // b.pmore
    ff601668:	a94153f3 	ldp	x19, x20, [sp, #16]
    ff60166c:	a9425bf5 	ldp	x21, x22, [sp, #32]
    ff601670:	a8c37bfd 	ldp	x29, x30, [sp], #48
    ff601674:	d65f03c0 	ret
	...

00000000ff601680 <gicv3_distif_init_restore>:
    ff601680:	a9bd7bfd 	stp	x29, x30, [sp, #-48]!
    ff601684:	b0000201 	adrp	x1, ff642000 <psci_ns_context+0xa00>
    ff601688:	910003fd 	mov	x29, sp
    ff60168c:	a90153f3 	stp	x19, x20, [sp, #16]
    ff601690:	aa0003f4 	mov	x20, x0
    ff601694:	f9447820 	ldr	x0, [x1, #2288]
    ff601698:	a9025bf5 	stp	x21, x22, [sp, #32]
    ff60169c:	f9400013 	ldr	x19, [x0]
    ff6016a0:	b9400260 	ldr	w0, [x19]
    ff6016a4:	121d7000 	and	w0, w0, #0xfffffff8
    ff6016a8:	b9000260 	str	w0, [x19]
    ff6016ac:	d503201f 	nop
    ff6016b0:	b9400260 	ldr	w0, [x19]
    ff6016b4:	37ffffe0 	tbnz	w0, #31, ff6016b0 <gicv3_distif_init_restore+0x30>
    ff6016b8:	b9400260 	ldr	w0, [x19]
    ff6016bc:	321c0400 	orr	w0, w0, #0x30
    ff6016c0:	b9000260 	str	w0, [x19]
    ff6016c4:	d503201f 	nop
    ff6016c8:	b9400260 	ldr	w0, [x19]
    ff6016cc:	37ffffe0 	tbnz	w0, #31, ff6016c8 <gicv3_distif_init_restore+0x48>
    ff6016d0:	aa1303e0 	mov	x0, x19
    ff6016d4:	52800416 	mov	w22, #0x20                  	// #32
    ff6016d8:	97fffd4a 	bl	ff600c00 <gicv3_get_spi_limit>
    ff6016dc:	2a0003f5 	mov	w21, w0
    ff6016e0:	6b16001f 	cmp	w0, w22
    ff6016e4:	54000da9 	b.ls	ff601898 <gicv3_distif_init_restore+0x218>  // b.plast
    ff6016e8:	510082c2 	sub	w2, w22, #0x20
    ff6016ec:	2a1603e1 	mov	w1, w22
    ff6016f0:	aa1303e0 	mov	x0, x19
    ff6016f4:	110082d6 	add	w22, w22, #0x20
    ff6016f8:	53057c42 	lsr	w2, w2, #5
    ff6016fc:	8b020a82 	add	x2, x20, x2, lsl #2
    ff601700:	b95ee442 	ldr	w2, [x2, #7908]
    ff601704:	97fffc73 	bl	ff6008d0 <gicd_write_igroupr>
    ff601708:	6b1602bf 	cmp	w21, w22
    ff60170c:	54fffee8 	b.hi	ff6016e8 <gicv3_distif_init_restore+0x68>  // b.pmore
    ff601710:	52800416 	mov	w22, #0x20                  	// #32
    ff601714:	d503201f 	nop
    ff601718:	510082c2 	sub	w2, w22, #0x20
    ff60171c:	2a1603e1 	mov	w1, w22
    ff601720:	927e7442 	and	x2, x2, #0xfffffffc
    ff601724:	110012d6 	add	w22, w22, #0x4
    ff601728:	8b020282 	add	x2, x20, x2
    ff60172c:	aa1303e0 	mov	x0, x19
    ff601730:	b960d442 	ldr	w2, [x2, #8404]
    ff601734:	97fffc77 	bl	ff600910 <gicd_write_ipriorityr>
    ff601738:	6b1602bf 	cmp	w21, w22
    ff60173c:	54fffee8 	b.hi	ff601718 <gicv3_distif_init_restore+0x98>  // b.pmore
    ff601740:	52800416 	mov	w22, #0x20                  	// #32
    ff601744:	d503201f 	nop
    ff601748:	510082c2 	sub	w2, w22, #0x20
    ff60174c:	2a1603e1 	mov	w1, w22
    ff601750:	aa1303e0 	mov	x0, x19
    ff601754:	110042d6 	add	w22, w22, #0x10
    ff601758:	53047c42 	lsr	w2, w2, #4
    ff60175c:	9124b042 	add	x2, x2, #0x92c
    ff601760:	b8627a82 	ldr	w2, [x20, x2, lsl #2]
    ff601764:	97fffc53 	bl	ff6008b0 <gicd_write_icfgr>
    ff601768:	6b1602bf 	cmp	w21, w22
    ff60176c:	54fffee8 	b.hi	ff601748 <gicv3_distif_init_restore+0xc8>  // b.pmore
    ff601770:	52800416 	mov	w22, #0x20                  	// #32
    ff601774:	d503201f 	nop
    ff601778:	510082c2 	sub	w2, w22, #0x20
    ff60177c:	2a1603e1 	mov	w1, w22
    ff601780:	aa1303e0 	mov	x0, x19
    ff601784:	110082d6 	add	w22, w22, #0x20
    ff601788:	53057c42 	lsr	w2, w2, #5
    ff60178c:	8b020a82 	add	x2, x20, x2, lsl #2
    ff601790:	b965a842 	ldr	w2, [x2, #9640]
    ff601794:	97fffc57 	bl	ff6008f0 <gicd_write_igrpmodr>
    ff601798:	6b1602bf 	cmp	w21, w22
    ff60179c:	54fffee8 	b.hi	ff601778 <gicv3_distif_init_restore+0xf8>  // b.pmore
    ff6017a0:	52800416 	mov	w22, #0x20                  	// #32
    ff6017a4:	d503201f 	nop
    ff6017a8:	510082c2 	sub	w2, w22, #0x20
    ff6017ac:	2a1603e1 	mov	w1, w22
    ff6017b0:	aa1303e0 	mov	x0, x19
    ff6017b4:	110042d6 	add	w22, w22, #0x10
    ff6017b8:	53047c42 	lsr	w2, w2, #4
    ff6017bc:	8b020a82 	add	x2, x20, x2, lsl #2
    ff6017c0:	b9662442 	ldr	w2, [x2, #9764]
    ff6017c4:	97fffc73 	bl	ff600990 <gicd_write_nsacr>
    ff6017c8:	6b1602bf 	cmp	w21, w22
    ff6017cc:	54fffee8 	b.hi	ff6017a8 <gicv3_distif_init_restore+0x128>  // b.pmore
    ff6017d0:	510086a3 	sub	w3, w21, #0x21
    ff6017d4:	d28c2100 	mov	x0, #0x6108                	// #24840
    ff6017d8:	cb130282 	sub	x2, x20, x19
    ff6017dc:	8b000261 	add	x1, x19, x0
    ff6017e0:	d28c2004 	mov	x4, #0x6100                	// #24832
    ff6017e4:	928c1fe5 	mov	x5, #0xffffffffffff9f00    	// #-24832
    ff6017e8:	8b040260 	add	x0, x19, x4
    ff6017ec:	8b234c23 	add	x3, x1, w3, uxtw #3
    ff6017f0:	8b050042 	add	x2, x2, x5
    ff6017f4:	d503201f 	nop
    ff6017f8:	f8606841 	ldr	x1, [x2, x0]
    ff6017fc:	f8008401 	str	x1, [x0], #8
    ff601800:	eb00007f 	cmp	x3, x0
    ff601804:	54ffffa1 	b.ne	ff6017f8 <gicv3_distif_init_restore+0x178>  // b.any
    ff601808:	52800416 	mov	w22, #0x20                  	// #32
    ff60180c:	d503201f 	nop
    ff601810:	510082c2 	sub	w2, w22, #0x20
    ff601814:	2a1603e1 	mov	w1, w22
    ff601818:	aa1303e0 	mov	x0, x19
    ff60181c:	110082d6 	add	w22, w22, #0x20
    ff601820:	53057c42 	lsr	w2, w2, #5
    ff601824:	911f6042 	add	x2, x2, #0x7d8
    ff601828:	b8627a82 	ldr	w2, [x20, x2, lsl #2]
    ff60182c:	97fffc49 	bl	ff600950 <gicd_write_isenabler>
    ff601830:	6b1602bf 	cmp	w21, w22
    ff601834:	54fffee8 	b.hi	ff601810 <gicv3_distif_init_restore+0x190>  // b.pmore
    ff601838:	52800416 	mov	w22, #0x20                  	// #32
    ff60183c:	d503201f 	nop
    ff601840:	510082c2 	sub	w2, w22, #0x20
    ff601844:	2a1603e1 	mov	w1, w22
    ff601848:	aa1303e0 	mov	x0, x19
    ff60184c:	110082d6 	add	w22, w22, #0x20
    ff601850:	53057c42 	lsr	w2, w2, #5
    ff601854:	8b020a82 	add	x2, x20, x2, lsl #2
    ff601858:	b95fdc42 	ldr	w2, [x2, #8156]
    ff60185c:	97fffc45 	bl	ff600970 <gicd_write_ispendr>
    ff601860:	6b1602bf 	cmp	w21, w22
    ff601864:	54fffee8 	b.hi	ff601840 <gicv3_distif_init_restore+0x1c0>  // b.pmore
    ff601868:	52800416 	mov	w22, #0x20                  	// #32
    ff60186c:	d503201f 	nop
    ff601870:	510082c2 	sub	w2, w22, #0x20
    ff601874:	2a1603e1 	mov	w1, w22
    ff601878:	aa1303e0 	mov	x0, x19
    ff60187c:	110082d6 	add	w22, w22, #0x20
    ff601880:	53057c42 	lsr	w2, w2, #5
    ff601884:	8b020a82 	add	x2, x20, x2, lsl #2
    ff601888:	b9605842 	ldr	w2, [x2, #8280]
    ff60188c:	97fffc29 	bl	ff600930 <gicd_write_isactiver>
    ff601890:	6b1602bf 	cmp	w21, w22
    ff601894:	54fffee8 	b.hi	ff601870 <gicv3_distif_init_restore+0x1f0>  // b.pmore
    ff601898:	b95ee280 	ldr	w0, [x20, #7904]
    ff60189c:	b9000260 	str	w0, [x19]
    ff6018a0:	b9400260 	ldr	w0, [x19]
    ff6018a4:	37ffffe0 	tbnz	w0, #31, ff6018a0 <gicv3_distif_init_restore+0x220>
    ff6018a8:	a94153f3 	ldp	x19, x20, [sp, #16]
    ff6018ac:	a9425bf5 	ldp	x21, x22, [sp, #32]
    ff6018b0:	a8c37bfd 	ldp	x29, x30, [sp], #48
    ff6018b4:	d65f03c0 	ret
	...

00000000ff6018c0 <gicv3_enable_interrupt>:
    ff6018c0:	a9be7bfd 	stp	x29, x30, [sp, #-32]!
    ff6018c4:	910003fd 	mov	x29, sp
    ff6018c8:	f9000bf3 	str	x19, [sp, #16]
    ff6018cc:	2a0003f3 	mov	w19, w0
    ff6018d0:	d5033a9f 	dsb	ishst
    ff6018d4:	71007c1f 	cmp	w0, #0x1f
    ff6018d8:	54000189 	b.ls	ff601908 <gicv3_enable_interrupt+0x48>  // b.plast
    ff6018dc:	51008001 	sub	w1, w0, #0x20
    ff6018e0:	710f6c3f 	cmp	w1, #0x3db
    ff6018e4:	54000248 	b.hi	ff60192c <gicv3_enable_interrupt+0x6c>  // b.pmore
    ff6018e8:	b0000201 	adrp	x1, ff642000 <psci_ns_context+0xa00>
    ff6018ec:	f9447821 	ldr	x1, [x1, #2288]
    ff6018f0:	f9400021 	ldr	x1, [x1]
    ff6018f4:	97fffc93 	bl	ff600b40 <gicv3_get_multichip_base>
    ff6018f8:	2a1303e1 	mov	w1, w19
    ff6018fc:	f9400bf3 	ldr	x19, [sp, #16]
    ff601900:	a8c27bfd 	ldp	x29, x30, [sp], #32
    ff601904:	17fffbdb 	b	ff600870 <gicd_set_isenabler>
    ff601908:	b0000200 	adrp	x0, ff642000 <psci_ns_context+0xa00>
    ff60190c:	2a0103e2 	mov	w2, w1
    ff601910:	2a1303e1 	mov	w1, w19
    ff601914:	f9447800 	ldr	x0, [x0, #2288]
    ff601918:	f9400bf3 	ldr	x19, [sp, #16]
    ff60191c:	f9401000 	ldr	x0, [x0, #32]
    ff601920:	a8c27bfd 	ldp	x29, x30, [sp], #32
    ff601924:	f8625800 	ldr	x0, [x0, w2, uxtw #3]
    ff601928:	17fffc5e 	b	ff600aa0 <gicr_set_isenabler>
    ff60192c:	94000115 	bl	ff601d80 <console_flush>
    ff601930:	94005252 	bl	ff616278 <el3_panic>
	...

00000000ff601940 <gicv3_disable_interrupt>:
    ff601940:	a9bd7bfd 	stp	x29, x30, [sp, #-48]!
    ff601944:	910003fd 	mov	x29, sp
    ff601948:	a90153f3 	stp	x19, x20, [sp, #16]
    ff60194c:	2a0003f4 	mov	w20, w0
    ff601950:	71007c1f 	cmp	w0, #0x1f
    ff601954:	54000229 	b.ls	ff601998 <gicv3_disable_interrupt+0x58>  // b.plast
    ff601958:	51008001 	sub	w1, w0, #0x20
    ff60195c:	710f6c3f 	cmp	w1, #0x3db
    ff601960:	54000428 	b.hi	ff6019e4 <gicv3_disable_interrupt+0xa4>  // b.pmore
    ff601964:	b0000201 	adrp	x1, ff642000 <psci_ns_context+0xa00>
    ff601968:	f9447821 	ldr	x1, [x1, #2288]
    ff60196c:	f9400021 	ldr	x1, [x1]
    ff601970:	97fffc74 	bl	ff600b40 <gicv3_get_multichip_base>
    ff601974:	aa0003f3 	mov	x19, x0
    ff601978:	2a1403e1 	mov	w1, w20
    ff60197c:	97fffbad 	bl	ff600830 <gicd_set_icenabler>
    ff601980:	b9400261 	ldr	w1, [x19]
    ff601984:	37ffffe1 	tbnz	w1, #31, ff601980 <gicv3_disable_interrupt+0x40>
    ff601988:	d5033a9f 	dsb	ishst
    ff60198c:	a94153f3 	ldp	x19, x20, [sp, #16]
    ff601990:	a8c37bfd 	ldp	x29, x30, [sp], #48
    ff601994:	d65f03c0 	ret
    ff601998:	f90013f5 	str	x21, [sp, #32]
    ff60199c:	b0000215 	adrp	x21, ff642000 <psci_ns_context+0xa00>
    ff6019a0:	2a0103f3 	mov	w19, w1
    ff6019a4:	2a0003e1 	mov	w1, w0
    ff6019a8:	f9447aa0 	ldr	x0, [x21, #2288]
    ff6019ac:	f9401000 	ldr	x0, [x0, #32]
    ff6019b0:	f8737800 	ldr	x0, [x0, x19, lsl #3]
    ff6019b4:	97fffc43 	bl	ff600ac0 <gicr_set_icenabler>
    ff6019b8:	f9447aa0 	ldr	x0, [x21, #2288]
    ff6019bc:	f9401000 	ldr	x0, [x0, #32]
    ff6019c0:	f8737801 	ldr	x1, [x0, x19, lsl #3]
    ff6019c4:	d503201f 	nop
    ff6019c8:	b9400020 	ldr	w0, [x1]
    ff6019cc:	371fffe0 	tbnz	w0, #3, ff6019c8 <gicv3_disable_interrupt+0x88>
    ff6019d0:	f94013f5 	ldr	x21, [sp, #32]
    ff6019d4:	d5033a9f 	dsb	ishst
    ff6019d8:	a94153f3 	ldp	x19, x20, [sp, #16]
    ff6019dc:	a8c37bfd 	ldp	x29, x30, [sp], #48
    ff6019e0:	d65f03c0 	ret
    ff6019e4:	f90013f5 	str	x21, [sp, #32]
    ff6019e8:	940000e6 	bl	ff601d80 <console_flush>
    ff6019ec:	94005223 	bl	ff616278 <el3_panic>

00000000ff6019f0 <gicv3_set_interrupt_group>:
    ff6019f0:	a9bd7bfd 	stp	x29, x30, [sp, #-48]!
    ff6019f4:	910003fd 	mov	x29, sp
    ff6019f8:	a90153f3 	stp	x19, x20, [sp, #16]
    ff6019fc:	2a0003f3 	mov	w19, w0
    ff601a00:	2a0103e0 	mov	w0, w1
    ff601a04:	a9025bf5 	stp	x21, x22, [sp, #32]
    ff601a08:	34000302 	cbz	w2, ff601a68 <gicv3_set_interrupt_group+0x78>
    ff601a0c:	7100085f 	cmp	w2, #0x2
    ff601a10:	540004c0 	b.eq	ff601aa8 <gicv3_set_interrupt_group+0xb8>  // b.none
    ff601a14:	52800016 	mov	w22, #0x0                   	// #0
    ff601a18:	71007e7f 	cmp	w19, #0x1f
    ff601a1c:	540000c9 	b.ls	ff601a34 <gicv3_set_interrupt_group+0x44>  // b.plast
    ff601a20:	51008260 	sub	w0, w19, #0x20
    ff601a24:	710f6c1f 	cmp	w0, #0x3db
    ff601a28:	540008c9 	b.ls	ff601b40 <gicv3_set_interrupt_group+0x150>  // b.plast
    ff601a2c:	940000d5 	bl	ff601d80 <console_flush>
    ff601a30:	94005212 	bl	ff616278 <el3_panic>
    ff601a34:	b0000202 	adrp	x2, ff642000 <psci_ns_context+0xa00>
    ff601a38:	2a1303e1 	mov	w1, w19
    ff601a3c:	f9447842 	ldr	x2, [x2, #2288]
    ff601a40:	f9401042 	ldr	x2, [x2, #32]
    ff601a44:	f8605854 	ldr	x20, [x2, w0, uxtw #3]
    ff601a48:	aa1403e0 	mov	x0, x20
    ff601a4c:	97fffbf1 	bl	ff600a10 <gicr_clr_igroupr>
    ff601a50:	2a1303e1 	mov	w1, w19
    ff601a54:	aa1403e0 	mov	x0, x20
    ff601a58:	a94153f3 	ldp	x19, x20, [sp, #16]
    ff601a5c:	a9425bf5 	ldp	x21, x22, [sp, #32]
    ff601a60:	a8c37bfd 	ldp	x29, x30, [sp], #48
    ff601a64:	17fffc03 	b	ff600a70 <gicr_clr_igrpmodr>
    ff601a68:	52800036 	mov	w22, #0x1                   	// #1
    ff601a6c:	71007e7f 	cmp	w19, #0x1f
    ff601a70:	54fffd88 	b.hi	ff601a20 <gicv3_set_interrupt_group+0x30>  // b.pmore
    ff601a74:	b0000202 	adrp	x2, ff642000 <psci_ns_context+0xa00>
    ff601a78:	2a1303e1 	mov	w1, w19
    ff601a7c:	f9447842 	ldr	x2, [x2, #2288]
    ff601a80:	f9401042 	ldr	x2, [x2, #32]
    ff601a84:	f8605854 	ldr	x20, [x2, w0, uxtw #3]
    ff601a88:	aa1403e0 	mov	x0, x20
    ff601a8c:	97fffbe1 	bl	ff600a10 <gicr_clr_igroupr>
    ff601a90:	2a1303e1 	mov	w1, w19
    ff601a94:	aa1403e0 	mov	x0, x20
    ff601a98:	a94153f3 	ldp	x19, x20, [sp, #16]
    ff601a9c:	a9425bf5 	ldp	x21, x22, [sp, #32]
    ff601aa0:	a8c37bfd 	ldp	x29, x30, [sp], #48
    ff601aa4:	17fffbe7 	b	ff600a40 <gicr_set_igrpmodr>
    ff601aa8:	71007e7f 	cmp	w19, #0x1f
    ff601aac:	54000309 	b.ls	ff601b0c <gicv3_set_interrupt_group+0x11c>  // b.plast
    ff601ab0:	51008260 	sub	w0, w19, #0x20
    ff601ab4:	710f6c1f 	cmp	w0, #0x3db
    ff601ab8:	54fffba8 	b.hi	ff601a2c <gicv3_set_interrupt_group+0x3c>  // b.pmore
    ff601abc:	b0000214 	adrp	x20, ff642000 <psci_ns_context+0xa00>
    ff601ac0:	9123a294 	add	x20, x20, #0x8e8
    ff601ac4:	aa1403e0 	mov	x0, x20
    ff601ac8:	94005450 	bl	ff616c08 <spin_lock>
    ff601acc:	b0000201 	adrp	x1, ff642000 <psci_ns_context+0xa00>
    ff601ad0:	2a1303e0 	mov	w0, w19
    ff601ad4:	f9447821 	ldr	x1, [x1, #2288]
    ff601ad8:	f9400021 	ldr	x1, [x1]
    ff601adc:	97fffc19 	bl	ff600b40 <gicv3_get_multichip_base>
    ff601ae0:	aa0003f5 	mov	x21, x0
    ff601ae4:	2a1303e1 	mov	w1, w19
    ff601ae8:	97fffb32 	bl	ff6007b0 <gicd_set_igroupr>
    ff601aec:	2a1303e1 	mov	w1, w19
    ff601af0:	aa1503e0 	mov	x0, x21
    ff601af4:	97fffb47 	bl	ff600810 <gicd_clr_igrpmodr>
    ff601af8:	aa1403e0 	mov	x0, x20
    ff601afc:	a94153f3 	ldp	x19, x20, [sp, #16]
    ff601b00:	a9425bf5 	ldp	x21, x22, [sp, #32]
    ff601b04:	a8c37bfd 	ldp	x29, x30, [sp], #48
    ff601b08:	14005448 	b	ff616c28 <spin_unlock>
    ff601b0c:	b0000202 	adrp	x2, ff642000 <psci_ns_context+0xa00>
    ff601b10:	2a1303e1 	mov	w1, w19
    ff601b14:	f9447842 	ldr	x2, [x2, #2288]
    ff601b18:	f9401042 	ldr	x2, [x2, #32]
    ff601b1c:	f8605854 	ldr	x20, [x2, w0, uxtw #3]
    ff601b20:	aa1403e0 	mov	x0, x20
    ff601b24:	97fffbaf 	bl	ff6009e0 <gicr_set_igroupr>
    ff601b28:	2a1303e1 	mov	w1, w19
    ff601b2c:	aa1403e0 	mov	x0, x20
    ff601b30:	a94153f3 	ldp	x19, x20, [sp, #16]
    ff601b34:	a9425bf5 	ldp	x21, x22, [sp, #32]
    ff601b38:	a8c37bfd 	ldp	x29, x30, [sp], #48
    ff601b3c:	17fffbcd 	b	ff600a70 <gicr_clr_igrpmodr>
    ff601b40:	b0000214 	adrp	x20, ff642000 <psci_ns_context+0xa00>
    ff601b44:	9123a294 	add	x20, x20, #0x8e8
    ff601b48:	aa1403e0 	mov	x0, x20
    ff601b4c:	9400542f 	bl	ff616c08 <spin_lock>
    ff601b50:	b0000201 	adrp	x1, ff642000 <psci_ns_context+0xa00>
    ff601b54:	2a1303e0 	mov	w0, w19
    ff601b58:	f9447821 	ldr	x1, [x1, #2288]
    ff601b5c:	f9400021 	ldr	x1, [x1]
    ff601b60:	97fffbf8 	bl	ff600b40 <gicv3_get_multichip_base>
    ff601b64:	aa0003f5 	mov	x21, x0
    ff601b68:	2a1303e1 	mov	w1, w19
    ff601b6c:	97fffb19 	bl	ff6007d0 <gicd_clr_igroupr>
    ff601b70:	34fffbf6 	cbz	w22, ff601aec <gicv3_set_interrupt_group+0xfc>
    ff601b74:	2a1303e1 	mov	w1, w19
    ff601b78:	aa1503e0 	mov	x0, x21
    ff601b7c:	97fffb1d 	bl	ff6007f0 <gicd_set_igrpmodr>
    ff601b80:	aa1403e0 	mov	x0, x20
    ff601b84:	a94153f3 	ldp	x19, x20, [sp, #16]
    ff601b88:	a9425bf5 	ldp	x21, x22, [sp, #32]
    ff601b8c:	a8c37bfd 	ldp	x29, x30, [sp], #48
    ff601b90:	14005426 	b	ff616c28 <spin_unlock>
	...

00000000ff601ba0 <gicv3_raise_sgi>:
    ff601ba0:	d3505c45 	ubfx	x5, x2, #16, #8
    ff601ba4:	d3483c46 	ubfx	x6, x2, #8, #8
    ff601ba8:	d3609c43 	ubfx	x3, x2, #32, #8
    ff601bac:	52800024 	mov	w4, #0x1                   	// #1
    ff601bb0:	1ac22084 	lsl	w4, w4, w2
    ff601bb4:	d3607ca2 	lsl	x2, x5, #32
    ff601bb8:	aa03c043 	orr	x3, x2, x3, lsl #48
    ff601bbc:	b370bcc4 	bfi	x4, x6, #16, #48
    ff601bc0:	d3680c00 	ubfiz	x0, x0, #24, #4
    ff601bc4:	aa040063 	orr	x3, x3, x4
    ff601bc8:	aa000063 	orr	x3, x3, x0
    ff601bcc:	d5033a9f 	dsb	ishst
    ff601bd0:	7100043f 	cmp	w1, #0x1
    ff601bd4:	540000c0 	b.eq	ff601bec <gicv3_raise_sgi+0x4c>  // b.none
    ff601bd8:	7100083f 	cmp	w1, #0x2
    ff601bdc:	54000140 	b.eq	ff601c04 <gicv3_raise_sgi+0x64>  // b.none
    ff601be0:	340000c1 	cbz	w1, ff601bf8 <gicv3_raise_sgi+0x58>
    ff601be4:	d5033fdf 	isb
    ff601be8:	d65f03c0 	ret
    ff601bec:	d518cbc3 	msr	icc_asgi1r_el1, x3
    ff601bf0:	d5033fdf 	isb
    ff601bf4:	d65f03c0 	ret
    ff601bf8:	d518cba3 	msr	icc_sgi1r_el1, x3
    ff601bfc:	d5033fdf 	isb
    ff601c00:	d65f03c0 	ret
    ff601c04:	d518cbe3 	msr	icc_sgi0r_el1, x3
    ff601c08:	d5033fdf 	isb
    ff601c0c:	d65f03c0 	ret

00000000ff601c10 <gicv3_clear_interrupt_pending>:
    ff601c10:	a9be7bfd 	stp	x29, x30, [sp, #-32]!
    ff601c14:	910003fd 	mov	x29, sp
    ff601c18:	f9000bf3 	str	x19, [sp, #16]
    ff601c1c:	2a0003f3 	mov	w19, w0
    ff601c20:	71007c1f 	cmp	w0, #0x1f
    ff601c24:	540001c9 	b.ls	ff601c5c <gicv3_clear_interrupt_pending+0x4c>  // b.plast
    ff601c28:	51008001 	sub	w1, w0, #0x20
    ff601c2c:	710f6c3f 	cmp	w1, #0x3db
    ff601c30:	540002c8 	b.hi	ff601c88 <gicv3_clear_interrupt_pending+0x78>  // b.pmore
    ff601c34:	b0000201 	adrp	x1, ff642000 <psci_ns_context+0xa00>
    ff601c38:	f9447821 	ldr	x1, [x1, #2288]
    ff601c3c:	f9400021 	ldr	x1, [x1]
    ff601c40:	97fffbc0 	bl	ff600b40 <gicv3_get_multichip_base>
    ff601c44:	2a1303e1 	mov	w1, w19
    ff601c48:	97fffb02 	bl	ff600850 <gicd_set_icpendr>
    ff601c4c:	d5033a9f 	dsb	ishst
    ff601c50:	f9400bf3 	ldr	x19, [sp, #16]
    ff601c54:	a8c27bfd 	ldp	x29, x30, [sp], #32
    ff601c58:	d65f03c0 	ret
    ff601c5c:	b0000200 	adrp	x0, ff642000 <psci_ns_context+0xa00>
    ff601c60:	2a0103e2 	mov	w2, w1
    ff601c64:	2a1303e1 	mov	w1, w19
    ff601c68:	f9447800 	ldr	x0, [x0, #2288]
    ff601c6c:	f9401000 	ldr	x0, [x0, #32]
    ff601c70:	f8625800 	ldr	x0, [x0, w2, uxtw #3]
    ff601c74:	97fffb9b 	bl	ff600ae0 <gicr_set_icpendr>
    ff601c78:	d5033a9f 	dsb	ishst
    ff601c7c:	f9400bf3 	ldr	x19, [sp, #16]
    ff601c80:	a8c27bfd 	ldp	x29, x30, [sp], #32
    ff601c84:	d65f03c0 	ret
    ff601c88:	9400003e 	bl	ff601d80 <console_flush>
    ff601c8c:	9400517b 	bl	ff616278 <el3_panic>

00000000ff601c90 <console_putc>:
    ff601c90:	a9bd7bfd 	stp	x29, x30, [sp, #-48]!
    ff601c94:	b0000201 	adrp	x1, ff642000 <psci_ns_context+0xa00>
    ff601c98:	910003fd 	mov	x29, sp
    ff601c9c:	a90153f3 	stp	x19, x20, [sp, #16]
    ff601ca0:	f9447c33 	ldr	x19, [x1, #2296]
    ff601ca4:	a9025bf5 	stp	x21, x22, [sp, #32]
    ff601ca8:	b4000453 	cbz	x19, ff601d30 <console_putc+0xa0>
    ff601cac:	90000114 	adrp	x20, ff621000 <bl31sram+0xf10>
    ff601cb0:	2a0003f6 	mov	w22, w0
    ff601cb4:	91061294 	add	x20, x20, #0x184
    ff601cb8:	12800ff5 	mov	w21, #0xffffff80            	// #-128
    ff601cbc:	d503201f 	nop
    ff601cc0:	f9400662 	ldr	x2, [x19, #8]
    ff601cc4:	39400281 	ldrb	w1, [x20]
    ff601cc8:	ea02003f 	tst	x1, x2
    ff601ccc:	54000160 	b.eq	ff601cf8 <console_putc+0x68>  // b.none
    ff601cd0:	f9400a63 	ldr	x3, [x19, #16]
    ff601cd4:	b4000123 	cbz	x3, ff601cf8 <console_putc+0x68>
    ff601cd8:	71002adf 	cmp	w22, #0xa
    ff601cdc:	540001c0 	b.eq	ff601d14 <console_putc+0x84>  // b.none
    ff601ce0:	aa1303e1 	mov	x1, x19
    ff601ce4:	2a1603e0 	mov	w0, w22
    ff601ce8:	d63f0060 	blr	x3
    ff601cec:	310202bf 	cmn	w21, #0x80
    ff601cf0:	7a551001 	ccmp	w0, w21, #0x1, ne  // ne = any
    ff601cf4:	1a80a2b5 	csel	w21, w21, w0, ge  // ge = tcont
    ff601cf8:	f9400273 	ldr	x19, [x19]
    ff601cfc:	b5fffe33 	cbnz	x19, ff601cc0 <console_putc+0x30>
    ff601d00:	2a1503e0 	mov	w0, w21
    ff601d04:	a94153f3 	ldp	x19, x20, [sp, #16]
    ff601d08:	a9425bf5 	ldp	x21, x22, [sp, #32]
    ff601d0c:	a8c37bfd 	ldp	x29, x30, [sp], #48
    ff601d10:	d65f03c0 	ret
    ff601d14:	aa1303e1 	mov	x1, x19
    ff601d18:	528001a0 	mov	w0, #0xd                   	// #13
    ff601d1c:	3647fe22 	tbz	w2, #8, ff601ce0 <console_putc+0x50>
    ff601d20:	d63f0060 	blr	x3
    ff601d24:	37fffe40 	tbnz	w0, #31, ff601cec <console_putc+0x5c>
    ff601d28:	f9400a63 	ldr	x3, [x19, #16]
    ff601d2c:	17ffffed 	b	ff601ce0 <console_putc+0x50>
    ff601d30:	12800ff5 	mov	w21, #0xffffff80            	// #-128
    ff601d34:	2a1503e0 	mov	w0, w21
    ff601d38:	a94153f3 	ldp	x19, x20, [sp, #16]
    ff601d3c:	a9425bf5 	ldp	x21, x22, [sp, #32]
    ff601d40:	a8c37bfd 	ldp	x29, x30, [sp], #48
    ff601d44:	d65f03c0 	ret
	...

00000000ff601d50 <putchar>:
    ff601d50:	a9be7bfd 	stp	x29, x30, [sp, #-32]!
    ff601d54:	910003fd 	mov	x29, sp
    ff601d58:	f9000bf3 	str	x19, [sp, #16]
    ff601d5c:	2a0003f3 	mov	w19, w0
    ff601d60:	97ffffcc 	bl	ff601c90 <console_putc>
    ff601d64:	7100001f 	cmp	w0, #0x0
    ff601d68:	5a9f0260 	csinv	w0, w19, wzr, eq  // eq = none
    ff601d6c:	f9400bf3 	ldr	x19, [sp, #16]
    ff601d70:	a8c27bfd 	ldp	x29, x30, [sp], #32
    ff601d74:	d65f03c0 	ret
	...

00000000ff601d80 <console_flush>:
    ff601d80:	a9be7bfd 	stp	x29, x30, [sp, #-32]!
    ff601d84:	b0000200 	adrp	x0, ff642000 <psci_ns_context+0xa00>
    ff601d88:	910003fd 	mov	x29, sp
    ff601d8c:	a90153f3 	stp	x19, x20, [sp, #16]
    ff601d90:	f9447c13 	ldr	x19, [x0, #2296]
    ff601d94:	b40001b3 	cbz	x19, ff601dc8 <console_flush+0x48>
    ff601d98:	90000114 	adrp	x20, ff621000 <bl31sram+0xf10>
    ff601d9c:	91061294 	add	x20, x20, #0x184
    ff601da0:	f9400660 	ldr	x0, [x19, #8]
    ff601da4:	39400281 	ldrb	w1, [x20]
    ff601da8:	ea00003f 	tst	x1, x0
    ff601dac:	540000a0 	b.eq	ff601dc0 <console_flush+0x40>  // b.none
    ff601db0:	f9400e61 	ldr	x1, [x19, #24]
    ff601db4:	aa1303e0 	mov	x0, x19
    ff601db8:	b4000041 	cbz	x1, ff601dc0 <console_flush+0x40>
    ff601dbc:	d63f0020 	blr	x1
    ff601dc0:	f9400273 	ldr	x19, [x19]
    ff601dc4:	b5fffef3 	cbnz	x19, ff601da0 <console_flush+0x20>
    ff601dc8:	a94153f3 	ldp	x19, x20, [sp, #16]
    ff601dcc:	a8c27bfd 	ldp	x29, x30, [sp], #32
    ff601dd0:	d65f03c0 	ret
	...

00000000ff601de0 <udelay>:
    ff601de0:	a9bd7bfd 	stp	x29, x30, [sp, #-48]!
    ff601de4:	910003fd 	mov	x29, sp
    ff601de8:	a90153f3 	stp	x19, x20, [sp, #16]
    ff601dec:	b0000214 	adrp	x20, ff642000 <psci_ns_context+0xa00>
    ff601df0:	2a0003f3 	mov	w19, w0
    ff601df4:	f9448280 	ldr	x0, [x20, #2304]
    ff601df8:	f9400000 	ldr	x0, [x0]
    ff601dfc:	f90013f5 	str	x21, [sp, #32]
    ff601e00:	d63f0000 	blr	x0
    ff601e04:	2a0003f5 	mov	w21, w0
    ff601e08:	f9448281 	ldr	x1, [x20, #2304]
    ff601e0c:	29410c20 	ldp	w0, w3, [x1, #8]
    ff601e10:	d1000402 	sub	x2, x0, #0x1
    ff601e14:	9ba30a73 	umaddl	x19, w19, w3, x2
    ff601e18:	9ac00a73 	udiv	x19, x19, x0
    ff601e1c:	91000673 	add	x19, x19, #0x1
    ff601e20:	14000002 	b	ff601e28 <udelay+0x48>
    ff601e24:	f9448281 	ldr	x1, [x20, #2304]
    ff601e28:	f9400021 	ldr	x1, [x1]
    ff601e2c:	d63f0020 	blr	x1
    ff601e30:	4b0002a0 	sub	w0, w21, w0
    ff601e34:	eb13001f 	cmp	x0, x19
    ff601e38:	54ffff63 	b.cc	ff601e24 <udelay+0x44>  // b.lo, b.ul, b.last
    ff601e3c:	a94153f3 	ldp	x19, x20, [sp, #16]
    ff601e40:	f94013f5 	ldr	x21, [sp, #32]
    ff601e44:	a8c37bfd 	ldp	x29, x30, [sp], #48
    ff601e48:	d65f03c0 	ret
    ff601e4c:	00000000 	udf	#0

00000000ff601e50 <timer_init>:
    ff601e50:	b0000201 	adrp	x1, ff642000 <psci_ns_context+0xa00>
    ff601e54:	f9048020 	str	x0, [x1, #2304]
    ff601e58:	d65f03c0 	ret
    ff601e5c:	00000000 	udf	#0

00000000ff601e60 <get_timer_value>:
    ff601e60:	d53be020 	mrs	x0, cntpct_el0
    ff601e64:	2a2003e0 	mvn	w0, w0
    ff601e68:	d65f03c0 	ret
    ff601e6c:	00000000 	udf	#0

00000000ff601e70 <generic_delay_timer_init>:
    ff601e70:	a9bf7bfd 	stp	x29, x30, [sp, #-16]!
    ff601e74:	910003fd 	mov	x29, sp
    ff601e78:	94003b9a 	bl	ff610ce0 <plat_get_syscnt_freq2>
    ff601e7c:	2a0003e2 	mov	w2, w0
    ff601e80:	529999a0 	mov	w0, #0xcccd                	// #52429
    ff601e84:	52933327 	mov	w7, #0x9999                	// #39321
    ff601e88:	72b99980 	movk	w0, #0xcccc, lsl #16
    ff601e8c:	52884804 	mov	w4, #0x4240                	// #16960
    ff601e90:	72a33327 	movk	w7, #0x1999, lsl #16
    ff601e94:	72a001e4 	movk	w4, #0xf, lsl #16
    ff601e98:	1b007c41 	mul	w1, w2, w0
    ff601e9c:	13810421 	ror	w1, w1, #1
    ff601ea0:	6b07003f 	cmp	w1, w7
    ff601ea4:	54000208 	b.hi	ff601ee4 <generic_delay_timer_init+0x74>  // b.pmore
    ff601ea8:	9ba07c42 	umull	x2, w2, w0
    ff601eac:	5290d404 	mov	w4, #0x86a0                	// #34464
    ff601eb0:	528000a3 	mov	w3, #0x5                   	// #5
    ff601eb4:	72a00024 	movk	w4, #0x1, lsl #16
    ff601eb8:	d363fc42 	lsr	x2, x2, #35
    ff601ebc:	1b007c41 	mul	w1, w2, w0
    ff601ec0:	9ba07c86 	umull	x6, w4, w0
    ff601ec4:	9ba07c45 	umull	x5, w2, w0
    ff601ec8:	13810421 	ror	w1, w1, #1
    ff601ecc:	6b07003f 	cmp	w1, w7
    ff601ed0:	540000a8 	b.hi	ff601ee4 <generic_delay_timer_init+0x74>  // b.pmore
    ff601ed4:	d363fcc4 	lsr	x4, x6, #35
    ff601ed8:	d363fca2 	lsr	x2, x5, #35
    ff601edc:	71000463 	subs	w3, w3, #0x1
    ff601ee0:	54fffee1 	b.ne	ff601ebc <generic_delay_timer_init+0x4c>  // b.any
    ff601ee4:	b0000203 	adrp	x3, ff642000 <psci_ns_context+0xa00>
    ff601ee8:	91242060 	add	x0, x3, #0x908
    ff601eec:	90000001 	adrp	x1, ff601000 <gicv3_driver_init+0x70>
    ff601ef0:	91398021 	add	x1, x1, #0xe60
    ff601ef4:	f9048461 	str	x1, [x3, #2312]
    ff601ef8:	29010804 	stp	w4, w2, [x0, #8]
    ff601efc:	a8c17bfd 	ldp	x29, x30, [sp], #16
    ff601f00:	17ffffd4 	b	ff601e50 <timer_init>
	...

00000000ff601f10 <allocate_clk_driver>:
    ff601f10:	900000e0 	adrp	x0, ff61d000 <__RO_END__>
    ff601f14:	91000000 	add	x0, x0, #0x0
    ff601f18:	14002226 	b	ff60a7b0 <alloc_mem_pool_elem>
    ff601f1c:	00000000 	udf	#0

00000000ff601f20 <set_clk_driver_name>:
    ff601f20:	a9be7bfd 	stp	x29, x30, [sp, #-32]!
    ff601f24:	910003fd 	mov	x29, sp
    ff601f28:	a90153f3 	stp	x19, x20, [sp, #16]
    ff601f2c:	aa0003f3 	mov	x19, x0
    ff601f30:	aa0103f4 	mov	x20, x1
    ff601f34:	aa0103e0 	mov	x0, x1
    ff601f38:	d28001e1 	mov	x1, #0xf                   	// #15
    ff601f3c:	94004f59 	bl	ff615ca0 <strnlen>
    ff601f40:	8b000263 	add	x3, x19, x0
    ff601f44:	aa0003e2 	mov	x2, x0
    ff601f48:	aa1403e1 	mov	x1, x20
    ff601f4c:	91005260 	add	x0, x19, #0x14
    ff601f50:	3900507f 	strb	wzr, [x3, #20]
    ff601f54:	a94153f3 	ldp	x19, x20, [sp, #16]
    ff601f58:	a8c27bfd 	ldp	x29, x30, [sp], #32
    ff601f5c:	14004d39 	b	ff615440 <memcpy>

00000000ff601f60 <get_clk_driver_by_name>:
    ff601f60:	a9bb7bfd 	stp	x29, x30, [sp, #-80]!
    ff601f64:	d2800201 	mov	x1, #0x10                  	// #16
    ff601f68:	910003fd 	mov	x29, sp
    ff601f6c:	a9025bf5 	stp	x21, x22, [sp, #32]
    ff601f70:	aa0003f6 	mov	x22, x0
    ff601f74:	94004f4b 	bl	ff615ca0 <strnlen>
    ff601f78:	b40004d6 	cbz	x22, ff602010 <get_clk_driver_by_name+0xb0>
    ff601f7c:	a90363f7 	stp	x23, x24, [sp, #48]
    ff601f80:	900000f7 	adrp	x23, ff61d000 <__RO_END__>
    ff601f84:	910002f7 	add	x23, x23, #0x0
    ff601f88:	aa0003f5 	mov	x21, x0
    ff601f8c:	91000400 	add	x0, x0, #0x1
    ff601f90:	f1003c1f 	cmp	x0, #0xf
    ff601f94:	f9400ee1 	ldr	x1, [x23, #24]
    ff601f98:	9a8082b5 	csel	x21, x21, x0, hi  // hi = pmore
    ff601f9c:	b4000421 	cbz	x1, ff602020 <get_clk_driver_by_name+0xc0>
    ff601fa0:	f90023f9 	str	x25, [sp, #64]
    ff601fa4:	b0000219 	adrp	x25, ff642000 <psci_ns_context+0xa00>
    ff601fa8:	91246339 	add	x25, x25, #0x918
    ff601fac:	a90153f3 	stp	x19, x20, [sp, #16]
    ff601fb0:	91005338 	add	x24, x25, #0x14
    ff601fb4:	d2800013 	mov	x19, #0x0                   	// #0
    ff601fb8:	d2800014 	mov	x20, #0x0                   	// #0
    ff601fbc:	14000005 	b	ff601fd0 <get_clk_driver_by_name+0x70>
    ff601fc0:	f9400ee1 	ldr	x1, [x23, #24]
    ff601fc4:	9100a273 	add	x19, x19, #0x28
    ff601fc8:	eb14003f 	cmp	x1, x20
    ff601fcc:	540001c9 	b.ls	ff602004 <get_clk_driver_by_name+0xa4>  // b.plast
    ff601fd0:	91000694 	add	x20, x20, #0x1
    ff601fd4:	aa1503e2 	mov	x2, x21
    ff601fd8:	8b130301 	add	x1, x24, x19
    ff601fdc:	aa1603e0 	mov	x0, x22
    ff601fe0:	94004d08 	bl	ff615400 <memcmp>
    ff601fe4:	35fffee0 	cbnz	w0, ff601fc0 <get_clk_driver_by_name+0x60>
    ff601fe8:	8b130320 	add	x0, x25, x19
    ff601fec:	a94153f3 	ldp	x19, x20, [sp, #16]
    ff601ff0:	a9425bf5 	ldp	x21, x22, [sp, #32]
    ff601ff4:	a94363f7 	ldp	x23, x24, [sp, #48]
    ff601ff8:	f94023f9 	ldr	x25, [sp, #64]
    ff601ffc:	a8c57bfd 	ldp	x29, x30, [sp], #80
    ff602000:	d65f03c0 	ret
    ff602004:	a94153f3 	ldp	x19, x20, [sp, #16]
    ff602008:	a94363f7 	ldp	x23, x24, [sp, #48]
    ff60200c:	f94023f9 	ldr	x25, [sp, #64]
    ff602010:	d2800000 	mov	x0, #0x0                   	// #0
    ff602014:	a9425bf5 	ldp	x21, x22, [sp, #32]
    ff602018:	a8c57bfd 	ldp	x29, x30, [sp], #80
    ff60201c:	d65f03c0 	ret
    ff602020:	a94363f7 	ldp	x23, x24, [sp, #48]
    ff602024:	17fffffb 	b	ff602010 <get_clk_driver_by_name+0xb0>
	...

00000000ff602030 <dt_clk_init>:
    ff602030:	a9be7bfd 	stp	x29, x30, [sp, #-32]!
    ff602034:	910003fd 	mov	x29, sp
    ff602038:	94003b7e 	bl	ff610e30 <dt_open_and_check>
    ff60203c:	37f80180 	tbnz	w0, #31, ff60206c <dt_clk_init+0x3c>
    ff602040:	910063e0 	add	x0, sp, #0x18
    ff602044:	94003b8f 	bl	ff610e80 <fdt_get_address>
    ff602048:	340002a0 	cbz	w0, ff60209c <dt_clk_init+0x6c>
    ff60204c:	f9400fe0 	ldr	x0, [sp, #24]
    ff602050:	94000bb8 	bl	ff604f30 <dt_init_fixed_clk>
    ff602054:	350001c0 	cbnz	w0, ff60208c <dt_clk_init+0x5c>
    ff602058:	f9400fe0 	ldr	x0, [sp, #24]
    ff60205c:	94001761 	bl	ff607de0 <dt_init_plat_clk>
    ff602060:	350000e0 	cbnz	w0, ff60207c <dt_clk_init+0x4c>
    ff602064:	a8c27bfd 	ldp	x29, x30, [sp], #32
    ff602068:	d65f03c0 	ret
    ff60206c:	b00000a0 	adrp	x0, ff617000 <psci_args.0+0x28>
    ff602070:	9100e000 	add	x0, x0, #0x38
    ff602074:	97fff96b 	bl	ff600620 <tf_log>
    ff602078:	94005355 	bl	ff616dcc <plat_panic_handler>
    ff60207c:	b00000a0 	adrp	x0, ff617000 <psci_args.0+0x28>
    ff602080:	91024000 	add	x0, x0, #0x90
    ff602084:	97fff967 	bl	ff600620 <tf_log>
    ff602088:	94005351 	bl	ff616dcc <plat_panic_handler>
    ff60208c:	b00000a0 	adrp	x0, ff617000 <psci_args.0+0x28>
    ff602090:	9101a000 	add	x0, x0, #0x68
    ff602094:	97fff963 	bl	ff600620 <tf_log>
    ff602098:	9400534d 	bl	ff616dcc <plat_panic_handler>
    ff60209c:	b00000a0 	adrp	x0, ff617000 <psci_args.0+0x28>
    ff6020a0:	91012000 	add	x0, x0, #0x48
    ff6020a4:	97fff95f 	bl	ff600620 <tf_log>
    ff6020a8:	94005349 	bl	ff616dcc <plat_panic_handler>
    ff6020ac:	00000000 	udf	#0

00000000ff6020b0 <get_clk>:
    ff6020b0:	2a0003e6 	mov	w6, w0
    ff6020b4:	340003c0 	cbz	w0, ff60212c <get_clk+0x7c>
    ff6020b8:	2a0103e0 	mov	w0, w1
    ff6020bc:	aa0203e1 	mov	x1, x2
    ff6020c0:	f00000c2 	adrp	x2, ff61d000 <__RO_END__>
    ff6020c4:	f9400c47 	ldr	x7, [x2, #24]
    ff6020c8:	b4000327 	cbz	x7, ff60212c <get_clk+0x7c>
    ff6020cc:	90000202 	adrp	x2, ff642000 <psci_ns_context+0xa00>
    ff6020d0:	91246042 	add	x2, x2, #0x918
    ff6020d4:	aa0203e4 	mov	x4, x2
    ff6020d8:	d2800003 	mov	x3, #0x0                   	// #0
    ff6020dc:	14000004 	b	ff6020ec <get_clk+0x3c>
    ff6020e0:	91000463 	add	x3, x3, #0x1
    ff6020e4:	eb07007f 	cmp	x3, x7
    ff6020e8:	54000220 	b.eq	ff60212c <get_clk+0x7c>  // b.none
    ff6020ec:	b9401085 	ldr	w5, [x4, #16]
    ff6020f0:	9100a084 	add	x4, x4, #0x28
    ff6020f4:	6b0500df 	cmp	w6, w5
    ff6020f8:	54ffff41 	b.ne	ff6020e0 <get_clk+0x30>  // b.any
    ff6020fc:	8b030863 	add	x3, x3, x3, lsl #2
    ff602100:	d37df063 	lsl	x3, x3, #3
    ff602104:	8b030044 	add	x4, x2, x3
    ff602108:	f8636842 	ldr	x2, [x2, x3]
    ff60210c:	f9401042 	ldr	x2, [x2, #32]
    ff602110:	a9007c24 	stp	x4, xzr, [x1]
    ff602114:	b9001020 	str	w0, [x1, #16]
    ff602118:	b4000062 	cbz	x2, ff602124 <get_clk+0x74>
    ff60211c:	aa0203f0 	mov	x16, x2
    ff602120:	d61f0200 	br	x16
    ff602124:	52800000 	mov	w0, #0x0                   	// #0
    ff602128:	d65f03c0 	ret
    ff60212c:	a9bf7bfd 	stp	x29, x30, [sp, #-16]!
    ff602130:	2a0603e1 	mov	w1, w6
    ff602134:	b00000a0 	adrp	x0, ff617000 <psci_args.0+0x28>
    ff602138:	910003fd 	mov	x29, sp
    ff60213c:	9102e000 	add	x0, x0, #0xb8
    ff602140:	97fff938 	bl	ff600620 <tf_log>
    ff602144:	12800080 	mov	w0, #0xfffffffb            	// #-5
    ff602148:	a8c17bfd 	ldp	x29, x30, [sp], #16
    ff60214c:	d65f03c0 	ret

00000000ff602150 <dt_clk_apply_defaults>:
    ff602150:	a9b47bfd 	stp	x29, x30, [sp, #-192]!
    ff602154:	b00000a2 	adrp	x2, ff617000 <psci_args.0+0x28>
    ff602158:	91036042 	add	x2, x2, #0xd8
    ff60215c:	910003fd 	mov	x29, sp
    ff602160:	910213e3 	add	x3, sp, #0x84
    ff602164:	a9025bf5 	stp	x21, x22, [sp, #32]
    ff602168:	a90363f7 	stp	x23, x24, [sp, #48]
    ff60216c:	aa0003f7 	mov	x23, x0
    ff602170:	2a0103f8 	mov	w24, w1
    ff602174:	94004b7f 	bl	ff614f70 <fdt_getprop>
    ff602178:	b4000c80 	cbz	x0, ff602308 <dt_clk_apply_defaults+0x1b8>
    ff60217c:	910223e3 	add	x3, sp, #0x88
    ff602180:	2a1803e1 	mov	w1, w24
    ff602184:	b00000a2 	adrp	x2, ff617000 <psci_args.0+0x28>
    ff602188:	9103a042 	add	x2, x2, #0xe8
    ff60218c:	a90153f3 	stp	x19, x20, [sp, #16]
    ff602190:	aa0003f3 	mov	x19, x0
    ff602194:	aa1703e0 	mov	x0, x23
    ff602198:	a9046bf9 	stp	x25, x26, [sp, #64]
    ff60219c:	94004b75 	bl	ff614f70 <fdt_getprop>
    ff6021a0:	2a1803e1 	mov	w1, w24
    ff6021a4:	aa0003f6 	mov	x22, x0
    ff6021a8:	910233e3 	add	x3, sp, #0x8c
    ff6021ac:	aa1703e0 	mov	x0, x23
    ff6021b0:	b00000a2 	adrp	x2, ff617000 <psci_args.0+0x28>
    ff6021b4:	91040042 	add	x2, x2, #0x100
    ff6021b8:	94004b6e 	bl	ff614f70 <fdt_getprop>
    ff6021bc:	6950ebe1 	ldpsw	x1, x26, [sp, #132]
    ff6021c0:	aa0003f9 	mov	x25, x0
    ff6021c4:	d342ff5a 	lsr	x26, x26, #2
    ff6021c8:	eb410fff 	cmp	xzr, x1, lsr #3
    ff6021cc:	540009a0 	b.eq	ff602300 <dt_clk_apply_defaults+0x1b0>  // b.none
    ff6021d0:	a90573fb 	stp	x27, x28, [sp, #80]
    ff6021d4:	b00000bc 	adrp	x28, ff617000 <psci_args.0+0x28>
    ff6021d8:	b00000bb 	adrp	x27, ff617000 <psci_args.0+0x28>
    ff6021dc:	91078380 	add	x0, x28, #0x1e0
    ff6021e0:	d2800014 	mov	x20, #0x0                   	// #0
    ff6021e4:	52800015 	mov	w21, #0x0                   	// #0
    ff6021e8:	d280001c 	mov	x28, #0x0                   	// #0
    ff6021ec:	f9003fe0 	str	x0, [sp, #120]
    ff6021f0:	9106c360 	add	x0, x27, #0x1b0
    ff6021f4:	5280001b 	mov	w27, #0x0                   	// #0
    ff6021f8:	f90037e0 	str	x0, [sp, #104]
    ff6021fc:	d503201f 	nop
    ff602200:	531f7b60 	lsl	w0, w27, #1
    ff602204:	8b20ca61 	add	x1, x19, w0, sxtw #2
    ff602208:	b860da62 	ldr	w2, [x19, w0, sxtw #2]
    ff60220c:	b9400421 	ldr	w1, [x1, #4]
    ff602210:	5ac00840 	rev	w0, w2
    ff602214:	34000622 	cbz	w2, ff6022d8 <dt_clk_apply_defaults+0x188>
    ff602218:	5ac00821 	rev	w1, w1
    ff60221c:	910243e2 	add	x2, sp, #0x90
    ff602220:	97ffffa4 	bl	ff6020b0 <get_clk>
    ff602224:	350004c0 	cbnz	w0, ff6022bc <dt_clk_apply_defaults+0x16c>
    ff602228:	f10002df 	cmp	x22, #0x0
    ff60222c:	fa541340 	ccmp	x26, x20, #0x0, ne  // ne = any
    ff602230:	540000e9 	b.ls	ff60224c <dt_clk_apply_defaults+0xfc>  // b.plast
    ff602234:	b8747ac1 	ldr	w1, [x22, x20, lsl #2]
    ff602238:	d37ef682 	lsl	x2, x20, #2
    ff60223c:	91000685 	add	x5, x20, #0x1
    ff602240:	5ac00820 	rev	w0, w1
    ff602244:	350006e1 	cbnz	w1, ff602320 <dt_clk_apply_defaults+0x1d0>
    ff602248:	aa0503f4 	mov	x20, x5
    ff60224c:	b40001f9 	cbz	x25, ff602288 <dt_clk_apply_defaults+0x138>
    ff602250:	b9808fe0 	ldrsw	x0, [sp, #140]
    ff602254:	eb400b9f 	cmp	x28, x0, lsr #2
    ff602258:	54000ae2 	b.cs	ff6023b4 <dt_clk_apply_defaults+0x264>  // b.hs, b.nlast
    ff60225c:	b87c7b20 	ldr	w0, [x25, x28, lsl #2]
    ff602260:	5ac00801 	rev	w1, w0
    ff602264:	34000120 	cbz	w0, ff602288 <dt_clk_apply_defaults+0x138>
    ff602268:	f9404be0 	ldr	x0, [sp, #144]
    ff60226c:	f9400000 	ldr	x0, [x0]
    ff602270:	b40000c0 	cbz	x0, ff602288 <dt_clk_apply_defaults+0x138>
    ff602274:	f9400402 	ldr	x2, [x0, #8]
    ff602278:	b4000082 	cbz	x2, ff602288 <dt_clk_apply_defaults+0x138>
    ff60227c:	910243e0 	add	x0, sp, #0x90
    ff602280:	d63f0040 	blr	x2
    ff602284:	34000b40 	cbz	w0, ff6023ec <dt_clk_apply_defaults+0x29c>
    ff602288:	b98087e0 	ldrsw	x0, [sp, #132]
    ff60228c:	1100077c 	add	w28, w27, #0x1
    ff602290:	aa1c03fb 	mov	x27, x28
    ff602294:	eb400f9f 	cmp	x28, x0, lsr #3
    ff602298:	54fffb43 	b.cc	ff602200 <dt_clk_apply_defaults+0xb0>  // b.lo, b.ul, b.last
    ff60229c:	2a1503e0 	mov	w0, w21
    ff6022a0:	a94153f3 	ldp	x19, x20, [sp, #16]
    ff6022a4:	a9425bf5 	ldp	x21, x22, [sp, #32]
    ff6022a8:	a94363f7 	ldp	x23, x24, [sp, #48]
    ff6022ac:	a9446bf9 	ldp	x25, x26, [sp, #64]
    ff6022b0:	a94573fb 	ldp	x27, x28, [sp, #80]
    ff6022b4:	a8cc7bfd 	ldp	x29, x30, [sp], #192
    ff6022b8:	d65f03c0 	ret
    ff6022bc:	b98087e0 	ldrsw	x0, [sp, #132]
    ff6022c0:	1100077c 	add	w28, w27, #0x1
    ff6022c4:	aa1c03fb 	mov	x27, x28
    ff6022c8:	12800095 	mov	w21, #0xfffffffb            	// #-5
    ff6022cc:	eb400f9f 	cmp	x28, x0, lsr #3
    ff6022d0:	54fff983 	b.cc	ff602200 <dt_clk_apply_defaults+0xb0>  // b.lo, b.ul, b.last
    ff6022d4:	17fffff2 	b	ff60229c <dt_clk_apply_defaults+0x14c>
    ff6022d8:	b00000a0 	adrp	x0, ff617000 <psci_args.0+0x28>
    ff6022dc:	91046000 	add	x0, x0, #0x118
    ff6022e0:	97fff8d0 	bl	ff600620 <tf_log>
    ff6022e4:	1100077c 	add	w28, w27, #0x1
    ff6022e8:	b98087e0 	ldrsw	x0, [sp, #132]
    ff6022ec:	aa1c03fb 	mov	x27, x28
    ff6022f0:	12800095 	mov	w21, #0xfffffffb            	// #-5
    ff6022f4:	eb400f9f 	cmp	x28, x0, lsr #3
    ff6022f8:	54fff843 	b.cc	ff602200 <dt_clk_apply_defaults+0xb0>  // b.lo, b.ul, b.last
    ff6022fc:	17ffffe8 	b	ff60229c <dt_clk_apply_defaults+0x14c>
    ff602300:	a94153f3 	ldp	x19, x20, [sp, #16]
    ff602304:	a9446bf9 	ldp	x25, x26, [sp, #64]
    ff602308:	52800015 	mov	w21, #0x0                   	// #0
    ff60230c:	2a1503e0 	mov	w0, w21
    ff602310:	a9425bf5 	ldp	x21, x22, [sp, #32]
    ff602314:	a94363f7 	ldp	x23, x24, [sp, #48]
    ff602318:	a8cc7bfd 	ldp	x29, x30, [sp], #192
    ff60231c:	d65f03c0 	ret
    ff602320:	8b0202c1 	add	x1, x22, x2
    ff602324:	9102a3e2 	add	x2, sp, #0xa8
    ff602328:	91000a94 	add	x20, x20, #0x2
    ff60232c:	b9400421 	ldr	w1, [x1, #4]
    ff602330:	5ac00821 	rev	w1, w1
    ff602334:	b90077e1 	str	w1, [sp, #116]
    ff602338:	97ffff5e 	bl	ff6020b0 <get_clk>
    ff60233c:	b94077e1 	ldr	w1, [sp, #116]
    ff602340:	35000600 	cbnz	w0, ff602400 <dt_clk_apply_defaults+0x2b0>
    ff602344:	f9404be0 	ldr	x0, [sp, #144]
    ff602348:	f9400000 	ldr	x0, [x0]
    ff60234c:	b4fff800 	cbz	x0, ff60224c <dt_clk_apply_defaults+0xfc>
    ff602350:	f9400c02 	ldr	x2, [x0, #24]
    ff602354:	b4fff7c2 	cbz	x2, ff60224c <dt_clk_apply_defaults+0xfc>
    ff602358:	9102a3e1 	add	x1, sp, #0xa8
    ff60235c:	910243e0 	add	x0, sp, #0x90
    ff602360:	d63f0040 	blr	x2
    ff602364:	34fff740 	cbz	w0, ff60224c <dt_clk_apply_defaults+0xfc>
    ff602368:	b940a3e1 	ldr	w1, [sp, #160]
    ff60236c:	b00000a0 	adrp	x0, ff617000 <psci_args.0+0x28>
    ff602370:	91056000 	add	x0, x0, #0x158
    ff602374:	97fff8ab 	bl	ff600620 <tf_log>
    ff602378:	2a1803e1 	mov	w1, w24
    ff60237c:	d2800002 	mov	x2, #0x0                   	// #0
    ff602380:	aa1703e0 	mov	x0, x23
    ff602384:	94004a9f 	bl	ff614e00 <fdt_get_name>
    ff602388:	b00000a2 	adrp	x2, ff617000 <psci_args.0+0x28>
    ff60238c:	aa0003e1 	mov	x1, x0
    ff602390:	91060040 	add	x0, x2, #0x180
    ff602394:	1100077c 	add	w28, w27, #0x1
    ff602398:	97fff8a2 	bl	ff600620 <tf_log>
    ff60239c:	aa1c03fb 	mov	x27, x28
    ff6023a0:	b98087e0 	ldrsw	x0, [sp, #132]
    ff6023a4:	128002b5 	mov	w21, #0xffffffea            	// #-22
    ff6023a8:	eb400f9f 	cmp	x28, x0, lsr #3
    ff6023ac:	54fff2a3 	b.cc	ff602200 <dt_clk_apply_defaults+0xb0>  // b.lo, b.ul, b.last
    ff6023b0:	17ffffbb 	b	ff60229c <dt_clk_apply_defaults+0x14c>
    ff6023b4:	2a1803e1 	mov	w1, w24
    ff6023b8:	d2800002 	mov	x2, #0x0                   	// #0
    ff6023bc:	aa1703e0 	mov	x0, x23
    ff6023c0:	94004a90 	bl	ff614e00 <fdt_get_name>
    ff6023c4:	aa0003e1 	mov	x1, x0
    ff6023c8:	1100077c 	add	w28, w27, #0x1
    ff6023cc:	f94037e0 	ldr	x0, [sp, #104]
    ff6023d0:	aa1c03fb 	mov	x27, x28
    ff6023d4:	128002b5 	mov	w21, #0xffffffea            	// #-22
    ff6023d8:	97fff892 	bl	ff600620 <tf_log>
    ff6023dc:	b98087e0 	ldrsw	x0, [sp, #132]
    ff6023e0:	eb400f9f 	cmp	x28, x0, lsr #3
    ff6023e4:	54fff0e3 	b.cc	ff602200 <dt_clk_apply_defaults+0xb0>  // b.lo, b.ul, b.last
    ff6023e8:	17ffffad 	b	ff60229c <dt_clk_apply_defaults+0x14c>
    ff6023ec:	b940a3e1 	ldr	w1, [sp, #160]
    ff6023f0:	52800015 	mov	w21, #0x0                   	// #0
    ff6023f4:	f9403fe0 	ldr	x0, [sp, #120]
    ff6023f8:	97fff88a 	bl	ff600620 <tf_log>
    ff6023fc:	17ffffa3 	b	ff602288 <dt_clk_apply_defaults+0x138>
    ff602400:	b00000a0 	adrp	x0, ff617000 <psci_args.0+0x28>
    ff602404:	9104e000 	add	x0, x0, #0x138
    ff602408:	97fff886 	bl	ff600620 <tf_log>
    ff60240c:	17ffffdb 	b	ff602378 <dt_clk_apply_defaults+0x228>

00000000ff602410 <s32_a53_clock_setup>:
    ff602410:	a9bd7bfd 	stp	x29, x30, [sp, #-48]!
    ff602414:	f00000c0 	adrp	x0, ff61d000 <__RO_END__>
    ff602418:	91042000 	add	x0, x0, #0x108
    ff60241c:	910003fd 	mov	x29, sp
    ff602420:	94001510 	bl	ff607860 <mmap_clk_regions>
    ff602424:	34000060 	cbz	w0, ff602430 <s32_a53_clock_setup+0x20>
    ff602428:	a8c37bfd 	ldp	x29, x30, [sp], #48
    ff60242c:	d65f03c0 	ret
    ff602430:	a90153f3 	stp	x19, x20, [sp, #16]
    ff602434:	90000213 	adrp	x19, ff642000 <psci_ns_context+0xa00>
    ff602438:	91336273 	add	x19, x19, #0xcd8
    ff60243c:	aa1303e0 	mov	x0, x19
    ff602440:	94001970 	bl	ff608a00 <s32gen1_get_early_clks_freqs>
    ff602444:	35000100 	cbnz	w0, ff602464 <s32_a53_clock_setup+0x54>
    ff602448:	f00000d4 	adrp	x20, ff61d000 <__RO_END__>
    ff60244c:	91030294 	add	x20, x20, #0xc0
    ff602450:	f00000c0 	adrp	x0, ff61d000 <__RO_END__>
    ff602454:	aa1403e1 	mov	x1, x20
    ff602458:	91014000 	add	x0, x0, #0x50
    ff60245c:	94001e8d 	bl	ff609e90 <s32gen1_set_parent>
    ff602460:	34000080 	cbz	w0, ff602470 <s32_a53_clock_setup+0x60>
    ff602464:	a94153f3 	ldp	x19, x20, [sp, #16]
    ff602468:	a8c37bfd 	ldp	x29, x30, [sp], #48
    ff60246c:	d65f03c0 	ret
    ff602470:	f90013f5 	str	x21, [sp, #32]
    ff602474:	f00000d5 	adrp	x21, ff61d000 <__RO_END__>
    ff602478:	9101a2b5 	add	x21, x21, #0x68
    ff60247c:	f00000c0 	adrp	x0, ff61d000 <__RO_END__>
    ff602480:	aa1503e1 	mov	x1, x21
    ff602484:	9103c000 	add	x0, x0, #0xf0
    ff602488:	94001e82 	bl	ff609e90 <s32gen1_set_parent>
    ff60248c:	350006a0 	cbnz	w0, ff602560 <s32_a53_clock_setup+0x150>
    ff602490:	aa1403e0 	mov	x0, x20
    ff602494:	d28b4014 	mov	x20, #0x5a00                	// #23040
    ff602498:	f2a04c54 	movk	x20, #0x262, lsl #16
    ff60249c:	aa1403e1 	mov	x1, x20
    ff6024a0:	94001e5c 	bl	ff609e10 <s32gen1_set_rate>
    ff6024a4:	eb14001f 	cmp	x0, x20
    ff6024a8:	54000621 	b.ne	ff60256c <s32_a53_clock_setup+0x15c>  // b.any
    ff6024ac:	f9400a61 	ldr	x1, [x19, #16]
    ff6024b0:	f00000c0 	adrp	x0, ff61d000 <__RO_END__>
    ff6024b4:	91020000 	add	x0, x0, #0x80
    ff6024b8:	94001e56 	bl	ff609e10 <s32gen1_set_rate>
    ff6024bc:	f9400a61 	ldr	x1, [x19, #16]
    ff6024c0:	eb01001f 	cmp	x0, x1
    ff6024c4:	54000541 	b.ne	ff60256c <s32_a53_clock_setup+0x15c>  // b.any
    ff6024c8:	f9400e61 	ldr	x1, [x19, #24]
    ff6024cc:	aa1503e0 	mov	x0, x21
    ff6024d0:	94001e50 	bl	ff609e10 <s32gen1_set_rate>
    ff6024d4:	f9400e61 	ldr	x1, [x19, #24]
    ff6024d8:	eb01001f 	cmp	x0, x1
    ff6024dc:	54000481 	b.ne	ff60256c <s32_a53_clock_setup+0x15c>  // b.any
    ff6024e0:	f9400661 	ldr	x1, [x19, #8]
    ff6024e4:	f00000d4 	adrp	x20, ff61d000 <__RO_END__>
    ff6024e8:	91008294 	add	x20, x20, #0x20
    ff6024ec:	aa1403e0 	mov	x0, x20
    ff6024f0:	94001e48 	bl	ff609e10 <s32gen1_set_rate>
    ff6024f4:	f9400661 	ldr	x1, [x19, #8]
    ff6024f8:	eb01001f 	cmp	x0, x1
    ff6024fc:	54000381 	b.ne	ff60256c <s32_a53_clock_setup+0x15c>  // b.any
    ff602500:	aa1403e0 	mov	x0, x20
    ff602504:	52800021 	mov	w1, #0x1                   	// #1
    ff602508:	94000a2e 	bl	ff604dc0 <s32gen1_enable>
    ff60250c:	350002a0 	cbnz	w0, ff602560 <s32_a53_clock_setup+0x150>
    ff602510:	f00000c1 	adrp	x1, ff61d000 <__RO_END__>
    ff602514:	f00000c0 	adrp	x0, ff61d000 <__RO_END__>
    ff602518:	9100e021 	add	x1, x1, #0x38
    ff60251c:	91036000 	add	x0, x0, #0xd8
    ff602520:	94001e5c 	bl	ff609e90 <s32gen1_set_parent>
    ff602524:	350001e0 	cbnz	w0, ff602560 <s32_a53_clock_setup+0x150>
    ff602528:	f9401261 	ldr	x1, [x19, #32]
    ff60252c:	f00000d4 	adrp	x20, ff61d000 <__RO_END__>
    ff602530:	91060294 	add	x20, x20, #0x180
    ff602534:	aa1403e0 	mov	x0, x20
    ff602538:	94001e36 	bl	ff609e10 <s32gen1_set_rate>
    ff60253c:	f9401261 	ldr	x1, [x19, #32]
    ff602540:	eb01001f 	cmp	x0, x1
    ff602544:	54000141 	b.ne	ff60256c <s32_a53_clock_setup+0x15c>  // b.any
    ff602548:	aa1403e0 	mov	x0, x20
    ff60254c:	52800021 	mov	w1, #0x1                   	// #1
    ff602550:	a94153f3 	ldp	x19, x20, [sp, #16]
    ff602554:	f94013f5 	ldr	x21, [sp, #32]
    ff602558:	a8c37bfd 	ldp	x29, x30, [sp], #48
    ff60255c:	14000a19 	b	ff604dc0 <s32gen1_enable>
    ff602560:	a94153f3 	ldp	x19, x20, [sp, #16]
    ff602564:	f94013f5 	ldr	x21, [sp, #32]
    ff602568:	17ffffb0 	b	ff602428 <s32_a53_clock_setup+0x18>
    ff60256c:	128002a0 	mov	w0, #0xffffffea            	// #-22
    ff602570:	a94153f3 	ldp	x19, x20, [sp, #16]
    ff602574:	f94013f5 	ldr	x21, [sp, #32]
    ff602578:	17ffffac 	b	ff602428 <s32_a53_clock_setup+0x18>
    ff60257c:	00000000 	udf	#0

00000000ff602580 <get_clk_parent>:
    ff602580:	aa0003e1 	mov	x1, x0
    ff602584:	f9400400 	ldr	x0, [x0, #8]
    ff602588:	b4000040 	cbz	x0, ff602590 <get_clk_parent+0x10>
    ff60258c:	d65f03c0 	ret
    ff602590:	f9400820 	ldr	x0, [x1, #16]
    ff602594:	d65f03c0 	ret
	...

00000000ff6025a0 <get_part_link_parent>:
    ff6025a0:	f9400400 	ldr	x0, [x0, #8]
    ff6025a4:	d65f03c0 	ret
	...

00000000ff6025b0 <get_part_block_parent>:
    ff6025b0:	f9400400 	ldr	x0, [x0, #8]
    ff6025b4:	d65f03c0 	ret
	...

00000000ff6025c0 <get_part_block_link_parent>:
    ff6025c0:	f9400400 	ldr	x0, [x0, #8]
    ff6025c4:	d65f03c0 	ret
	...

00000000ff6025d0 <no_parent>:
    ff6025d0:	d2800000 	mov	x0, #0x0                   	// #0
    ff6025d4:	d65f03c0 	ret
	...

00000000ff6025e0 <get_fixed_div_parent>:
    ff6025e0:	f9400400 	ldr	x0, [x0, #8]
    ff6025e4:	d65f03c0 	ret
	...

00000000ff6025f0 <get_pll_div_parent>:
    ff6025f0:	f9400400 	ldr	x0, [x0, #8]
    ff6025f4:	d65f03c0 	ret
	...

00000000ff602600 <no_enable>:
    ff602600:	52800000 	mov	w0, #0x0                   	// #0
    ff602604:	d65f03c0 	ret
	...

00000000ff602610 <get_cgm_div_parent>:
    ff602610:	a9be7bfd 	stp	x29, x30, [sp, #-32]!
    ff602614:	910003fd 	mov	x29, sp
    ff602618:	f9000bf3 	str	x19, [sp, #16]
    ff60261c:	f9400413 	ldr	x19, [x0, #8]
    ff602620:	b40000b3 	cbz	x19, ff602634 <get_cgm_div_parent+0x24>
    ff602624:	aa1303e0 	mov	x0, x19
    ff602628:	f9400bf3 	ldr	x19, [sp, #16]
    ff60262c:	a8c27bfd 	ldp	x29, x30, [sp], #32
    ff602630:	d65f03c0 	ret
    ff602634:	b00000a0 	adrp	x0, ff617000 <psci_args.0+0x28>
    ff602638:	91080000 	add	x0, x0, #0x200
    ff60263c:	97fff7f9 	bl	ff600620 <tf_log>
    ff602640:	17fffff9 	b	ff602624 <get_cgm_div_parent+0x14>
	...

00000000ff602650 <get_dfs_div_parent>:
    ff602650:	a9be7bfd 	stp	x29, x30, [sp, #-32]!
    ff602654:	910003fd 	mov	x29, sp
    ff602658:	f9000bf3 	str	x19, [sp, #16]
    ff60265c:	f9400413 	ldr	x19, [x0, #8]
    ff602660:	b40000b3 	cbz	x19, ff602674 <get_dfs_div_parent+0x24>
    ff602664:	aa1303e0 	mov	x0, x19
    ff602668:	f9400bf3 	ldr	x19, [sp, #16]
    ff60266c:	a8c27bfd 	ldp	x29, x30, [sp], #32
    ff602670:	d65f03c0 	ret
    ff602674:	b00000a0 	adrp	x0, ff617000 <psci_args.0+0x28>
    ff602678:	9108c000 	add	x0, x0, #0x230
    ff60267c:	97fff7e9 	bl	ff600620 <tf_log>
    ff602680:	17fffff9 	b	ff602664 <get_dfs_div_parent+0x14>
	...

00000000ff602690 <get_dfs_parent>:
    ff602690:	a9be7bfd 	stp	x29, x30, [sp, #-32]!
    ff602694:	910003fd 	mov	x29, sp
    ff602698:	f9000bf3 	str	x19, [sp, #16]
    ff60269c:	f9400413 	ldr	x19, [x0, #8]
    ff6026a0:	b40000b3 	cbz	x19, ff6026b4 <get_dfs_parent+0x24>
    ff6026a4:	aa1303e0 	mov	x0, x19
    ff6026a8:	f9400bf3 	ldr	x19, [sp, #16]
    ff6026ac:	a8c27bfd 	ldp	x29, x30, [sp], #32
    ff6026b0:	d65f03c0 	ret
    ff6026b4:	b00000a0 	adrp	x0, ff617000 <psci_args.0+0x28>
    ff6026b8:	91098000 	add	x0, x0, #0x260
    ff6026bc:	97fff7d9 	bl	ff600620 <tf_log>
    ff6026c0:	17fffff9 	b	ff6026a4 <get_dfs_parent+0x14>
	...

00000000ff6026d0 <get_pll_parent>:
    ff6026d0:	a9be7bfd 	stp	x29, x30, [sp, #-32]!
    ff6026d4:	910003fd 	mov	x29, sp
    ff6026d8:	f9000bf3 	str	x19, [sp, #16]
    ff6026dc:	f9400413 	ldr	x19, [x0, #8]
    ff6026e0:	b40000b3 	cbz	x19, ff6026f4 <get_pll_parent+0x24>
    ff6026e4:	aa1303e0 	mov	x0, x19
    ff6026e8:	f9400bf3 	ldr	x19, [sp, #16]
    ff6026ec:	a8c27bfd 	ldp	x29, x30, [sp], #32
    ff6026f0:	d65f03c0 	ret
    ff6026f4:	b00000a0 	adrp	x0, ff617000 <psci_args.0+0x28>
    ff6026f8:	910a2000 	add	x0, x0, #0x288
    ff6026fc:	97fff7c9 	bl	ff600620 <tf_log>
    ff602700:	17fffff9 	b	ff6026e4 <get_pll_parent+0x14>
	...

00000000ff602710 <cgm_mux_clk_config>:
    ff602710:	531a6427 	lsl	w7, w1, #6
    ff602714:	1284e1e4 	mov	w4, #0xffffd8f0            	// #-10000
    ff602718:	8b070007 	add	x7, x0, x7
    ff60271c:	0b040042 	add	w2, w2, w4
    ff602720:	12001c63 	and	w3, w3, #0xff
    ff602724:	910c10e4 	add	x4, x7, #0x304
    ff602728:	b94304e5 	ldr	w5, [x7, #772]
    ff60272c:	d35874a6 	ubfx	x6, x5, #24, #6
    ff602730:	6b0200df 	cmp	w6, w2
    ff602734:	54000520 	b.eq	ff6027d8 <cgm_mux_clk_config+0xc8>  // b.none
    ff602738:	a9bf7bfd 	stp	x29, x30, [sp, #-16]!
    ff60273c:	910003fd 	mov	x29, sp
    ff602740:	b9400085 	ldr	w5, [x4]
    ff602744:	3787ffe5 	tbnz	w5, #16, ff602740 <cgm_mux_clk_config+0x30>
    ff602748:	b94300e5 	ldr	w5, [x7, #768]
    ff60274c:	53081448 	ubfiz	w8, w2, #24, #6
    ff602750:	7100007f 	cmp	w3, #0x0
    ff602754:	910c00e6 	add	x6, x7, #0x300
    ff602758:	120264a5 	and	w5, w5, #0xc0ffffff
    ff60275c:	2a050108 	orr	w8, w8, w5
    ff602760:	321d00a5 	orr	w5, w5, #0x8
    ff602764:	321e0108 	orr	w8, w8, #0x4
    ff602768:	1a8810a5 	csel	w5, w5, w8, ne  // ne = any
    ff60276c:	b90300e5 	str	w5, [x7, #768]
    ff602770:	b94000c5 	ldr	w5, [x6]
    ff602774:	3717ffe5 	tbnz	w5, #2, ff602770 <cgm_mux_clk_config+0x60>
    ff602778:	b9400085 	ldr	w5, [x4]
    ff60277c:	3787ffe5 	tbnz	w5, #16, ff602778 <cgm_mux_clk_config+0x68>
    ff602780:	b94304e4 	ldr	w4, [x7, #772]
    ff602784:	35000143 	cbnz	w3, ff6027ac <cgm_mux_clk_config+0x9c>
    ff602788:	d3514c83 	ubfx	x3, x4, #17, #3
    ff60278c:	7100047f 	cmp	w3, #0x1
    ff602790:	54000341 	b.ne	ff6027f8 <cgm_mux_clk_config+0xe8>  // b.any
    ff602794:	d3587484 	ubfx	x4, x4, #24, #6
    ff602798:	6b02009f 	cmp	w4, w2
    ff60279c:	540002e1 	b.ne	ff6027f8 <cgm_mux_clk_config+0xe8>  // b.any
    ff6027a0:	52800000 	mov	w0, #0x0                   	// #0
    ff6027a4:	a8c17bfd 	ldp	x29, x30, [sp], #16
    ff6027a8:	d65f03c0 	ret
    ff6027ac:	53117c82 	lsr	w2, w4, #17
    ff6027b0:	121f0442 	and	w2, w2, #0x6
    ff6027b4:	7100105f 	cmp	w2, #0x4
    ff6027b8:	54000041 	b.ne	ff6027c0 <cgm_mux_clk_config+0xb0>  // b.any
    ff6027bc:	371fff24 	tbnz	w4, #3, ff6027a0 <cgm_mux_clk_config+0x90>
    ff6027c0:	aa0003e2 	mov	x2, x0
    ff6027c4:	b00000a0 	adrp	x0, ff617000 <psci_args.0+0x28>
    ff6027c8:	910bc000 	add	x0, x0, #0x2f0
    ff6027cc:	97fff795 	bl	ff600620 <tf_log>
    ff6027d0:	128002a0 	mov	w0, #0xffffffea            	// #-22
    ff6027d4:	17fffff4 	b	ff6027a4 <cgm_mux_clk_config+0x94>
    ff6027d8:	d3514ca6 	ubfx	x6, x5, #17, #3
    ff6027dc:	710004df 	cmp	w6, #0x1
    ff6027e0:	54fffac1 	b.ne	ff602738 <cgm_mux_clk_config+0x28>  // b.any
    ff6027e4:	f27000bf 	tst	x5, #0x10000
    ff6027e8:	7a400860 	ccmp	w3, #0x0, #0x0, eq  // eq = none
    ff6027ec:	54fffa61 	b.ne	ff602738 <cgm_mux_clk_config+0x28>  // b.any
    ff6027f0:	52800000 	mov	w0, #0x0                   	// #0
    ff6027f4:	d65f03c0 	ret
    ff6027f8:	aa0003e3 	mov	x3, x0
    ff6027fc:	b00000a0 	adrp	x0, ff617000 <psci_args.0+0x28>
    ff602800:	910ac000 	add	x0, x0, #0x2b0
    ff602804:	97fff787 	bl	ff600620 <tf_log>
    ff602808:	128002a0 	mov	w0, #0xffffffea            	// #-22
    ff60280c:	17ffffe6 	b	ff6027a4 <cgm_mux_clk_config+0x94>

00000000ff602810 <enable_part>:
    ff602810:	b9400800 	ldr	w0, [x0, #8]
    ff602814:	340000e2 	cbz	w2, ff602830 <enable_part+0x20>
    ff602818:	a9bf7bfd 	stp	x29, x30, [sp, #-16]!
    ff60281c:	910003fd 	mov	x29, sp
    ff602820:	94003a6c 	bl	ff6111d0 <mc_me_enable_partition>
    ff602824:	52800000 	mov	w0, #0x0                   	// #0
    ff602828:	a8c17bfd 	ldp	x29, x30, [sp], #16
    ff60282c:	d65f03c0 	ret
    ff602830:	14003acc 	b	ff611360 <mc_me_disable_partition>
	...

00000000ff602840 <enable_dfs>:
    ff602840:	a9be7bfd 	stp	x29, x30, [sp, #-32]!
    ff602844:	910003fd 	mov	x29, sp
    ff602848:	f9000bf3 	str	x19, [sp, #16]
    ff60284c:	52800013 	mov	w19, #0x0                   	// #0
    ff602850:	35000082 	cbnz	w2, ff602860 <enable_dfs+0x20>
    ff602854:	b9400402 	ldr	w2, [x0, #4]
    ff602858:	52800013 	mov	w19, #0x0                   	// #0
    ff60285c:	340000a2 	cbz	w2, ff602870 <enable_dfs+0x30>
    ff602860:	2a1303e0 	mov	w0, w19
    ff602864:	f9400bf3 	ldr	x19, [sp, #16]
    ff602868:	a8c27bfd 	ldp	x29, x30, [sp], #32
    ff60286c:	d65f03c0 	ret
    ff602870:	b9401000 	ldr	w0, [x0, #16]
    ff602874:	9400151f 	bl	ff607cf0 <get_base_addr>
    ff602878:	b40000e0 	cbz	x0, ff602894 <enable_dfs+0x54>
    ff60287c:	52800041 	mov	w1, #0x2                   	// #2
    ff602880:	b9001801 	str	w1, [x0, #24]
    ff602884:	2a1303e0 	mov	w0, w19
    ff602888:	f9400bf3 	ldr	x19, [sp, #16]
    ff60288c:	a8c27bfd 	ldp	x29, x30, [sp], #32
    ff602890:	d65f03c0 	ret
    ff602894:	128002b3 	mov	w19, #0xffffffea            	// #-22
    ff602898:	17fffff2 	b	ff602860 <enable_dfs+0x20>
    ff60289c:	00000000 	udf	#0

00000000ff6028a0 <exec_cb_with_refcount.part.0>:
    ff6028a0:	a9be7bfd 	stp	x29, x30, [sp, #-32]!
    ff6028a4:	aa0003e5 	mov	x5, x0
    ff6028a8:	910003fd 	mov	x29, sp
    ff6028ac:	f9000bf3 	str	x19, [sp, #16]
    ff6028b0:	aa0103f3 	mov	x19, x1
    ff6028b4:	aa0203e1 	mov	x1, x2
    ff6028b8:	b9400664 	ldr	w4, [x19, #4]
    ff6028bc:	34000103 	cbz	w3, ff6028dc <exec_cb_with_refcount.part.0+0x3c>
    ff6028c0:	340002c4 	cbz	w4, ff602918 <exec_cb_with_refcount.part.0+0x78>
    ff6028c4:	11000484 	add	w4, w4, #0x1
    ff6028c8:	52800000 	mov	w0, #0x0                   	// #0
    ff6028cc:	b9000664 	str	w4, [x19, #4]
    ff6028d0:	f9400bf3 	ldr	x19, [sp, #16]
    ff6028d4:	a8c27bfd 	ldp	x29, x30, [sp], #32
    ff6028d8:	d65f03c0 	ret
    ff6028dc:	340002a4 	cbz	w4, ff602930 <exec_cb_with_refcount.part.0+0x90>
    ff6028e0:	51000484 	sub	w4, w4, #0x1
    ff6028e4:	b9000664 	str	w4, [x19, #4]
    ff6028e8:	52800000 	mov	w0, #0x0                   	// #0
    ff6028ec:	35ffff24 	cbnz	w4, ff6028d0 <exec_cb_with_refcount.part.0+0x30>
    ff6028f0:	aa1303e0 	mov	x0, x19
    ff6028f4:	52800002 	mov	w2, #0x0                   	// #0
    ff6028f8:	d63f00a0 	blr	x5
    ff6028fc:	34fffea0 	cbz	w0, ff6028d0 <exec_cb_with_refcount.part.0+0x30>
    ff602900:	b9400661 	ldr	w1, [x19, #4]
    ff602904:	11000421 	add	w1, w1, #0x1
    ff602908:	b9000661 	str	w1, [x19, #4]
    ff60290c:	f9400bf3 	ldr	x19, [sp, #16]
    ff602910:	a8c27bfd 	ldp	x29, x30, [sp], #32
    ff602914:	d65f03c0 	ret
    ff602918:	2a0303e2 	mov	w2, w3
    ff60291c:	aa1303e0 	mov	x0, x19
    ff602920:	d63f00a0 	blr	x5
    ff602924:	35fffd60 	cbnz	w0, ff6028d0 <exec_cb_with_refcount.part.0+0x30>
    ff602928:	b9400664 	ldr	w4, [x19, #4]
    ff60292c:	17ffffe6 	b	ff6028c4 <exec_cb_with_refcount.part.0+0x24>
    ff602930:	b9400261 	ldr	w1, [x19]
    ff602934:	b00000a0 	adrp	x0, ff617000 <psci_args.0+0x28>
    ff602938:	910ca000 	add	x0, x0, #0x328
    ff60293c:	97fff739 	bl	ff600620 <tf_log>
    ff602940:	128002a0 	mov	w0, #0xffffffea            	// #-22
    ff602944:	17ffffe3 	b	ff6028d0 <exec_cb_with_refcount.part.0+0x30>
	...

00000000ff602950 <get_mux_parent>:
    ff602950:	a9be7bfd 	stp	x29, x30, [sp, #-32]!
    ff602954:	910003fd 	mov	x29, sp
    ff602958:	a90153f3 	stp	x19, x20, [sp, #16]
    ff60295c:	aa0003f4 	mov	x20, x0
    ff602960:	b9401000 	ldr	w0, [x0, #16]
    ff602964:	94001807 	bl	ff608980 <get_clock>
    ff602968:	aa0003f3 	mov	x19, x0
    ff60296c:	b40000a0 	cbz	x0, ff602980 <get_mux_parent+0x30>
    ff602970:	aa1303e0 	mov	x0, x19
    ff602974:	a94153f3 	ldp	x19, x20, [sp, #16]
    ff602978:	a8c27bfd 	ldp	x29, x30, [sp], #32
    ff60297c:	d65f03c0 	ret
    ff602980:	39403282 	ldrb	w2, [x20, #12]
    ff602984:	b00000a0 	adrp	x0, ff617000 <psci_args.0+0x28>
    ff602988:	b9401281 	ldr	w1, [x20, #16]
    ff60298c:	910da000 	add	x0, x0, #0x368
    ff602990:	97fff724 	bl	ff600620 <tf_log>
    ff602994:	17fffff7 	b	ff602970 <get_mux_parent+0x20>
	...

00000000ff6029a0 <enable_part_block>:
    ff6029a0:	a9bd7bfd 	stp	x29, x30, [sp, #-48]!
    ff6029a4:	aa0003e4 	mov	x4, x0
    ff6029a8:	910003fd 	mov	x29, sp
    ff6029ac:	b9401005 	ldr	w5, [x0, #16]
    ff6029b0:	f9400400 	ldr	x0, [x0, #8]
    ff6029b4:	b9400800 	ldr	w0, [x0, #8]
    ff6029b8:	71003cbf 	cmp	w5, #0xf
    ff6029bc:	540006a8 	b.hi	ff602a90 <enable_part_block+0xf0>  // b.pmore
    ff6029c0:	a90153f3 	stp	x19, x20, [sp, #16]
    ff6029c4:	53175803 	lsl	w3, w0, #9
    ff6029c8:	f9402833 	ldr	x19, [x1, #80]
    ff6029cc:	a9025bf5 	stp	x21, x22, [sp, #32]
    ff6029d0:	d2800021 	mov	x1, #0x1                   	// #1
    ff6029d4:	39405096 	ldrb	w22, [x4, #20]
    ff6029d8:	53175815 	lsl	w21, w0, #9
    ff6029dc:	9ac52024 	lsl	x4, x1, x5
    ff6029e0:	8b030263 	add	x3, x19, x3
    ff6029e4:	2a0403f4 	mov	w20, w4
    ff6029e8:	34000282 	cbz	w2, ff602a38 <enable_part_block+0x98>
    ff6029ec:	b9413062 	ldr	w2, [x3, #304]
    ff6029f0:	2a040042 	orr	w2, w2, w4
    ff6029f4:	b9013062 	str	w2, [x3, #304]
    ff6029f8:	b9410062 	ldr	w2, [x3, #256]
    ff6029fc:	32000042 	orr	w2, w2, #0x1
    ff602a00:	b9010062 	str	w2, [x3, #256]
    ff602a04:	940039db 	bl	ff611170 <mc_me_part_pupd_update_and_wait>
    ff602a08:	340000f6 	cbz	w22, ff602a24 <enable_part_block+0x84>
    ff602a0c:	11044260 	add	w0, w19, #0x110
    ff602a10:	0b150000 	add	w0, w0, w21
    ff602a14:	d503201f 	nop
    ff602a18:	b9400001 	ldr	w1, [x0]
    ff602a1c:	6a14003f 	tst	w1, w20
    ff602a20:	54ffffc0 	b.eq	ff602a18 <enable_part_block+0x78>  // b.none
    ff602a24:	a94153f3 	ldp	x19, x20, [sp, #16]
    ff602a28:	52800000 	mov	w0, #0x0                   	// #0
    ff602a2c:	a9425bf5 	ldp	x21, x22, [sp, #32]
    ff602a30:	a8c37bfd 	ldp	x29, x30, [sp], #48
    ff602a34:	d65f03c0 	ret
    ff602a38:	b9413062 	ldr	w2, [x3, #304]
    ff602a3c:	6a04005f 	tst	w2, w4
    ff602a40:	540001c0 	b.eq	ff602a78 <enable_part_block+0xd8>  // b.none
    ff602a44:	0a240044 	bic	w4, w2, w4
    ff602a48:	b9013064 	str	w4, [x3, #304]
    ff602a4c:	b9410062 	ldr	w2, [x3, #256]
    ff602a50:	32000042 	orr	w2, w2, #0x1
    ff602a54:	b9010062 	str	w2, [x3, #256]
    ff602a58:	940039c6 	bl	ff611170 <mc_me_part_pupd_update_and_wait>
    ff602a5c:	34fffe56 	cbz	w22, ff602a24 <enable_part_block+0x84>
    ff602a60:	11044273 	add	w19, w19, #0x110
    ff602a64:	0b150273 	add	w19, w19, w21
    ff602a68:	b9400260 	ldr	w0, [x19]
    ff602a6c:	6a14001f 	tst	w0, w20
    ff602a70:	54ffffc1 	b.ne	ff602a68 <enable_part_block+0xc8>  // b.any
    ff602a74:	17ffffec 	b	ff602a24 <enable_part_block+0x84>
    ff602a78:	2a0003e2 	mov	w2, w0
    ff602a7c:	2a0503e1 	mov	w1, w5
    ff602a80:	b00000a0 	adrp	x0, ff617000 <psci_args.0+0x28>
    ff602a84:	910e4000 	add	x0, x0, #0x390
    ff602a88:	97fff6e6 	bl	ff600620 <tf_log>
    ff602a8c:	17ffffe6 	b	ff602a24 <enable_part_block+0x84>
    ff602a90:	2a0503e1 	mov	w1, w5
    ff602a94:	b00000a0 	adrp	x0, ff617000 <psci_args.0+0x28>
    ff602a98:	910f2000 	add	x0, x0, #0x3c8
    ff602a9c:	97fff6e1 	bl	ff600620 <tf_log>
    ff602aa0:	128002a0 	mov	w0, #0xffffffea            	// #-22
    ff602aa4:	17ffffe3 	b	ff602a30 <enable_part_block+0x90>
	...

00000000ff602ab0 <enable_osc>:
    ff602ab0:	aa0103e3 	mov	x3, x1
    ff602ab4:	b9400801 	ldr	w1, [x0, #8]
    ff602ab8:	7100283f 	cmp	w1, #0xa
    ff602abc:	540001a0 	b.eq	ff602af0 <enable_osc+0x40>  // b.none
    ff602ac0:	121d7822 	and	w2, w1, #0xfffffffb
    ff602ac4:	52800000 	mov	w0, #0x0                   	// #0
    ff602ac8:	7100245f 	cmp	w2, #0x9
    ff602acc:	54000260 	b.eq	ff602b18 <enable_osc+0x68>  // b.none
    ff602ad0:	a9bf7bfd 	stp	x29, x30, [sp, #-16]!
    ff602ad4:	b00000a0 	adrp	x0, ff617000 <psci_args.0+0x28>
    ff602ad8:	910fc000 	add	x0, x0, #0x3f0
    ff602adc:	910003fd 	mov	x29, sp
    ff602ae0:	97fff6d0 	bl	ff600620 <tf_log>
    ff602ae4:	128002a0 	mov	w0, #0xffffffea            	// #-22
    ff602ae8:	a8c17bfd 	ldp	x29, x30, [sp], #16
    ff602aec:	d65f03c0 	ret
    ff602af0:	f9402460 	ldr	x0, [x3, #72]
    ff602af4:	35000142 	cbnz	w2, ff602b1c <enable_osc+0x6c>
    ff602af8:	aa0003e1 	mov	x1, x0
    ff602afc:	b9400000 	ldr	w0, [x0]
    ff602b00:	121f7800 	and	w0, w0, #0xfffffffe
    ff602b04:	b8004420 	str	w0, [x1], #4
    ff602b08:	b9400020 	ldr	w0, [x1]
    ff602b0c:	37ffffe0 	tbnz	w0, #31, ff602b08 <enable_osc+0x58>
    ff602b10:	52800000 	mov	w0, #0x0                   	// #0
    ff602b14:	d65f03c0 	ret
    ff602b18:	d65f03c0 	ret
    ff602b1c:	b9400001 	ldr	w1, [x0]
    ff602b20:	3707ff81 	tbnz	w1, #0, ff602b10 <enable_osc+0x60>
    ff602b24:	52800e01 	mov	w1, #0x70                  	// #112
    ff602b28:	72a02021 	movk	w1, #0x101, lsl #16
    ff602b2c:	b9000001 	str	w1, [x0]
    ff602b30:	aa0003e1 	mov	x1, x0
    ff602b34:	b9400000 	ldr	w0, [x0]
    ff602b38:	32000000 	orr	w0, w0, #0x1
    ff602b3c:	b8004420 	str	w0, [x1], #4
    ff602b40:	b9400020 	ldr	w0, [x1]
    ff602b44:	36ffffe0 	tbz	w0, #31, ff602b40 <enable_osc+0x90>
    ff602b48:	17fffff2 	b	ff602b10 <enable_osc+0x60>
    ff602b4c:	00000000 	udf	#0

00000000ff602b50 <enable_cgm_div>:
    ff602b50:	a9bc7bfd 	stp	x29, x30, [sp, #-64]!
    ff602b54:	910003fd 	mov	x29, sp
    ff602b58:	a90153f3 	stp	x19, x20, [sp, #16]
    ff602b5c:	aa0003f4 	mov	x20, x0
    ff602b60:	f9400400 	ldr	x0, [x0, #8]
    ff602b64:	b4001f60 	cbz	x0, ff602f50 <enable_cgm_div+0x400>
    ff602b68:	a9025bf5 	stp	x21, x22, [sp, #32]
    ff602b6c:	2a0203f6 	mov	w22, w2
    ff602b70:	f9400e82 	ldr	x2, [x20, #24]
    ff602b74:	b4001d02 	cbz	x2, ff602f14 <enable_cgm_div+0x3c4>
    ff602b78:	b9400002 	ldr	w2, [x0]
    ff602b7c:	71003c5f 	cmp	w2, #0xf
    ff602b80:	540018c1 	b.ne	ff602e98 <enable_cgm_div+0x348>  // b.any
    ff602b84:	f9400415 	ldr	x21, [x0, #8]
    ff602b88:	b4001a75 	cbz	x21, ff602ed4 <enable_cgm_div+0x384>
    ff602b8c:	b94002a0 	ldr	w0, [x21]
    ff602b90:	f9001bf7 	str	x23, [sp, #48]
    ff602b94:	51001000 	sub	w0, w0, #0x4
    ff602b98:	7100081f 	cmp	w0, #0x2
    ff602b9c:	540018e8 	b.hi	ff602eb8 <enable_cgm_div+0x368>  // b.pmore
    ff602ba0:	b9400aa0 	ldr	w0, [x21, #8]
    ff602ba4:	aa0103f7 	mov	x23, x1
    ff602ba8:	94001452 	bl	ff607cf0 <get_base_addr>
    ff602bac:	aa0003f3 	mov	x19, x0
    ff602bb0:	b40016a0 	cbz	x0, ff602e84 <enable_cgm_div+0x334>
    ff602bb4:	f9400680 	ldr	x0, [x20, #8]
    ff602bb8:	aa1703e1 	mov	x1, x23
    ff602bbc:	94000d1d 	bl	ff606030 <get_module_rate>
    ff602bc0:	394032a1 	ldrb	w1, [x21, #12]
    ff602bc4:	b4001b60 	cbz	x0, ff602f30 <enable_cgm_div+0x3e0>
    ff602bc8:	34001496 	cbz	w22, ff602e58 <enable_cgm_div+0x308>
    ff602bcc:	d29c2002 	mov	x2, #0xe100                	// #57600
    ff602bd0:	d2800045 	mov	x5, #0x2                   	// #2
    ff602bd4:	f9400e84 	ldr	x4, [x20, #24]
    ff602bd8:	f2a0bea2 	movk	x2, #0x5f5, lsl #16
    ff602bdc:	9b027c09 	mul	x9, x0, x2
    ff602be0:	9b027c82 	mul	x2, x4, x2
    ff602be4:	aa0903ea 	mov	x10, x9
    ff602be8:	9ac50946 	udiv	x6, x10, x5
    ff602bec:	9b05a8c3 	msub	x3, x6, x5, x10
    ff602bf0:	b40000e3 	cbz	x3, ff602c0c <enable_cgm_div+0xbc>
    ff602bf4:	14000009 	b	ff602c18 <enable_cgm_div+0xc8>
    ff602bf8:	aa0603ea 	mov	x10, x6
    ff602bfc:	aa0703e2 	mov	x2, x7
    ff602c00:	9ac508c6 	udiv	x6, x6, x5
    ff602c04:	9b05a8c3 	msub	x3, x6, x5, x10
    ff602c08:	b5000083 	cbnz	x3, ff602c18 <enable_cgm_div+0xc8>
    ff602c0c:	9ac50847 	udiv	x7, x2, x5
    ff602c10:	9b0588e3 	msub	x3, x7, x5, x2
    ff602c14:	b4ffff23 	cbz	x3, ff602bf8 <enable_cgm_div+0xa8>
    ff602c18:	910004a5 	add	x5, x5, #0x1
    ff602c1c:	f10018bf 	cmp	x5, #0x6
    ff602c20:	54fffe41 	b.ne	ff602be8 <enable_cgm_div+0x98>  // b.any
    ff602c24:	d29c2008 	mov	x8, #0xe100                	// #57600
    ff602c28:	d2800045 	mov	x5, #0x2                   	// #2
    ff602c2c:	f2a0bea8 	movk	x8, #0x5f5, lsl #16
    ff602c30:	9ac50906 	udiv	x6, x8, x5
    ff602c34:	9b05a0c3 	msub	x3, x6, x5, x8
    ff602c38:	b40000e3 	cbz	x3, ff602c54 <enable_cgm_div+0x104>
    ff602c3c:	14000009 	b	ff602c60 <enable_cgm_div+0x110>
    ff602c40:	aa0603e8 	mov	x8, x6
    ff602c44:	aa0703e2 	mov	x2, x7
    ff602c48:	9ac508c6 	udiv	x6, x6, x5
    ff602c4c:	9b05a0c3 	msub	x3, x6, x5, x8
    ff602c50:	b5000083 	cbnz	x3, ff602c60 <enable_cgm_div+0x110>
    ff602c54:	9ac50847 	udiv	x7, x2, x5
    ff602c58:	9b0588e3 	msub	x3, x7, x5, x2
    ff602c5c:	b4ffff23 	cbz	x3, ff602c40 <enable_cgm_div+0xf0>
    ff602c60:	910004a5 	add	x5, x5, #0x1
    ff602c64:	f10018bf 	cmp	x5, #0x6
    ff602c68:	54fffe41 	b.ne	ff602c30 <enable_cgm_div+0xe0>  // b.any
    ff602c6c:	f100015f 	cmp	x10, #0x0
    ff602c70:	9b0a7d03 	mul	x3, x8, x10
    ff602c74:	fa401904 	ccmp	x8, #0x0, #0x4, ne  // ne = any
    ff602c78:	d2800027 	mov	x7, #0x1                   	// #1
    ff602c7c:	54000240 	b.eq	ff602cc4 <enable_cgm_div+0x174>  // b.none
    ff602c80:	9aca0865 	udiv	x5, x3, x10
    ff602c84:	eb05011f 	cmp	x8, x5
    ff602c88:	540001e0 	b.eq	ff602cc4 <enable_cgm_div+0x174>  // b.none
    ff602c8c:	aa0803e5 	mov	x5, x8
    ff602c90:	aa0a03e3 	mov	x3, x10
    ff602c94:	d503201f 	nop
    ff602c98:	d341fc63 	lsr	x3, x3, #1
    ff602c9c:	d341fca5 	lsr	x5, x5, #1
    ff602ca0:	d37ff8e7 	lsl	x7, x7, #1
    ff602ca4:	9b057c66 	mul	x6, x3, x5
    ff602ca8:	9ac308c6 	udiv	x6, x6, x3
    ff602cac:	eb0500df 	cmp	x6, x5
    ff602cb0:	54ffff41 	b.ne	ff602c98 <enable_cgm_div+0x148>  // b.any
    ff602cb4:	9ac7094a 	udiv	x10, x10, x7
    ff602cb8:	9ac70908 	udiv	x8, x8, x7
    ff602cbc:	9ac70842 	udiv	x2, x2, x7
    ff602cc0:	9b087d43 	mul	x3, x10, x8
    ff602cc4:	9ac20863 	udiv	x3, x3, x2
    ff602cc8:	d2884808 	mov	x8, #0x4240                	// #16960
    ff602ccc:	f2a001e8 	movk	x8, #0xf, lsl #16
    ff602cd0:	d299dfa5 	mov	x5, #0xcefd                	// #52989
    ff602cd4:	f2b08c25 	movk	x5, #0x8461, lsl #16
    ff602cd8:	d29c2002 	mov	x2, #0xe100                	// #57600
    ff602cdc:	f2cee225 	movk	x5, #0x7711, lsl #32
    ff602ce0:	f2a0bea2 	movk	x2, #0x5f5, lsl #16
    ff602ce4:	9b072063 	madd	x3, x3, x7, x8
    ff602ce8:	f2f57985 	movk	x5, #0xabcc, lsl #48
    ff602cec:	d2800046 	mov	x6, #0x2                   	// #2
    ff602cf0:	9bc57c63 	umulh	x3, x3, x5
    ff602cf4:	d35ae465 	ubfx	x5, x3, #26, #32
    ff602cf8:	d35afc6b 	lsr	x11, x3, #26
    ff602cfc:	9b027ca2 	mul	x2, x5, x2
    ff602d00:	9ac60927 	udiv	x7, x9, x6
    ff602d04:	9b06a4e3 	msub	x3, x7, x6, x9
    ff602d08:	b40000e3 	cbz	x3, ff602d24 <enable_cgm_div+0x1d4>
    ff602d0c:	14000009 	b	ff602d30 <enable_cgm_div+0x1e0>
    ff602d10:	aa0703e9 	mov	x9, x7
    ff602d14:	aa0803e2 	mov	x2, x8
    ff602d18:	9ac608e7 	udiv	x7, x7, x6
    ff602d1c:	9b06a4e3 	msub	x3, x7, x6, x9
    ff602d20:	b5000083 	cbnz	x3, ff602d30 <enable_cgm_div+0x1e0>
    ff602d24:	9ac60848 	udiv	x8, x2, x6
    ff602d28:	9b068903 	msub	x3, x8, x6, x2
    ff602d2c:	b4ffff23 	cbz	x3, ff602d10 <enable_cgm_div+0x1c0>
    ff602d30:	910004c6 	add	x6, x6, #0x1
    ff602d34:	f10018df 	cmp	x6, #0x6
    ff602d38:	54fffe41 	b.ne	ff602d00 <enable_cgm_div+0x1b0>  // b.any
    ff602d3c:	d29c200a 	mov	x10, #0xe100                	// #57600
    ff602d40:	d2800046 	mov	x6, #0x2                   	// #2
    ff602d44:	f2a0beaa 	movk	x10, #0x5f5, lsl #16
    ff602d48:	9ac60947 	udiv	x7, x10, x6
    ff602d4c:	9b06a8e3 	msub	x3, x7, x6, x10
    ff602d50:	b40000e3 	cbz	x3, ff602d6c <enable_cgm_div+0x21c>
    ff602d54:	14000009 	b	ff602d78 <enable_cgm_div+0x228>
    ff602d58:	aa0703ea 	mov	x10, x7
    ff602d5c:	aa0803e2 	mov	x2, x8
    ff602d60:	9ac608e7 	udiv	x7, x7, x6
    ff602d64:	9b06a8e3 	msub	x3, x7, x6, x10
    ff602d68:	b5000083 	cbnz	x3, ff602d78 <enable_cgm_div+0x228>
    ff602d6c:	9ac60848 	udiv	x8, x2, x6
    ff602d70:	9b068903 	msub	x3, x8, x6, x2
    ff602d74:	b4ffff23 	cbz	x3, ff602d58 <enable_cgm_div+0x208>
    ff602d78:	910004c6 	add	x6, x6, #0x1
    ff602d7c:	f10018df 	cmp	x6, #0x6
    ff602d80:	54fffe41 	b.ne	ff602d48 <enable_cgm_div+0x1f8>  // b.any
    ff602d84:	f100013f 	cmp	x9, #0x0
    ff602d88:	9b097d43 	mul	x3, x10, x9
    ff602d8c:	fa401944 	ccmp	x10, #0x0, #0x4, ne  // ne = any
    ff602d90:	d2800028 	mov	x8, #0x1                   	// #1
    ff602d94:	54000240 	b.eq	ff602ddc <enable_cgm_div+0x28c>  // b.none
    ff602d98:	9ac90866 	udiv	x6, x3, x9
    ff602d9c:	eb0a00df 	cmp	x6, x10
    ff602da0:	540001e0 	b.eq	ff602ddc <enable_cgm_div+0x28c>  // b.none
    ff602da4:	aa0a03e6 	mov	x6, x10
    ff602da8:	aa0903e3 	mov	x3, x9
    ff602dac:	d503201f 	nop
    ff602db0:	d341fc63 	lsr	x3, x3, #1
    ff602db4:	d341fcc6 	lsr	x6, x6, #1
    ff602db8:	d37ff908 	lsl	x8, x8, #1
    ff602dbc:	9b067c67 	mul	x7, x3, x6
    ff602dc0:	9ac308e7 	udiv	x7, x7, x3
    ff602dc4:	eb0600ff 	cmp	x7, x6
    ff602dc8:	54ffff41 	b.ne	ff602db0 <enable_cgm_div+0x260>  // b.any
    ff602dcc:	9ac80929 	udiv	x9, x9, x8
    ff602dd0:	9ac8094a 	udiv	x10, x10, x8
    ff602dd4:	9ac80842 	udiv	x2, x2, x8
    ff602dd8:	9b0a7d23 	mul	x3, x9, x10
    ff602ddc:	9ac20862 	udiv	x2, x3, x2
    ff602de0:	d2884806 	mov	x6, #0x4240                	// #16960
    ff602de4:	f2a001e6 	movk	x6, #0xf, lsl #16
    ff602de8:	d299dfa3 	mov	x3, #0xcefd                	// #52989
    ff602dec:	f2b08c23 	movk	x3, #0x8461, lsl #16
    ff602df0:	f2cee223 	movk	x3, #0x7711, lsl #32
    ff602df4:	9b081842 	madd	x2, x2, x8, x6
    ff602df8:	f2f57983 	movk	x3, #0xabcc, lsl #48
    ff602dfc:	9bc37c42 	umulh	x2, x2, x3
    ff602e00:	eb42689f 	cmp	x4, x2, lsr #26
    ff602e04:	54000741 	b.ne	ff602eec <enable_cgm_div+0x39c>  // b.any
    ff602e08:	52800800 	mov	w0, #0x40                  	// #64
    ff602e0c:	51000563 	sub	w3, w11, #0x1
    ff602e10:	52b01fe4 	mov	w4, #0x80ff0000            	// #-2130771968
    ff602e14:	9ba04c21 	umaddl	x1, w1, w0, x19
    ff602e18:	53101c60 	ubfiz	w0, w3, #16, #8
    ff602e1c:	32010000 	orr	w0, w0, #0x80000000
    ff602e20:	b9430822 	ldr	w2, [x1, #776]
    ff602e24:	0a040042 	and	w2, w2, w4
    ff602e28:	6b00005f 	cmp	w2, w0
    ff602e2c:	540000a0 	b.eq	ff602e40 <enable_cgm_div+0x2f0>  // b.none
    ff602e30:	910cf022 	add	x2, x1, #0x33c
    ff602e34:	b9030820 	str	w0, [x1, #776]
    ff602e38:	b9400040 	ldr	w0, [x2]
    ff602e3c:	3707ffe0 	tbnz	w0, #0, ff602e38 <enable_cgm_div+0x2e8>
    ff602e40:	a9425bf5 	ldp	x21, x22, [sp, #32]
    ff602e44:	52800000 	mov	w0, #0x0                   	// #0
    ff602e48:	f9401bf7 	ldr	x23, [sp, #48]
    ff602e4c:	a94153f3 	ldp	x19, x20, [sp, #16]
    ff602e50:	a8c47bfd 	ldp	x29, x30, [sp], #64
    ff602e54:	d65f03c0 	ret
    ff602e58:	52800800 	mov	w0, #0x40                  	// #64
    ff602e5c:	b9401283 	ldr	w3, [x20, #16]
    ff602e60:	9ba04c20 	umaddl	x0, w1, w0, x19
    ff602e64:	b9430802 	ldr	w2, [x0, #776]
    ff602e68:	36f807e2 	tbz	w2, #31, ff602f64 <enable_cgm_div+0x414>
    ff602e6c:	910cf001 	add	x1, x0, #0x33c
    ff602e70:	12007842 	and	w2, w2, #0x7fffffff
    ff602e74:	b9030802 	str	w2, [x0, #776]
    ff602e78:	b9400020 	ldr	w0, [x1]
    ff602e7c:	3707ffe0 	tbnz	w0, #0, ff602e78 <enable_cgm_div+0x328>
    ff602e80:	17fffff0 	b	ff602e40 <enable_cgm_div+0x2f0>
    ff602e84:	b9400aa1 	ldr	w1, [x21, #8]
    ff602e88:	b00000a0 	adrp	x0, ff617000 <psci_args.0+0x28>
    ff602e8c:	9112e000 	add	x0, x0, #0x4b8
    ff602e90:	97fff5e4 	bl	ff600620 <tf_log>
    ff602e94:	17ffff48 	b	ff602bb4 <enable_cgm_div+0x64>
    ff602e98:	b00000a0 	adrp	x0, ff617000 <psci_args.0+0x28>
    ff602e9c:	9110e000 	add	x0, x0, #0x438
    ff602ea0:	97fff5e0 	bl	ff600620 <tf_log>
    ff602ea4:	128002a0 	mov	w0, #0xffffffea            	// #-22
    ff602ea8:	a94153f3 	ldp	x19, x20, [sp, #16]
    ff602eac:	a9425bf5 	ldp	x21, x22, [sp, #32]
    ff602eb0:	a8c47bfd 	ldp	x29, x30, [sp], #64
    ff602eb4:	d65f03c0 	ret
    ff602eb8:	b00000a0 	adrp	x0, ff617000 <psci_args.0+0x28>
    ff602ebc:	91124000 	add	x0, x0, #0x490
    ff602ec0:	97fff5d8 	bl	ff600620 <tf_log>
    ff602ec4:	128002a0 	mov	w0, #0xffffffea            	// #-22
    ff602ec8:	a9425bf5 	ldp	x21, x22, [sp, #32]
    ff602ecc:	f9401bf7 	ldr	x23, [sp, #48]
    ff602ed0:	17ffffdf 	b	ff602e4c <enable_cgm_div+0x2fc>
    ff602ed4:	b00000a0 	adrp	x0, ff617000 <psci_args.0+0x28>
    ff602ed8:	9111a000 	add	x0, x0, #0x468
    ff602edc:	97fff5d1 	bl	ff600620 <tf_log>
    ff602ee0:	128002a0 	mov	w0, #0xffffffea            	// #-22
    ff602ee4:	a9425bf5 	ldp	x21, x22, [sp, #32]
    ff602ee8:	17ffffd9 	b	ff602e4c <enable_cgm_div+0x2fc>
    ff602eec:	9ac50805 	udiv	x5, x0, x5
    ff602ef0:	b9401282 	ldr	w2, [x20, #16]
    ff602ef4:	aa0003e3 	mov	x3, x0
    ff602ef8:	b00000a0 	adrp	x0, ff617000 <psci_args.0+0x28>
    ff602efc:	91160000 	add	x0, x0, #0x580
    ff602f00:	97fff5c8 	bl	ff600620 <tf_log>
    ff602f04:	128002a0 	mov	w0, #0xffffffea            	// #-22
    ff602f08:	a9425bf5 	ldp	x21, x22, [sp, #32]
    ff602f0c:	f9401bf7 	ldr	x23, [sp, #48]
    ff602f10:	17ffffcf 	b	ff602e4c <enable_cgm_div+0x2fc>
    ff602f14:	b9401281 	ldr	w1, [x20, #16]
    ff602f18:	b00000a0 	adrp	x0, ff617000 <psci_args.0+0x28>
    ff602f1c:	91102000 	add	x0, x0, #0x408
    ff602f20:	97fff5c0 	bl	ff600620 <tf_log>
    ff602f24:	128002a0 	mov	w0, #0xffffffea            	// #-22
    ff602f28:	a9425bf5 	ldp	x21, x22, [sp, #32]
    ff602f2c:	17ffffc8 	b	ff602e4c <enable_cgm_div+0x2fc>
    ff602f30:	aa1303e2 	mov	x2, x19
    ff602f34:	b00000a0 	adrp	x0, ff617000 <psci_args.0+0x28>
    ff602f38:	9113c000 	add	x0, x0, #0x4f0
    ff602f3c:	97fff5b9 	bl	ff600620 <tf_log>
    ff602f40:	128002a0 	mov	w0, #0xffffffea            	// #-22
    ff602f44:	a9425bf5 	ldp	x21, x22, [sp, #32]
    ff602f48:	f9401bf7 	ldr	x23, [sp, #48]
    ff602f4c:	17ffffc0 	b	ff602e4c <enable_cgm_div+0x2fc>
    ff602f50:	b00000a0 	adrp	x0, ff617000 <psci_args.0+0x28>
    ff602f54:	91080000 	add	x0, x0, #0x200
    ff602f58:	97fff5b2 	bl	ff600620 <tf_log>
    ff602f5c:	128002a0 	mov	w0, #0xffffffea            	// #-22
    ff602f60:	17ffffbb 	b	ff602e4c <enable_cgm_div+0x2fc>
    ff602f64:	2a0103e2 	mov	w2, w1
    ff602f68:	b00000a0 	adrp	x0, ff617000 <psci_args.0+0x28>
    ff602f6c:	aa1303e1 	mov	x1, x19
    ff602f70:	91150000 	add	x0, x0, #0x540
    ff602f74:	97fff5ab 	bl	ff600620 <tf_log>
    ff602f78:	128002a0 	mov	w0, #0xffffffea            	// #-22
    ff602f7c:	a9425bf5 	ldp	x21, x22, [sp, #32]
    ff602f80:	f9401bf7 	ldr	x23, [sp, #48]
    ff602f84:	17ffffb2 	b	ff602e4c <enable_cgm_div+0x2fc>
	...

00000000ff602f90 <enable_dfs_div>:
    ff602f90:	a9bc7bfd 	stp	x29, x30, [sp, #-64]!
    ff602f94:	910003fd 	mov	x29, sp
    ff602f98:	a9025bf5 	stp	x21, x22, [sp, #32]
    ff602f9c:	f9400415 	ldr	x21, [x0, #8]
    ff602fa0:	a90153f3 	stp	x19, x20, [sp, #16]
    ff602fa4:	aa0003f4 	mov	x20, x0
    ff602fa8:	b94002a0 	ldr	w0, [x21]
    ff602fac:	71000c1f 	cmp	w0, #0x3
    ff602fb0:	54003781 	b.ne	ff6036a0 <enable_dfs_div+0x710>  // b.any
    ff602fb4:	f94006a0 	ldr	x0, [x21, #8]
    ff602fb8:	b4003ca0 	cbz	x0, ff60374c <enable_dfs_div+0x7bc>
    ff602fbc:	b94012a0 	ldr	w0, [x21, #16]
    ff602fc0:	2a0203f6 	mov	w22, w2
    ff602fc4:	f9001bf7 	str	x23, [sp, #48]
    ff602fc8:	aa0103f7 	mov	x23, x1
    ff602fcc:	94001349 	bl	ff607cf0 <get_base_addr>
    ff602fd0:	aa0003f3 	mov	x19, x0
    ff602fd4:	b4003b60 	cbz	x0, ff603740 <enable_dfs_div+0x7b0>
    ff602fd8:	34003756 	cbz	w22, ff6036c0 <enable_dfs_div+0x730>
    ff602fdc:	b9401800 	ldr	w0, [x0, #24]
    ff602fe0:	37083480 	tbnz	w0, #1, ff603670 <enable_dfs_div+0x6e0>
    ff602fe4:	aa1703e1 	mov	x1, x23
    ff602fe8:	aa1503e0 	mov	x0, x21
    ff602fec:	94000c11 	bl	ff606030 <get_module_rate>
    ff602ff0:	b4003900 	cbz	x0, ff603710 <enable_dfs_div+0x780>
    ff602ff4:	d29c2003 	mov	x3, #0xe100                	// #57600
    ff602ff8:	d2800044 	mov	x4, #0x2                   	// #2
    ff602ffc:	f9400e81 	ldr	x1, [x20, #24]
    ff603000:	f2a0bea3 	movk	x3, #0x5f5, lsl #16
    ff603004:	9b037c02 	mul	x2, x0, x3
    ff603008:	9b037c23 	mul	x3, x1, x3
    ff60300c:	aa0203e7 	mov	x7, x2
    ff603010:	9ac408e0 	udiv	x0, x7, x4
    ff603014:	9b049c05 	msub	x5, x0, x4, x7
    ff603018:	b40000e5 	cbz	x5, ff603034 <enable_dfs_div+0xa4>
    ff60301c:	14000009 	b	ff603040 <enable_dfs_div+0xb0>
    ff603020:	aa0003e7 	mov	x7, x0
    ff603024:	aa0503e3 	mov	x3, x5
    ff603028:	9ac40800 	udiv	x0, x0, x4
    ff60302c:	9b049c05 	msub	x5, x0, x4, x7
    ff603030:	b5000085 	cbnz	x5, ff603040 <enable_dfs_div+0xb0>
    ff603034:	9ac40865 	udiv	x5, x3, x4
    ff603038:	9b048ca6 	msub	x6, x5, x4, x3
    ff60303c:	b4ffff26 	cbz	x6, ff603020 <enable_dfs_div+0x90>
    ff603040:	91000484 	add	x4, x4, #0x1
    ff603044:	f100189f 	cmp	x4, #0x6
    ff603048:	54fffe41 	b.ne	ff603010 <enable_dfs_div+0x80>  // b.any
    ff60304c:	d29c2006 	mov	x6, #0xe100                	// #57600
    ff603050:	d2800044 	mov	x4, #0x2                   	// #2
    ff603054:	f2a0bea6 	movk	x6, #0x5f5, lsl #16
    ff603058:	9ac408c0 	udiv	x0, x6, x4
    ff60305c:	9b049805 	msub	x5, x0, x4, x6
    ff603060:	b40000e5 	cbz	x5, ff60307c <enable_dfs_div+0xec>
    ff603064:	14000009 	b	ff603088 <enable_dfs_div+0xf8>
    ff603068:	aa0003e6 	mov	x6, x0
    ff60306c:	aa0503e3 	mov	x3, x5
    ff603070:	9ac40800 	udiv	x0, x0, x4
    ff603074:	9b049805 	msub	x5, x0, x4, x6
    ff603078:	b5000085 	cbnz	x5, ff603088 <enable_dfs_div+0xf8>
    ff60307c:	9ac40865 	udiv	x5, x3, x4
    ff603080:	9b048ca8 	msub	x8, x5, x4, x3
    ff603084:	b4ffff28 	cbz	x8, ff603068 <enable_dfs_div+0xd8>
    ff603088:	91000484 	add	x4, x4, #0x1
    ff60308c:	f100189f 	cmp	x4, #0x6
    ff603090:	54fffe41 	b.ne	ff603058 <enable_dfs_div+0xc8>  // b.any
    ff603094:	f10000ff 	cmp	x7, #0x0
    ff603098:	9b077cc0 	mul	x0, x6, x7
    ff60309c:	fa4018c4 	ccmp	x6, #0x0, #0x4, ne  // ne = any
    ff6030a0:	d2800028 	mov	x8, #0x1                   	// #1
    ff6030a4:	54000240 	b.eq	ff6030ec <enable_dfs_div+0x15c>  // b.none
    ff6030a8:	9ac70804 	udiv	x4, x0, x7
    ff6030ac:	eb06009f 	cmp	x4, x6
    ff6030b0:	540001e0 	b.eq	ff6030ec <enable_dfs_div+0x15c>  // b.none
    ff6030b4:	aa0603e4 	mov	x4, x6
    ff6030b8:	aa0703e0 	mov	x0, x7
    ff6030bc:	d503201f 	nop
    ff6030c0:	d341fc00 	lsr	x0, x0, #1
    ff6030c4:	d341fc84 	lsr	x4, x4, #1
    ff6030c8:	d37ff908 	lsl	x8, x8, #1
    ff6030cc:	9b047c05 	mul	x5, x0, x4
    ff6030d0:	9ac008a5 	udiv	x5, x5, x0
    ff6030d4:	eb0400bf 	cmp	x5, x4
    ff6030d8:	54ffff41 	b.ne	ff6030c0 <enable_dfs_div+0x130>  // b.any
    ff6030dc:	9ac808e7 	udiv	x7, x7, x8
    ff6030e0:	9ac808c6 	udiv	x6, x6, x8
    ff6030e4:	9ac80863 	udiv	x3, x3, x8
    ff6030e8:	9b067ce0 	mul	x0, x7, x6
    ff6030ec:	9ac30800 	udiv	x0, x0, x3
    ff6030f0:	d2984003 	mov	x3, #0xc200                	// #49664
    ff6030f4:	f2a17d63 	movk	x3, #0xbeb, lsl #16
    ff6030f8:	d2800044 	mov	x4, #0x2                   	// #2
    ff6030fc:	9b087c06 	mul	x6, x0, x8
    ff603100:	9ac408c0 	udiv	x0, x6, x4
    ff603104:	9b049805 	msub	x5, x0, x4, x6
    ff603108:	b40000e5 	cbz	x5, ff603124 <enable_dfs_div+0x194>
    ff60310c:	14000009 	b	ff603130 <enable_dfs_div+0x1a0>
    ff603110:	aa0003e6 	mov	x6, x0
    ff603114:	aa0503e3 	mov	x3, x5
    ff603118:	9ac40800 	udiv	x0, x0, x4
    ff60311c:	9b049805 	msub	x5, x0, x4, x6
    ff603120:	b5000085 	cbnz	x5, ff603130 <enable_dfs_div+0x1a0>
    ff603124:	9ac40865 	udiv	x5, x3, x4
    ff603128:	9b048ca7 	msub	x7, x5, x4, x3
    ff60312c:	b4ffff27 	cbz	x7, ff603110 <enable_dfs_div+0x180>
    ff603130:	91000484 	add	x4, x4, #0x1
    ff603134:	f100189f 	cmp	x4, #0x6
    ff603138:	54fffe41 	b.ne	ff603100 <enable_dfs_div+0x170>  // b.any
    ff60313c:	d29c2007 	mov	x7, #0xe100                	// #57600
    ff603140:	d2800044 	mov	x4, #0x2                   	// #2
    ff603144:	f2a0bea7 	movk	x7, #0x5f5, lsl #16
    ff603148:	9ac408e0 	udiv	x0, x7, x4
    ff60314c:	9b049c05 	msub	x5, x0, x4, x7
    ff603150:	b40000e5 	cbz	x5, ff60316c <enable_dfs_div+0x1dc>
    ff603154:	14000009 	b	ff603178 <enable_dfs_div+0x1e8>
    ff603158:	aa0003e7 	mov	x7, x0
    ff60315c:	aa0503e3 	mov	x3, x5
    ff603160:	9ac40800 	udiv	x0, x0, x4
    ff603164:	9b049c05 	msub	x5, x0, x4, x7
    ff603168:	b5000085 	cbnz	x5, ff603178 <enable_dfs_div+0x1e8>
    ff60316c:	9ac40865 	udiv	x5, x3, x4
    ff603170:	9b048ca8 	msub	x8, x5, x4, x3
    ff603174:	b4ffff28 	cbz	x8, ff603158 <enable_dfs_div+0x1c8>
    ff603178:	91000484 	add	x4, x4, #0x1
    ff60317c:	f100189f 	cmp	x4, #0x6
    ff603180:	54fffe41 	b.ne	ff603148 <enable_dfs_div+0x1b8>  // b.any
    ff603184:	f10000df 	cmp	x6, #0x0
    ff603188:	9b067ce0 	mul	x0, x7, x6
    ff60318c:	fa4018e4 	ccmp	x7, #0x0, #0x4, ne  // ne = any
    ff603190:	d2800028 	mov	x8, #0x1                   	// #1
    ff603194:	54000240 	b.eq	ff6031dc <enable_dfs_div+0x24c>  // b.none
    ff603198:	9ac60804 	udiv	x4, x0, x6
    ff60319c:	eb0400ff 	cmp	x7, x4
    ff6031a0:	540001e0 	b.eq	ff6031dc <enable_dfs_div+0x24c>  // b.none
    ff6031a4:	aa0703e4 	mov	x4, x7
    ff6031a8:	aa0603e0 	mov	x0, x6
    ff6031ac:	d503201f 	nop
    ff6031b0:	d341fc00 	lsr	x0, x0, #1
    ff6031b4:	d341fc84 	lsr	x4, x4, #1
    ff6031b8:	d37ff908 	lsl	x8, x8, #1
    ff6031bc:	9b047c05 	mul	x5, x0, x4
    ff6031c0:	9ac008a5 	udiv	x5, x5, x0
    ff6031c4:	eb0400bf 	cmp	x5, x4
    ff6031c8:	54ffff41 	b.ne	ff6031b0 <enable_dfs_div+0x220>  // b.any
    ff6031cc:	9ac808c6 	udiv	x6, x6, x8
    ff6031d0:	9ac808e7 	udiv	x7, x7, x8
    ff6031d4:	9ac80863 	udiv	x3, x3, x8
    ff6031d8:	9b077cc0 	mul	x0, x6, x7
    ff6031dc:	9ac30806 	udiv	x6, x0, x3
    ff6031e0:	d299dfa4 	mov	x4, #0xcefd                	// #52989
    ff6031e4:	f2b08c24 	movk	x4, #0x8461, lsl #16
    ff6031e8:	d29c2000 	mov	x0, #0xe100                	// #57600
    ff6031ec:	f2cee224 	movk	x4, #0x7711, lsl #32
    ff6031f0:	f2a0bea0 	movk	x0, #0x5f5, lsl #16
    ff6031f4:	f2f57984 	movk	x4, #0xabcc, lsl #48
    ff6031f8:	aa0003e5 	mov	x5, x0
    ff6031fc:	9b087cc6 	mul	x6, x6, x8
    ff603200:	d2800043 	mov	x3, #0x2                   	// #2
    ff603204:	9143d0c7 	add	x7, x6, #0xf4, lsl #12
    ff603208:	910900e7 	add	x7, x7, #0x240
    ff60320c:	9bc47ce7 	umulh	x7, x7, x4
    ff603210:	d35ae4e9 	ubfx	x9, x7, #26, #32
    ff603214:	d35afce7 	lsr	x7, x7, #26
    ff603218:	9b007d29 	mul	x9, x9, x0
    ff60321c:	cb0900c6 	sub	x6, x6, x9
    ff603220:	9ac308c0 	udiv	x0, x6, x3
    ff603224:	9b039804 	msub	x4, x0, x3, x6
    ff603228:	b50001a4 	cbnz	x4, ff60325c <enable_dfs_div+0x2cc>
    ff60322c:	9ac308a4 	udiv	x4, x5, x3
    ff603230:	9b039488 	msub	x8, x4, x3, x5
    ff603234:	b40000a8 	cbz	x8, ff603248 <enable_dfs_div+0x2b8>
    ff603238:	14000009 	b	ff60325c <enable_dfs_div+0x2cc>
    ff60323c:	9ac30884 	udiv	x4, x4, x3
    ff603240:	9b039488 	msub	x8, x4, x3, x5
    ff603244:	b50000c8 	cbnz	x8, ff60325c <enable_dfs_div+0x2cc>
    ff603248:	aa0003e6 	mov	x6, x0
    ff60324c:	aa0403e5 	mov	x5, x4
    ff603250:	9ac30800 	udiv	x0, x0, x3
    ff603254:	9b039808 	msub	x8, x0, x3, x6
    ff603258:	b4ffff28 	cbz	x8, ff60323c <enable_dfs_div+0x2ac>
    ff60325c:	91000463 	add	x3, x3, #0x1
    ff603260:	f100187f 	cmp	x3, #0x6
    ff603264:	54fffde1 	b.ne	ff603220 <enable_dfs_div+0x290>  // b.any
    ff603268:	d2948008 	mov	x8, #0xa400                	// #41984
    ff60326c:	d2800043 	mov	x3, #0x2                   	// #2
    ff603270:	f2bad268 	movk	x8, #0xd693, lsl #16
    ff603274:	9ac30900 	udiv	x0, x8, x3
    ff603278:	9b03a004 	msub	x4, x0, x3, x8
    ff60327c:	b50001a4 	cbnz	x4, ff6032b0 <enable_dfs_div+0x320>
    ff603280:	9ac308a4 	udiv	x4, x5, x3
    ff603284:	9b03948a 	msub	x10, x4, x3, x5
    ff603288:	b40000aa 	cbz	x10, ff60329c <enable_dfs_div+0x30c>
    ff60328c:	14000009 	b	ff6032b0 <enable_dfs_div+0x320>
    ff603290:	9ac30884 	udiv	x4, x4, x3
    ff603294:	9b03948a 	msub	x10, x4, x3, x5
    ff603298:	b50000ca 	cbnz	x10, ff6032b0 <enable_dfs_div+0x320>
    ff60329c:	aa0003e8 	mov	x8, x0
    ff6032a0:	aa0403e5 	mov	x5, x4
    ff6032a4:	9ac30800 	udiv	x0, x0, x3
    ff6032a8:	9b03a00a 	msub	x10, x0, x3, x8
    ff6032ac:	b4ffff2a 	cbz	x10, ff603290 <enable_dfs_div+0x300>
    ff6032b0:	91000463 	add	x3, x3, #0x1
    ff6032b4:	f100187f 	cmp	x3, #0x6
    ff6032b8:	54fffde1 	b.ne	ff603274 <enable_dfs_div+0x2e4>  // b.any
    ff6032bc:	9b087cc8 	mul	x8, x6, x8
    ff6032c0:	d299dfa6 	mov	x6, #0xcefd                	// #52989
    ff6032c4:	f2b08c26 	movk	x6, #0x8461, lsl #16
    ff6032c8:	d29c2000 	mov	x0, #0xe100                	// #57600
    ff6032cc:	f2cee226 	movk	x6, #0x7711, lsl #32
    ff6032d0:	f2a0bea0 	movk	x0, #0x5f5, lsl #16
    ff6032d4:	f2f57986 	movk	x6, #0xabcc, lsl #48
    ff6032d8:	d2948004 	mov	x4, #0xa400                	// #41984
    ff6032dc:	9ac50908 	udiv	x8, x8, x5
    ff6032e0:	f2bad264 	movk	x4, #0xd693, lsl #16
    ff6032e4:	d2800043 	mov	x3, #0x2                   	// #2
    ff6032e8:	9143d108 	add	x8, x8, #0xf4, lsl #12
    ff6032ec:	91090108 	add	x8, x8, #0x240
    ff6032f0:	9bc67d08 	umulh	x8, x8, x6
    ff6032f4:	d35ae506 	ubfx	x6, x8, #26, #32
    ff6032f8:	d35afd08 	lsr	x8, x8, #26
    ff6032fc:	9b007cc6 	mul	x6, x6, x0
    ff603300:	9ac308c0 	udiv	x0, x6, x3
    ff603304:	9b039805 	msub	x5, x0, x3, x6
    ff603308:	b40000e5 	cbz	x5, ff603324 <enable_dfs_div+0x394>
    ff60330c:	14000009 	b	ff603330 <enable_dfs_div+0x3a0>
    ff603310:	aa0003e6 	mov	x6, x0
    ff603314:	aa0503e4 	mov	x4, x5
    ff603318:	9ac30800 	udiv	x0, x0, x3
    ff60331c:	9b039805 	msub	x5, x0, x3, x6
    ff603320:	b5000085 	cbnz	x5, ff603330 <enable_dfs_div+0x3a0>
    ff603324:	9ac30885 	udiv	x5, x4, x3
    ff603328:	9b0390aa 	msub	x10, x5, x3, x4
    ff60332c:	b4ffff2a 	cbz	x10, ff603310 <enable_dfs_div+0x380>
    ff603330:	91000463 	add	x3, x3, #0x1
    ff603334:	f100187f 	cmp	x3, #0x6
    ff603338:	54fffe41 	b.ne	ff603300 <enable_dfs_div+0x370>  // b.any
    ff60333c:	d29c200a 	mov	x10, #0xe100                	// #57600
    ff603340:	d2800043 	mov	x3, #0x2                   	// #2
    ff603344:	f2a0beaa 	movk	x10, #0x5f5, lsl #16
    ff603348:	9ac30940 	udiv	x0, x10, x3
    ff60334c:	9b03a805 	msub	x5, x0, x3, x10
    ff603350:	b40000e5 	cbz	x5, ff60336c <enable_dfs_div+0x3dc>
    ff603354:	14000009 	b	ff603378 <enable_dfs_div+0x3e8>
    ff603358:	aa0003ea 	mov	x10, x0
    ff60335c:	aa0503e4 	mov	x4, x5
    ff603360:	9ac30800 	udiv	x0, x0, x3
    ff603364:	9b03a805 	msub	x5, x0, x3, x10
    ff603368:	b5000085 	cbnz	x5, ff603378 <enable_dfs_div+0x3e8>
    ff60336c:	9ac30885 	udiv	x5, x4, x3
    ff603370:	9b0390ab 	msub	x11, x5, x3, x4
    ff603374:	b4ffff2b 	cbz	x11, ff603358 <enable_dfs_div+0x3c8>
    ff603378:	91000463 	add	x3, x3, #0x1
    ff60337c:	f100187f 	cmp	x3, #0x6
    ff603380:	54fffe41 	b.ne	ff603348 <enable_dfs_div+0x3b8>  // b.any
    ff603384:	f10000df 	cmp	x6, #0x0
    ff603388:	9b0a7cc3 	mul	x3, x6, x10
    ff60338c:	fa401944 	ccmp	x10, #0x0, #0x4, ne  // ne = any
    ff603390:	d280002b 	mov	x11, #0x1                   	// #1
    ff603394:	54000240 	b.eq	ff6033dc <enable_dfs_div+0x44c>  // b.none
    ff603398:	9ac60860 	udiv	x0, x3, x6
    ff60339c:	eb0a001f 	cmp	x0, x10
    ff6033a0:	540001e0 	b.eq	ff6033dc <enable_dfs_div+0x44c>  // b.none
    ff6033a4:	aa0a03e3 	mov	x3, x10
    ff6033a8:	aa0603e0 	mov	x0, x6
    ff6033ac:	d503201f 	nop
    ff6033b0:	d341fc00 	lsr	x0, x0, #1
    ff6033b4:	d341fc63 	lsr	x3, x3, #1
    ff6033b8:	d37ff96b 	lsl	x11, x11, #1
    ff6033bc:	9b037c05 	mul	x5, x0, x3
    ff6033c0:	9ac008a5 	udiv	x5, x5, x0
    ff6033c4:	eb0300bf 	cmp	x5, x3
    ff6033c8:	54ffff41 	b.ne	ff6033b0 <enable_dfs_div+0x420>  // b.any
    ff6033cc:	9acb08c6 	udiv	x6, x6, x11
    ff6033d0:	9acb094a 	udiv	x10, x10, x11
    ff6033d4:	9acb0884 	udiv	x4, x4, x11
    ff6033d8:	9b0a7cc3 	mul	x3, x6, x10
    ff6033dc:	9ac40863 	udiv	x3, x3, x4
    ff6033e0:	d298400a 	mov	x10, #0xc200                	// #49664
    ff6033e4:	d29c2005 	mov	x5, #0xe100                	// #57600
    ff6033e8:	f2a17d6a 	movk	x10, #0xbeb, lsl #16
    ff6033ec:	f2a0bea5 	movk	x5, #0x5f5, lsl #16
    ff6033f0:	d2800044 	mov	x4, #0x2                   	// #2
    ff6033f4:	9b0b2463 	madd	x3, x3, x11, x9
    ff6033f8:	9ac40940 	udiv	x0, x10, x4
    ff6033fc:	9b04a806 	msub	x6, x0, x4, x10
    ff603400:	b50001a6 	cbnz	x6, ff603434 <enable_dfs_div+0x4a4>
    ff603404:	9ac408a6 	udiv	x6, x5, x4
    ff603408:	9b0494c9 	msub	x9, x6, x4, x5
    ff60340c:	b40000a9 	cbz	x9, ff603420 <enable_dfs_div+0x490>
    ff603410:	14000009 	b	ff603434 <enable_dfs_div+0x4a4>
    ff603414:	9ac408c6 	udiv	x6, x6, x4
    ff603418:	9b0494c9 	msub	x9, x6, x4, x5
    ff60341c:	b50000c9 	cbnz	x9, ff603434 <enable_dfs_div+0x4a4>
    ff603420:	aa0003ea 	mov	x10, x0
    ff603424:	aa0603e5 	mov	x5, x6
    ff603428:	9ac40800 	udiv	x0, x0, x4
    ff60342c:	9b04a809 	msub	x9, x0, x4, x10
    ff603430:	b4ffff29 	cbz	x9, ff603414 <enable_dfs_div+0x484>
    ff603434:	91000484 	add	x4, x4, #0x1
    ff603438:	f100189f 	cmp	x4, #0x6
    ff60343c:	54fffde1 	b.ne	ff6033f8 <enable_dfs_div+0x468>  // b.any
    ff603440:	d2800044 	mov	x4, #0x2                   	// #2
    ff603444:	9ac40860 	udiv	x0, x3, x4
    ff603448:	9b048c06 	msub	x6, x0, x4, x3
    ff60344c:	b50001a6 	cbnz	x6, ff603480 <enable_dfs_div+0x4f0>
    ff603450:	9ac408a6 	udiv	x6, x5, x4
    ff603454:	9b0494c9 	msub	x9, x6, x4, x5
    ff603458:	b40000a9 	cbz	x9, ff60346c <enable_dfs_div+0x4dc>
    ff60345c:	14000009 	b	ff603480 <enable_dfs_div+0x4f0>
    ff603460:	9ac408c6 	udiv	x6, x6, x4
    ff603464:	9b0494c9 	msub	x9, x6, x4, x5
    ff603468:	b50000c9 	cbnz	x9, ff603480 <enable_dfs_div+0x4f0>
    ff60346c:	aa0003e3 	mov	x3, x0
    ff603470:	aa0603e5 	mov	x5, x6
    ff603474:	9ac40800 	udiv	x0, x0, x4
    ff603478:	9b048c09 	msub	x9, x0, x4, x3
    ff60347c:	b4ffff29 	cbz	x9, ff603460 <enable_dfs_div+0x4d0>
    ff603480:	91000484 	add	x4, x4, #0x1
    ff603484:	f100189f 	cmp	x4, #0x6
    ff603488:	54fffde1 	b.ne	ff603444 <enable_dfs_div+0x4b4>  // b.any
    ff60348c:	9b0a7c63 	mul	x3, x3, x10
    ff603490:	d2800044 	mov	x4, #0x2                   	// #2
    ff603494:	9ac50863 	udiv	x3, x3, x5
    ff603498:	9ac40840 	udiv	x0, x2, x4
    ff60349c:	9b048805 	msub	x5, x0, x4, x2
    ff6034a0:	b40000e5 	cbz	x5, ff6034bc <enable_dfs_div+0x52c>
    ff6034a4:	14000009 	b	ff6034c8 <enable_dfs_div+0x538>
    ff6034a8:	aa0003e2 	mov	x2, x0
    ff6034ac:	aa0503e3 	mov	x3, x5
    ff6034b0:	9ac40800 	udiv	x0, x0, x4
    ff6034b4:	9b048805 	msub	x5, x0, x4, x2
    ff6034b8:	b5000085 	cbnz	x5, ff6034c8 <enable_dfs_div+0x538>
    ff6034bc:	9ac40865 	udiv	x5, x3, x4
    ff6034c0:	9b048ca6 	msub	x6, x5, x4, x3
    ff6034c4:	b4ffff26 	cbz	x6, ff6034a8 <enable_dfs_div+0x518>
    ff6034c8:	91000484 	add	x4, x4, #0x1
    ff6034cc:	f100189f 	cmp	x4, #0x6
    ff6034d0:	54fffe41 	b.ne	ff603498 <enable_dfs_div+0x508>  // b.any
    ff6034d4:	d29c2006 	mov	x6, #0xe100                	// #57600
    ff6034d8:	d2800044 	mov	x4, #0x2                   	// #2
    ff6034dc:	f2a0bea6 	movk	x6, #0x5f5, lsl #16
    ff6034e0:	9ac408c0 	udiv	x0, x6, x4
    ff6034e4:	9b049805 	msub	x5, x0, x4, x6
    ff6034e8:	b40000e5 	cbz	x5, ff603504 <enable_dfs_div+0x574>
    ff6034ec:	14000009 	b	ff603510 <enable_dfs_div+0x580>
    ff6034f0:	aa0003e6 	mov	x6, x0
    ff6034f4:	aa0503e3 	mov	x3, x5
    ff6034f8:	9ac40800 	udiv	x0, x0, x4
    ff6034fc:	9b049805 	msub	x5, x0, x4, x6
    ff603500:	b5000085 	cbnz	x5, ff603510 <enable_dfs_div+0x580>
    ff603504:	9ac40865 	udiv	x5, x3, x4
    ff603508:	9b048ca9 	msub	x9, x5, x4, x3
    ff60350c:	b4ffff29 	cbz	x9, ff6034f0 <enable_dfs_div+0x560>
    ff603510:	91000484 	add	x4, x4, #0x1
    ff603514:	f100189f 	cmp	x4, #0x6
    ff603518:	54fffe41 	b.ne	ff6034e0 <enable_dfs_div+0x550>  // b.any
    ff60351c:	f100005f 	cmp	x2, #0x0
    ff603520:	9b027cc0 	mul	x0, x6, x2
    ff603524:	fa4018c4 	ccmp	x6, #0x0, #0x4, ne  // ne = any
    ff603528:	d2800029 	mov	x9, #0x1                   	// #1
    ff60352c:	54000240 	b.eq	ff603574 <enable_dfs_div+0x5e4>  // b.none
    ff603530:	9ac20804 	udiv	x4, x0, x2
    ff603534:	eb0400df 	cmp	x6, x4
    ff603538:	540001e0 	b.eq	ff603574 <enable_dfs_div+0x5e4>  // b.none
    ff60353c:	aa0603e4 	mov	x4, x6
    ff603540:	aa0203e0 	mov	x0, x2
    ff603544:	d503201f 	nop
    ff603548:	d341fc00 	lsr	x0, x0, #1
    ff60354c:	d341fc84 	lsr	x4, x4, #1
    ff603550:	d37ff929 	lsl	x9, x9, #1
    ff603554:	9b047c05 	mul	x5, x0, x4
    ff603558:	9ac008a5 	udiv	x5, x5, x0
    ff60355c:	eb0400bf 	cmp	x5, x4
    ff603560:	54ffff41 	b.ne	ff603548 <enable_dfs_div+0x5b8>  // b.any
    ff603564:	9ac90842 	udiv	x2, x2, x9
    ff603568:	9ac908c6 	udiv	x6, x6, x9
    ff60356c:	9ac90863 	udiv	x3, x3, x9
    ff603570:	9b067c40 	mul	x0, x2, x6
    ff603574:	9ac30802 	udiv	x2, x0, x3
    ff603578:	d2884803 	mov	x3, #0x4240                	// #16960
    ff60357c:	f2a001e3 	movk	x3, #0xf, lsl #16
    ff603580:	d299dfa0 	mov	x0, #0xcefd                	// #52989
    ff603584:	f2b08c20 	movk	x0, #0x8461, lsl #16
    ff603588:	f2cee220 	movk	x0, #0x7711, lsl #32
    ff60358c:	9b090c42 	madd	x2, x2, x9, x3
    ff603590:	f2f57980 	movk	x0, #0xabcc, lsl #48
    ff603594:	9bc07c42 	umulh	x2, x2, x0
    ff603598:	d35afc42 	lsr	x2, x2, #26
    ff60359c:	eb02003f 	cmp	x1, x2
    ff6035a0:	54000c41 	b.ne	ff603728 <enable_dfs_div+0x798>  // b.any
    ff6035a4:	b9401280 	ldr	w0, [x20, #16]
    ff6035a8:	91003262 	add	x2, x19, #0xc
    ff6035ac:	11001c04 	add	w4, w0, #0x7
    ff6035b0:	531e7484 	lsl	w4, w4, #2
    ff6035b4:	b8644a66 	ldr	w6, [x19, w4, uxtw]
    ff6035b8:	b9400e65 	ldr	w5, [x19, #12]
    ff6035bc:	b9401263 	ldr	w3, [x19, #16]
    ff6035c0:	2a0503e1 	mov	w1, w5
    ff6035c4:	9ac02421 	lsr	x1, x1, x0
    ff6035c8:	36000081 	tbz	w1, #0, ff6035d8 <enable_dfs_div+0x648>
    ff6035cc:	2a0303e1 	mov	w1, w3
    ff6035d0:	9ac02421 	lsr	x1, x1, x0
    ff6035d4:	360005a1 	tbz	w1, #0, ff603688 <enable_dfs_div+0x6f8>
    ff6035d8:	d2800021 	mov	x1, #0x1                   	// #1
    ff6035dc:	710000bf 	cmp	w5, #0x0
    ff6035e0:	9ac02021 	lsl	x1, x1, x0
    ff6035e4:	12001423 	and	w3, w1, #0x3f
    ff6035e8:	528007e0 	mov	w0, #0x3f                  	// #63
    ff6035ec:	1a801063 	csel	w3, w3, w0, ne  // ne = any
    ff6035f0:	b9001263 	str	w3, [x19, #16]
    ff6035f4:	b9001663 	str	w3, [x19, #20]
    ff6035f8:	b9400040 	ldr	w0, [x2]
    ff6035fc:	6a00007f 	tst	w3, w0
    ff603600:	54ffffc1 	b.ne	ff6035f8 <enable_dfs_div+0x668>  // b.any
    ff603604:	53181ce0 	ubfiz	w0, w7, #8, #8
    ff603608:	12001d08 	and	w8, w8, #0xff
    ff60360c:	2a080000 	orr	w0, w0, w8
    ff603610:	35000385 	cbnz	w5, ff603680 <enable_dfs_div+0x6f0>
    ff603614:	52800043 	mov	w3, #0x2                   	// #2
    ff603618:	b9001a63 	str	w3, [x19, #24]
    ff60361c:	b8244a60 	str	w0, [x19, w4, uxtw]
    ff603620:	12800040 	mov	w0, #0xfffffffd            	// #-3
    ff603624:	b9001a60 	str	w0, [x19, #24]
    ff603628:	b9401660 	ldr	w0, [x19, #20]
    ff60362c:	0a210000 	bic	w0, w0, w1
    ff603630:	b9001660 	str	w0, [x19, #20]
    ff603634:	d503201f 	nop
    ff603638:	b9400040 	ldr	w0, [x2]
    ff60363c:	0a010000 	and	w0, w0, w1
    ff603640:	eb01001f 	cmp	x0, x1
    ff603644:	54ffffa1 	b.ne	ff603638 <enable_dfs_div+0x6a8>  // b.any
    ff603648:	b9401260 	ldr	w0, [x19, #16]
    ff60364c:	0a010000 	and	w0, w0, w1
    ff603650:	f240141f 	tst	x0, #0x3f
    ff603654:	54000861 	b.ne	ff603760 <enable_dfs_div+0x7d0>  // b.any
    ff603658:	f9401bf7 	ldr	x23, [sp, #48]
    ff60365c:	52800000 	mov	w0, #0x0                   	// #0
    ff603660:	a94153f3 	ldp	x19, x20, [sp, #16]
    ff603664:	a9425bf5 	ldp	x21, x22, [sp, #32]
    ff603668:	a8c47bfd 	ldp	x29, x30, [sp], #64
    ff60366c:	d65f03c0 	ret
    ff603670:	f94006a0 	ldr	x0, [x21, #8]
    ff603674:	aa1703e1 	mov	x1, x23
    ff603678:	94000a6e 	bl	ff606030 <get_module_rate>
    ff60367c:	17fffe5d 	b	ff602ff0 <enable_dfs_div+0x60>
    ff603680:	b8244a60 	str	w0, [x19, w4, uxtw]
    ff603684:	17ffffe9 	b	ff603628 <enable_dfs_div+0x698>
    ff603688:	d3483cc1 	ubfx	x1, x6, #8, #8
    ff60368c:	12001cc6 	and	w6, w6, #0xff
    ff603690:	6b07003f 	cmp	w1, w7
    ff603694:	7a4800c0 	ccmp	w6, w8, #0x0, eq  // eq = none
    ff603698:	54fffa01 	b.ne	ff6035d8 <enable_dfs_div+0x648>  // b.any
    ff60369c:	17ffffef 	b	ff603658 <enable_dfs_div+0x6c8>
    ff6036a0:	900000a0 	adrp	x0, ff617000 <psci_args.0+0x28>
    ff6036a4:	91178000 	add	x0, x0, #0x5e0
    ff6036a8:	97fff3de 	bl	ff600620 <tf_log>
    ff6036ac:	128002a0 	mov	w0, #0xffffffea            	// #-22
    ff6036b0:	a94153f3 	ldp	x19, x20, [sp, #16]
    ff6036b4:	a9425bf5 	ldp	x21, x22, [sp, #32]
    ff6036b8:	a8c47bfd 	ldp	x29, x30, [sp], #64
    ff6036bc:	d65f03c0 	ret
    ff6036c0:	b9401281 	ldr	w1, [x20, #16]
    ff6036c4:	d2800020 	mov	x0, #0x1                   	// #1
    ff6036c8:	b9401663 	ldr	w3, [x19, #20]
    ff6036cc:	9ac12000 	lsl	x0, x0, x1
    ff6036d0:	2a0003e2 	mov	w2, w0
    ff6036d4:	6a00007f 	tst	w3, w0
    ff6036d8:	54000501 	b.ne	ff603778 <enable_dfs_div+0x7e8>  // b.any
    ff6036dc:	91003261 	add	x1, x19, #0xc
    ff6036e0:	2a000063 	orr	w3, w3, w0
    ff6036e4:	b9001663 	str	w3, [x19, #20]
    ff6036e8:	b9400020 	ldr	w0, [x1]
    ff6036ec:	6a00005f 	tst	w2, w0
    ff6036f0:	54ffffc1 	b.ne	ff6036e8 <enable_dfs_div+0x758>  // b.any
    ff6036f4:	b9400e60 	ldr	w0, [x19, #12]
    ff6036f8:	35fffb00 	cbnz	w0, ff603658 <enable_dfs_div+0x6c8>
    ff6036fc:	52800041 	mov	w1, #0x2                   	// #2
    ff603700:	52800000 	mov	w0, #0x0                   	// #0
    ff603704:	f9401bf7 	ldr	x23, [sp, #48]
    ff603708:	b9001a61 	str	w1, [x19, #24]
    ff60370c:	17ffffd5 	b	ff603660 <enable_dfs_div+0x6d0>
    ff603710:	900000a0 	adrp	x0, ff617000 <psci_args.0+0x28>
    ff603714:	9118e000 	add	x0, x0, #0x638
    ff603718:	97fff3c2 	bl	ff600620 <tf_log>
    ff60371c:	128002a0 	mov	w0, #0xffffffea            	// #-22
    ff603720:	f9401bf7 	ldr	x23, [sp, #48]
    ff603724:	17ffffcf 	b	ff603660 <enable_dfs_div+0x6d0>
    ff603728:	900000a0 	adrp	x0, ff617000 <psci_args.0+0x28>
    ff60372c:	91196000 	add	x0, x0, #0x658
    ff603730:	97fff3bc 	bl	ff600620 <tf_log>
    ff603734:	128002a0 	mov	w0, #0xffffffea            	// #-22
    ff603738:	f9401bf7 	ldr	x23, [sp, #48]
    ff60373c:	17ffffc9 	b	ff603660 <enable_dfs_div+0x6d0>
    ff603740:	128002a0 	mov	w0, #0xffffffea            	// #-22
    ff603744:	f9401bf7 	ldr	x23, [sp, #48]
    ff603748:	17ffffc6 	b	ff603660 <enable_dfs_div+0x6d0>
    ff60374c:	900000a0 	adrp	x0, ff617000 <psci_args.0+0x28>
    ff603750:	9108c000 	add	x0, x0, #0x230
    ff603754:	97fff3b3 	bl	ff600620 <tf_log>
    ff603758:	128002a0 	mov	w0, #0xffffffea            	// #-22
    ff60375c:	17ffffc1 	b	ff603660 <enable_dfs_div+0x6d0>
    ff603760:	900000a0 	adrp	x0, ff617000 <psci_args.0+0x28>
    ff603764:	911aa000 	add	x0, x0, #0x6a8
    ff603768:	97fff3ae 	bl	ff600620 <tf_log>
    ff60376c:	128002a0 	mov	w0, #0xffffffea            	// #-22
    ff603770:	f9401bf7 	ldr	x23, [sp, #48]
    ff603774:	17ffffbb 	b	ff603660 <enable_dfs_div+0x6d0>
    ff603778:	aa1303e2 	mov	x2, x19
    ff60377c:	900000a0 	adrp	x0, ff617000 <psci_args.0+0x28>
    ff603780:	91182000 	add	x0, x0, #0x608
    ff603784:	97fff3a7 	bl	ff600620 <tf_log>
